xc:_glClearStencil
aeg:_UInt16_System_IConvertible_ToChar_m2096055221_AdjustorThunk
fJf:_Array_TrueForAll_TisRuntimeObject_m1084992726_gshared
u8g:_List_1_Contains_m2043664690_gshared
bij:__ZN6il2cpp2vm5Array13GetByteLengthEP11Il2CppArray
Bxi:_KeyBuilder_get_Rng_m3373220441
pXc:__ZN15DownloadHandler7OnAbortEv
rSa:__Z30GetIntermediateRendererManagerv
pdi:_U3CCreateWhereIteratorU3Ec__Iterator1D_1_System_Collections_Generic_IEnumeratorU3CTSourceU3E_get_Current_m1909387290_gshared
Vxa:__Z21SourceMipLevelForBlitiiii
TWa:__ZN31CanvasBatchIntermediateRenderer15AddAsRenderNodeER15RenderNodeQueueRK20DeprecatedSourceData
rbg:_TimeSpan_get_Hours_m550761902
eRh:__ZL95CanvasRenderer_t2598313366_CustomAttributesCacheGenerator_CanvasRenderer_SetMaterial_m824577244P21CustomAttributesCache
YPh:__ZL72GUISkin_t1244372282_CustomAttributesCacheGenerator_m_verticalSliderThumbP21CustomAttributesCache
gJh:__ZL63PlayableOutputHandle_t4208053793_CustomAttributesCacheGeneratorP21CustomAttributesCache
iOd:_UnmanagedMemoryStream_Write_m930787521
wTc:__ZN11UnityEngine7Connect14AppUpdateEventD0Ev
tmh:__ZL66RuntimeArray_CustomAttributesCacheGenerator_Array_Sort_m3287581440P21CustomAttributesCache
WW:__ZdlPv
yr:__ZN11UnityEngine9Animation28GenericAnimationBindingCacheD2Ev
S8f:_UTF8Encoding_GetHashCode_m641510078
ioi:_X509Store_LoadCrl_m1881903843
d0h:_Array_Sort_TisUICharInfo_t75501106_TisUICharInfo_t75501106_m722747892_gshared
vvd:_CaseInsensitiveComparer__ctor_m2101975011
IEg:__Z67RuntimeInvoker_Byte_t1134296376_Int32_t2950945753_Int32_t2950945753PFvvEPK10MethodInfoPvPS4_
R6a:__ZNSt3__26vectorI13dynamic_arrayI8Vector2fLj4EENS_9allocatorIS3_EEEC2INS_11__wrap_iterIPS3_EEEET_SB_RKS5_PNS_9enable_ifIXaasr21__is_forward_iteratorISB_EE5valuesr16is_constructibleIS3_NS_15iterator_traitsISB_E9referenceEEE5valueEvE4typeE
lDg:__Z53RuntimeInvoker_UInt32_t2560061978_Decimal_t2948259380PFvvEPK10MethodInfoPvPS4_
ZXb:__Z18RestoreRenderStateR20CameraRenderOldStateR17ShaderPassContext
tyb:__Z18Transfer_BlittableI18StreamedBinaryReadILb1EELb1E5RectTIfEEvRK29SerializationCommandArgumentsR31RuntimeSerializationCommandInfo
lub:__Z18Transfer_BlittableI24GenerateTypeTreeTransferLb0E11ColorRGBA32EvRK29SerializationCommandArgumentsR31RuntimeSerializationCommandInfo
eDb:__Z25scripting_class_from_name17ScriptingImagePtrPKcS1_
aMf:_Array_InternalArray__IndexOf_TisKeyValuePair_2_t3699644050_m1021241249_gshared
H2i:__ZN14dense_hash_mapI10KeyWrapperINSt3__24pairIPK12PropertyInfoP11Il2CppClassEEEj17ReflectionMapHashIS8_ENS9_14EqualsComparerINS1_8equal_toIS8_EEEENS1_9allocatorINS2_IKS9_jEEEEE15set_deleted_keyERSH_
FEb:__Z29scripting_class_enum_basetype17ScriptingClassPtr
t8g:_List_1_Clear_m3097985365_gshared
KX:__ZNK12BaseRenderer18GetRenderNodeCountEv
RZd:_PropertyBuilder_get_CanWrite_m2657562188
dte:_InternalEnumerator_1_get_Current_m1477715453_gshared
H$f:_Enumerator__ctor_m2827156589_AdjustorThunk
Ilb:__ZNK20LocalFileSystemPosix6ParentERK13FileEntryDataRN4core12basic_stringIcNS3_20StringStorageDefaultIcEEEE
kvg:_RectTransform_GetWorldCorners_m3553547973
Heh:_Collection_1_System_Collections_IList_Remove_m1476284619_gshared
V$e:_ContractionComparer__ctor_m3439667810
iQd:_MonoType_IsPrimitiveImpl_m2401722705
tjf:_SHA1CryptoServiceProvider__ctor_m4195188793
Ukg:_CSSMeasureFunc_BeginInvoke_m3802154595
s8c:_Dropdown_Hide_m504034854
GLa:__ZN17PersistentManager22CheckInstanceIDsLoadedEPii
O3a:__ZN9Texture2D25CreateScaledAndPaddedDataEPP17SharedTextureDataS2_
ezg:_Vector2_get_up_m2647420593
zva:__ZN7ApiGLES17CopyBufferSubDataEjjlll
bPf:_Array_InternalArray__ICollection_CopyTo_TisUInt64_t4134040092_m691431926_gshared
leh:__ZN23InterfaceActionInvoker2Ii22OrderBlock_t1585977831E6InvokeEjP11Il2CppClassP12Il2CppObjectiS0_
gaf:_IPAddress_ToString_m1181734207
Z6f:_StringBuilder_Append_m1965104174
Uoc:__ZN5Unity9rapidjson15GenericDocumentINS0_4UTF8IcEE13JSONAllocatorS4_E11ParseStreamILj1ES3_NS0_25GenericInsituStringStreamIS3_EEEERS5_RT1_
yMi:__ZNSt3__26vectorIPK10Il2CppTypeNS_9allocatorIS3_EEE7reserveEj
EVf:_EqualityComparer_1__cctor_m3766928733_gshared
eQb:__ZN25CameraStackRenderingState20GetOrCreateBuiltinRTE24BuiltinRenderTextureTypeii17DepthBufferFormat19RenderTextureFormatj22RenderTextureReadWrite14VRTextureUsagei
xgi:_UnityAction_1_Invoke_m610765085_gshared
vO:__ZN11AudioModule26SetDefaultMicrophoneDriverEPv
S5d:_Kernel_modInverse_m652700340
j8a:__ZNK14Texture2DArray26CanReuploadDataToGfxDeviceEv
tUb:__ZN17PrePassRenderLoop14RenderBasePassEP13RenderTextureRK14LightingLayersR13dynamic_arrayI16RenderObjectDataLj4EERbR10MinMaxAABB
qQa:__ZN17GlobalGameManager23VirtualRedirectTransferER17RemapPPtrTransfer
JEc:_sfnt_stream_close
Jmc:__ZN5IMGUI18RepaintModalWindowER8GUIState
F7e:_HybridDictionary_get_IsSynchronized_m2987560362
i4:__ZNK15dense_hashtableINSt3__24pairIKN9ShaderLab7Program23ShaderKeywordSetAndHashEPKNS2_10SubProgramEEES4_NS3_24ShaderKeywordHashFunctorEN14dense_hash_mapIS4_S8_SA_NS0_8equal_toIS4_EE13stl_allocatorIS9_L18MemLabelIdentifier67ELi16EEE9SelectKeyESD_SG_E23find_position_with_hashERS5_j
IDf:_CompareInfo_Finalize_m404687489
U6a:__Z23SetSpriteMeshIndexCountP14SharedMeshDataj
V8f:_UTF8Decoder_GetChars_m1236346907
wxg:_TouchScreenKeyboard_Open_m231964201
W_a:__ZN7Texture13SetFilterModeEi
Usg:_Quaternion_GetHashCode_m2636680144_AdjustorThunk
yIb:__ZNSt3__26vectorINS_4pairIiN17InstancingBatcher12PropertyTypeEEE13stl_allocatorIS4_L18MemLabelIdentifier1ELi16EEE21__push_back_slow_pathIKS4_EEvRT_
oOh:__ZL99AudioSource_t3935305588_CustomAttributesCacheGenerator_AudioSource_t3935305588____clip_PropertyInfoP21CustomAttributesCache
Djj:__ZN6il2cpp8metadata13GenericMethod9GetMethodEPK19Il2CppGenericMethod
mq:__ZNSt3__26vectorIN4core12basic_stringIcNS1_20StringStorageDefaultIcEEEENS_9allocatorIS5_EEE7reserveEj
PTd:_Default_SelectProperty_m1220817815
UDe:_RemotingConfiguration_IsRemotelyActivatedClientType_m4117048589
mvg:_Transform_TransformPoint_m226827784
Tii:_ListPool_1_Get_m738675669_gshared
spa:__ZN13GfxDeviceGLES11SetViewportERK5RectTIiE
zjc:__Z24Time_Get_Custom_PropTimev
Od:_emscripten_glDepthRange
Bge:_SslStreamBase_BeginNegotiateHandshake_m4180435790
m_b:__ZNSt3__26vectorINS_4pairIN4core12basic_stringIcNS2_20StringStorageDefaultIcEEEES6_EE13stl_allocatorIS7_L18MemLabelIdentifier38ELi16EEE12__move_rangeEPS7_SC_SC_
Cia:__Z14resize_trimmedINSt3__26vectorIN9ShaderLab20SerializedSubProgram12UAVParameterENS0_9allocatorIS4_EEEEEvRT_j
mpc:__ZN5Unity9rapidjson13GenericReaderINS0_4UTF8IcEES3_13JSONAllocatorE11ParseObjectILj1ENS0_25GenericInsituStringStreamIS3_EENS0_15GenericDocumentIS3_S4_S4_EEEEvRT0_RT1_
M2c:_StandaloneInputModule_GetRawMoveVector_m2737091079
fXh:__ZL62Selectable_t3250028441_CustomAttributesCacheGenerator_m_ColorsP21CustomAttributesCache
Uge:_SslStreamBase_EndWrite_m4073224031
H1:__ZNSt3__218__insertion_sort_3IRNS_6__lessI14ObjectLoadDataS2_EEPS2_EEvT0_S6_T_
AOh:__ZL92Event_t2956885303_CustomAttributesCacheGenerator_Event_Internal_GetMousePosition_m1101229675P21CustomAttributesCache
B1g:_List_1_System_Collections_ICollection_get_SyncRoot_m1244917400_gshared
pxa:__ZN4crndL20crnd_default_reallocEPvjPjbS0_
PZg:__Z54RuntimeInvoker_CustomAttributeNamedArgument_t287865710PFvvEPK10MethodInfoPvPS4_
vxj:__ZNSt3__212basic_stringIcNS_11char_traitsIcEENS_9allocatorIcEEEC2ERKS5_
K7a:__ZN18SpriteAtlasManager19AddRequestingSpriteE4PPtrI6SpriteE
kjc:__Z33Texture_CUSTOM_Internal_GetHeightP12Il2CppObject
_Oh:__ZL102GUIStyle_t3956901511_CustomAttributesCacheGenerator_GUIStyle_INTERNAL_CALL_GetRectOffsetPtr_m152975056P21CustomAttributesCache
eM:__ZNK4PPtrI9AudioClipEptEv
kBe:_ValueCollection_System_Collections_ICollection_get_SyncRoot_m3381653267_gshared
F4c:_CanvasScaler_get_defaultSpriteDPI_m871626936
cXb:__ZN23ScriptableRenderContextC2Ev
gbd:_GridLayoutGroup_get_spacing_m2409263614
DSa:__ZN4PPtrI13RenderTextureE8TransferI18StreamedBinaryReadILb0EEEEvRT_
dAe:_Enumerator_MoveNext_m3051926902_gshared
K2f:_List_1_CheckIndex_m581273900_gshared
DGc:_UNITY_FT_Stream_GetChar
Yzg:_WaitForSeconds_t1699091251_marshal_pinvoke
iji:_ObjectPool_1_get_countAll_m819305395_gshared
Uyb:__Z18Transfer_BlittableI18StreamedBinaryReadILb1EELb1EdEvRK29SerializationCommandArgumentsR31RuntimeSerializationCommandInfo
_3g:_List_1_ToArray_m190175978_gshared
NEb:__Z26BuildSerializationCacheFor17ScriptingClassPtrRb
P_c:_EventSystem_get_firstSelectedGameObject_m1576206896
zDa:__ZN7ApiGLES15BlitFramebufferEN2gl6HandleILNS0_10ObjectTypeE9EEENS0_15FramebufferReadES3_S3_iiiiiiiiNS0_15FramebufferTypeE
E3i:_il2cpp_class_get_name
TMg:__Z112RuntimeInvoker_RuntimeObject_RuntimeObject_RuntimeObject_RuntimeObject_RuntimeObject_RuntimeObject_RuntimeObjectPFvvEPK10MethodInfoPvPS4_
sse:_InternalEnumerator_1_System_Collections_IEnumerator_get_Current_m3553395619_AdjustorThunk
Voh:__ZL70AssemblyVersionCompatibility_t766556580_CustomAttributesCacheGeneratorP21CustomAttributesCache
lnd:_Array_SetValue_m3998268557
Evc:__ZN8JSONRead8TransferI8Vector4fEEvRT_PKc17TransferMetaFlagsb
C5c:_ColorBlock_set_highlightedColor_m2089444414_AdjustorThunk
UVg:__Z59RuntimeInvoker_Boolean_t97287965_X509ChainStatus_t133602714PFvvEPK10MethodInfoPvPS4_
Xug:_RectTransform_INTERNAL_set_anchoredPosition_m939517950
mde:_Context_EndSwitchingSecurityParameters_m4148956166
HBc:_otv_PairPos_validate
Pyh:__ZL63ThreadStateException_t3003788475_CustomAttributesCacheGeneratorP21CustomAttributesCache
aw:__ZN7mecanim9animation14CopyHumanPosesEPKNS0_18AnimationNodeStateEPS1_RKNS_6bitsetILj83EEE
BUi:__ZN6il2cpp6icalls8mscorlib6SystemL8IsStaticEPK12PropertyInfo
cGb:__Z9InitInputv
T1i:__ZN30dense_hashtable_const_iteratorINSt3__24pairIK10KeyWrapperIPK22Il2CppGenericParameterEPK24MonoGenericParameterInfoEES6_N6il2cpp5utils11PointerHashIS4_EEN14dense_hash_mapIS6_SA_SF_NS6_14EqualsComparerINS0_8equal_toIS5_EEEENS0_9allocatorISB_EEE9SelectKeyESK_SM_E30advance_past_empty_and_deletedEv
CDc:_UNITY_tt_face_build_cmaps
c_i:__ZN6il2cpp2gc19AppendOnlyGCHashMapINSt3__24pairIPK10MethodInfoP11Il2CppClassEEP22Il2CppReflectionMethod17ReflectionMapHashIS9_ENS2_8equal_toIS9_EEE3AddERKS9_SB_
Nmb:__ZN16MemoryFileSystem6DeleteER13FileEntryDatab
DHg:__Z81RuntimeInvoker_Void_t1185182177_RuntimeObject_Int64_t3736567304_Int32_t2950945753PFvvEPK10MethodInfoPvPS4_
V3f:_List_1_set_Item_m1979164443_gshared
lya:__ZL21BlitScaleStbImageImplRK14ImageReferenceRS_NS_10ColorSpaceE
Qpd:_Boolean_System_IConvertible_ToUInt16_m3465173538_AdjustorThunk
DPe:_InputField_get_keyboardType_m1248105267
cqb:__Z29Transfer_Blittable_ArrayFieldI14SafeBinaryReadyEvRT_R9ArrayInfoRK23StaticTransferFieldInfo
kM:__ZN20SoundChannelInstance15setChannelGroupEPN4FMOD12ChannelGroupE
Goi:_Match__ctor_m2425511580
Uph:__ZL63FileNotFoundException_t225391025_CustomAttributesCacheGeneratorP21CustomAttributesCache
FFh:__ZL84Behaviour_t1437897464_CustomAttributesCacheGenerator_Behaviour_set_enabled_m20417929P21CustomAttributesCache
lc:invoke_vifffii
EBb:__Z35Transfer_Blittable_FixedBufferFieldI18StreamedBinaryReadILb0EEaEvRK29SerializationCommandArgumentsR31RuntimeSerializationCommandInfo
u9i:__ZN6il2cpp2vm9Exception27RaiseNullReferenceExceptionEv
vOa:__ZNK25MultiBlocksMemoryFileData5CloneEv
jme:_InternalEnumerator_1_System_Collections_IEnumerator_Reset_m3873091784_AdjustorThunk
jpj:_GC_add_ext_descriptor
tYi:__ZNK15dense_hashtableINSt3__24pairIK10KeyWrapperINS1_IPK14Il2CppAssemblyP11Il2CppClassEEEjEES9_17ReflectionMapHashIS8_EN14dense_hash_mapIS9_jSD_NS9_14EqualsComparerINS0_8equal_toIS8_EEEENS0_9allocatorISB_EEE9SelectKeyESI_SK_E23find_position_with_hashERSA_j
Z1h:_LayoutGroup_SetProperty_TisSingle_t1397266774_m793506911_gshared
lqj:__ZN6il2cpp2os14WindowsRuntime22GetRestrictedErrorInfoEv
sfd:_CryptoConfig_CreateFromName_m1538277313
sah:_Queue_1__ctor_m263978079_gshared
ANa:__ZN17ArchiveFileSystem11CreateAsDirER13FileEntryData
wzj:dynCall_iiiiiiiiiiii
OPe:_InputField_set_caretPositionInternal_m3823580651
HJa:__ZN22VertexDeclarationCacheD0Ev
pZe:_Selectable_set_interactable_m3105888815
dXa:__ZL26KeywordSetToStringDontSortRKNSt3__26vectorIN4core12basic_stringIcNS1_20StringStorageDefaultIcEEEENS_9allocatorIS5_EEEERS5_
dAa:__ZN6prcoreL17RemapGenericFloatI16TexFormatRGFloat17TexFormatRGBAHalfEEvPKNS_9InnerInfoE
tG:__ZN12AudioManager22CreateFMODSoundFromWWWEP10IWWWStream15FMOD_SOUND_TYPE17FMOD_SOUND_FORMATjjbbP10SampleClip
S5b:__ZNK32RendererMaterialAnimationBinding15GenerateBindingERKN4core12basic_stringIcNS0_20StringStorageDefaultIcEEEEbRN11UnityEngine9Animation14GenericBindingE
Q2d:_TargetException__ctor_m4172127019
W2g:_List_1_CheckCollection_m274117203_gshared
IRh:__ZL70EventSystem_t1003666588_CustomAttributesCacheGenerator_m_FirstSelectedP21CustomAttributesCache
b_:__ZN8Remapper23GetOrGenerateInstanceIDERK26SerializedObjectIdentifier
o6c:_ColorTween_get_startColor_m3792586410_AdjustorThunk
HNa:__ZN17FileSystemHandler10AtomicMoveER13FileEntryDataS1_
Ya:invoke_iiiiiifffiiifii
AEg:__Z85RuntimeInvoker_Void_t1185182177_Int32_t2950945753_Int32_t2950945753_Int32_t2950945753PFvvEPK10MethodInfoPvPS4_
TMe:_BinaryFormatter_get_SurrogateSelector_m2111882017
Ojd:_X509CertificateCollection__ctor_m3365535796
ERd:_CustomInfo__ctor_m426096741
f$c:_EventSystem_ToString_m3779610692
d7a:__ZN6Sprite8TransferI24GenerateTypeTreeTransferEEvRT_
hLe:_SoapTypeAttribute_get_IsInteropXmlType_m629667929
okc:__Z48Register_UnityEngine_Transform_SetAsFirstSiblingv
p1a:__ZNK18DelayedCallManager22GetTypeVirtualInternalEv
g7a:__ZN7SubMesh8TransferI24GenerateTypeTreeTransferEEvRT_
Ssi:_Literal_IsComplex_m4067122560
CVi:_NativeTypeAttribute__ctor_m133676646
CJb:__ZN19GfxThreadableDevice20SetShadersThreadableEPP10GpuProgramPPK20GpuProgramParametersPKPKh
vhh:_Collection_1_System_Collections_IList_Contains_m296643274_gshared
kId:_DirectoryInfo__ctor_m126519516
p$d:_MethodBase_GetMethodFromIntPtr_m3014201362
Neh:__ZN21InterfaceFuncInvoker1I19Color32_t2600501292iE6InvokeEjP11Il2CppClassP12Il2CppObjecti
Wri:_Reference_get_CapturingGroup_m3861468528
hEg:__Z40RuntimeInvoker_TypeAttributes_t113483779PFvvEPK10MethodInfoPvPS4_
scc:__ZN9Transform23SetSiblingIndexInternalEib
I3g:_List_1_Clear_m1143167521_gshared
U_d:_AddEventAdapter__ctor_m2428277574
sjh:_Collection_1_SetItem_m794903769_gshared
Dyd:_Enumerator_MoveNext_m635366482
bkd:_X509Extension_Equals_m1222951829
uu:__ZN7mecanim5human12HumanPoseSubERNS0_9HumanPoseERKS1_S4_
v$g:__Z37RuntimeInvoker_Enumerator_t1789501480PFvvEPK10MethodInfoPvPS4_
Adj:__ZN6il2cpp8metadata15GenericMetadata15GetGenericClassEiPK17Il2CppGenericInst
Dsd:_Char_GetTypeCode_m2433327340_AdjustorThunk
Dob:__Z18Transfer_BlittableI14SafeBinaryReadLb0E10Matrix4x4fEvRK29SerializationCommandArgumentsR31RuntimeSerializationCommandInfo
cEb:__Z24GetFixedBehaviourManagerv
elh:__ZL69IntPtr_t_CustomAttributesCacheGenerator_IntPtr_op_Equality_m408849716P21CustomAttributesCache
xTi:__ZN6il2cpp2vm10ThreadPool4WaitEP17Il2CppAsyncResultPPv
w$e:_Text_UpdateGeometry_m3634850647
Uni:_X509Crl_VerifySignature_m1377612461
Kuj:_vfprintf
gnc:__ZN10GUIManager12AddGUIScriptER8ListNodeI13MonoBehaviourE
bBf:_NumberFormatInfo_get_PositiveInfinitySymbol_m1141345134
Syd:_Stack_Clear_m2010200235
M0a:__ZL13SortTexByNameRKNSt3__24pairIN9ShaderLab16FastPropertyNameEN18UnityPropertySheet11UnityTexEnvEEES7_
lyc:_cf2_getVStore
X0c:_PointerEventData_set_pointerPressRaycast_m1363193059
aOb:__ZN20DynamicPropertySheetD0Ev
e5d:_SafeHandle_Dispose_m4229010569
q_b:__ZN14SafeBinaryRead17RegisterConverterEPKcS1_PFbPvRS_E
nKh:__ZL77RuntimePlatform_t4159857903_CustomAttributesCacheGenerator_OSXDashboardPlayerP21CustomAttributesCache
m8:__ZN35RegisterRuntimeInitializeAndCleanup8RegisterEPFvPvES2_iS0_
yli:_SubjectAltNameExtension_get_IPAddresses_m1641002124
vXd:_FieldBuilder_SetValue_m828035213
bQf:_Array_InternalArray__Insert_TisSingle_t1397266774_m3161726127_gshared
u9h:_ReadOnlyCollection_1_System_Collections_IList_get_IsFixedSize_m733459177_gshared
Blh:__ZL72Enum_t4135868527_CustomAttributesCacheGenerator_Enum_ToObject_m121962870P21CustomAttributesCache
t3f:__ZN23InterfaceActionInvoker2IP24ObjectU5BU5D_t2843939325iE6InvokeEjP11Il2CppClassP12Il2CppObjectS1_i
skc:__Z21Object_CUSTOM_DestroyP12Il2CppObjectf
DKh:__ZL99SetupCoroutine_t2062820429_CustomAttributesCacheGenerator_SetupCoroutine_InvokeMoveNext_m3199342729P21CustomAttributesCache
foa:__ZN8Material26ResetAllCachedMaterialDataEP6Shader
vLg:__Z63RuntimeInvoker_Void_t1185182177_RuntimeObject_Int16_t2552820387PFvvEPK10MethodInfoPvPS4_
PGc:_UNITY_TT_Get_MM_Var
bOe:_ObjectManager_AddFixup_m2154325362
uue:_Comparer_1__cctor_m3761458313_gshared
fwf:_DateTimeOffset_CompareTo_m1350732322_AdjustorThunk
aa:invoke_diddi
OOc:__ZNK2UI6Canvas13GetRenderModeEv
Img:_PersistentCall__ctor_m1217622171
fLf:_Array_compare_TisCustomAttributeTypedArgument_t2723150157_m1384644047_gshared
U6e:_StrongName_get_TokenAlgorithm_m1794722022
$Hd:_BinaryReader_ReadInt32_m2994982418
Onb:__Z18Transfer_BlittableI14SafeBinaryReadLb0EiEvRK29SerializationCommandArgumentsR31RuntimeSerializationCommandInfo
jSi:__ZN6il2cpp2vm13MetadataCache30GetPropertyDefinitionFromIndexEi
Jxi:_SymmetricTransform_Transform_m1683494363
cug:_Rect_Contains_m1232228501
yVc:__ZN22BaseUnityConnectClient17InitializeSessionERKN4core12basic_stringIcNS0_20StringStorageDefaultIcEEEES6_N19CloudServiceHandler13InitModeFlagsE
nRg:__Z74RuntimeInvoker_RuntimeObject_Int32_t2950945753_RuntimeObject_RuntimeObjectPFvvEPK10MethodInfoPvPS4_
Q8g:_List_1_get_Item_m200663048_gshared
IKe:_ReturnMessage_get_Exception_m3375728265
sFj:_emscripten_glDeleteBuffers__wrapper
hoe:_InternalEnumerator_1_MoveNext_m3664960764_AdjustorThunk
Vdc:__ZN13MonoBehaviour34StopCoroutineFromEnumeratorManagedE18ScriptingObjectPtr
o1g:_List_1__ctor_m1345008423_gshared
NEc:_gray_raster_reset
Yhg:_Application_set_targetFrameRate_m3682352535
jzg:_Vector3__ctor_m1719387948_AdjustorThunk
dgb:__ZN30RuntimeInitializeOnLoadManager8TransferI18StreamedBinaryReadILb0EEEEvRT_
rvf:_DateTimeOffset__ctor_m2084804982
cDc:_UNITY_tt_face_load_pclt
Anb:__ZN9profiling17ScriptingProfiler31UpdateRegisteredScriptingEventsEv
pdc:__ZL34GetComponentsImplementationRecurseILb1ELi0ELi2EEbR10GameObjectbRK17CompareParametersRK39GetComponentsImplementation_ReturnValue
QFa:__ZN20ComputeShaderVariantD2Ev
_og:_Material_GetTexture_m3545614349
mCg:__Z64RuntimeInvoker_RuntimeObject_Int32_t2950945753_Int16_t2552820387PFvvEPK10MethodInfoPvPS4_
G3e:_ASN1_get_Length_m1923878580
AWf:_EqualityComparer_1__cctor_m4244842342_gshared
xNb:__ZNK6Camera18WorldToScreenPointERK8Vector3fPb
hwg:_SendMouseEvents_DoSendMouseEvents_m2140870850
Gpi:_PatternCompiler_EmitJump_m3915926156
ICa:__Z18IsCompressedFormat14GraphicsFormat
Pu:__ZN7mecanim9animation19AdjustPoseForMotionERKNS0_14AvatarConstantERKNS0_14SkeletonTQSMapERKN4math4trsXERNS_10ValueArrayERNS_8skeleton13SkeletonPoseTIS8_EESG_
Pcd:_SerializationEntry_get_Name_m1530029541_AdjustorThunk
$8e:_TypeConverterAttribute_GetHashCode_m948291090
Gbg:__Z33il2cpp_codegen_check_add_overflowxx
dZ:__ZNSt3__227__insertion_sort_incompleteIRPFbRKN18AwakeFromLoadQueue4ItemES4_EPS2_EEbT0_S9_T_
gRg:__Z71RuntimeInvoker_Boolean_t97287965_AnimatorControllerPlayable_t1015767841PFvvEPK10MethodInfoPvPS4_
vKh:__ZL73RuntimePlatform_t4159857903_CustomAttributesCacheGenerator_MetroPlayerARMP21CustomAttributesCache
DHd:_InvalidOperationException__ctor_m1685032583
jQi:__ZN14dense_hash_mapI10KeyWrapperIN6il2cpp5utils13dynamic_arrayIPK10Il2CppTypeLj4EEEEPFvvENS1_8metadata19Il2CppSignatureHashENS8_14EqualsComparerINSB_22Il2CppSignatureCompareEEENSt3__29allocatorINSG_4pairIKS8_SA_EEEEE15set_deleted_keyERSJ_
mcg:_TimeSpan_op_Subtraction_m3592306516
yYf:_EqualityComparer_1_System_Collections_IEqualityComparer_GetHashCode_m1517903420_gshared
F4a:__ZN26EnlightenSystemInformation8TransferI14SafeBinaryReadEEvRT_
ifb:__ZN24GenerateTypeTreeTransfer8TransferINSt3__26vectorIN15ResourceManager10DependencyE13stl_allocatorIS4_L18MemLabelIdentifier52ELi16EEEEEEvRT_PKc17TransferMetaFlags
AIi:_CanvasRenderer_SplitUIVertexStreams_m2753637362
LSg:__Z119RuntimeInvoker_Void_t1185182177_RuntimeObject_Single_t1397266774_Single_t1397266774_SByte_t1669577662_Int32_t2950945753PFvvEPK10MethodInfoPvPS4_
NWc:__ZN11UnityEngine15PlatformWrapper20SetPlayerPrefsUInt64ERKN4core12basic_stringIcNS1_20StringStorageDefaultIcEEEEy
ubb:__ZN12MeshRendererD0Ev
IP:__ZN12AudioManager35GetCurrentSpatializerDefinitionNameEv
Bxg:_TouchScreenKeyboard_get_active_m4267591905
p1i:__ZNK15dense_hashtableINSt3__24pairIK10KeyWrapperIPK14Il2CppAssemblyEPK22Il2CppMonoAssemblyNameEES6_N6il2cpp5utils11PointerHashIS4_EEN14dense_hash_mapIS6_SA_SF_NS6_14EqualsComparerINS0_8equal_toIS5_EEEENS0_9allocatorISB_EEE9SelectKeyESK_SM_E8min_sizeEjj
zh:_utime
gMh:__ZL56PlayableGraph_t3515989261_CustomAttributesCacheGeneratorP21CustomAttributesCache
_ri:_BalancingGroup_Compile_m2575117193
HB:__Z28SetExposedSkeletonTransformsRKN7mecanim9animation14AvatarConstantERKN11UnityEngine9Animation30AnimatorGenericBindingConstantERKNS_8skeleton13SkeletonPoseTIN4math4trsXEEERKNSA_INSB_7affineXEEERNS5_21AvatarBindingConstantEy
AXi:__ZNSt3__26vectorIN6il2cpp2vm17TypeNameParseInfoENS_9allocatorIS3_EEE8allocateEj
Boi:_Mark_get_Index_m3048692661_AdjustorThunk
pki:_TlsServerSettings_get_CertificateRequest_m842655670
qn:FUNCTION_TABLE_viiiiif
_te:_DefaultComparer_Compare_m3931992727_gshared
vn:FUNCTION_TABLE_viiiiii
Wse:_InternalEnumerator_1_System_Collections_IEnumerator_get_Current_m1847780851_AdjustorThunk
zwi:_GUILayoutUtility_get_spaceStyle_m3392862907
rFd:_Int32_System_IConvertible_ToType_m3009233912_AdjustorThunk
svf:_DateTimeOffset__ctor_m74032857
hD:__ZN7mecanim9animation22DestroyAvatarWorkspaceEPNS0_15AvatarWorkspaceERNS_6memory9AllocatorE
fdg:_Type_type_is_assignable_from_m76737532
KUe:_MaskableGraphic_ParentMaskStateChanged_m1092090553
xUb:__ZN15LightmapSTCacheC2ER13BatchRendererR15RenderLoopStats
i1a:__ZN14PlayableOutput17SetSourcePlayableEP8Playable
lff:_X509ExtensionCollection_get_IsSynchronized_m2607599544
xC:__ZN7mecanim9animation29MotionOutputGetDeltaTransformEPKNS0_12MotionOutputE
KBh:__ZL64MissingFieldException_t1989070983_CustomAttributesCacheGeneratorP21CustomAttributesCache
nbi:_ReadOnlyCollection_1_System_Collections_Generic_ICollectionU3CTU3E_Add_m2369252587_gshared
Tki:_ValidationResult_get_ErrorCode_m1533688152
Njc:__Z43Transform_CUSTOM_INTERNAL_get_localRotationP12Il2CppObjectP11Quaternionf
nEf:_CultureInfo_get_Parent_m672689885
Dpj:__ZN6il2cpp6icalls8mscorlib6System10Reflection4Emit13ModuleBuilder13RegisterTokenEP29Il2CppReflectionModuleBuilderP12Il2CppObjecti
aKg:__Z50RuntimeInvoker_Int64_t3736567304_SByte_t1669577662PFvvEPK10MethodInfoPvPS4_
yDj:_glGetShaderInfoLog__wrapper
MNe:_ObjectReader_ReadObjectGraph_m340866276
nze:_Transform_1_EndInvoke_m2716226219_gshared
ci:_emscripten_glGetTexParameteriv
_Sc:__ZN11UnityEngine7Connect15DeviceInfoEvent7GFXInfoD2Ev
VEj:_glGenTextures__wrapper
u5i:__ZN15dense_hashtableINSt3__24pairIK10KeyWrapperINS1_IP11Il2CppClassjEEES4_EES6_N6il2cpp8metadata14ArrayClassHashEN14dense_hash_mapIS6_S4_SB_NS6_14EqualsComparerINSA_17ArrayClassCompareEEENS0_9allocatorIS8_EEE9SelectKeyESF_SH_EC2EjRKSB_RKSF_RKSJ_
H7f:_UnicodeEncoding_GetHashCode_m354003420
Zia:__ZN9ShaderLab20SerializedSubProgram14ConstantBufferaSERKS1_
A2b:__Z13RegisterClassI4MeshEvv
CNh:__ZL74SharedBetweenAnimatorsAttribute_t2857104338_CustomAttributesCacheGeneratorP21CustomAttributesCache
gCf:_Enum_Equals_m3617313991
CPg:__Z98RuntimeInvoker_Boolean_t97287965_PlayableOutputHandle_t4208053793_PlayableOutputHandle_t4208053793PFvvEPK10MethodInfoPvPS4_
dVg:__Z74RuntimeInvoker_Boolean_t97287965_LineTypeU26_t2430394419_Int32_t2950945753PFvvEPK10MethodInfoPvPS4_
H_a:__ZN8PlayableD0Ev
wg:emscriptenWebGLGetBufferBinding
YH:__ZN12AudioManager8TransferI19StreamedBinaryWriteILb0EEEEvRT_
SZe:_Slider_UpdateCachedReferences_m3259451627
Ige:_SslStreamBase_get_KeyExchangeStrength_m217695965
RJg:__Z50RuntimeInvoker_Double_t594665363_Double_t594665363PFvvEPK10MethodInfoPvPS4_
yIg:__Z60RuntimeInvoker_Void_t1185182177_StreamingContext_t3711869237PFvvEPK10MethodInfoPvPS4_
Kzb:__ZN18StreamedBinaryReadILb1EE21TransferSTLStyleArrayI13dynamic_arrayI11ColorRGBA32Lj4EEEEvRT_17TransferMetaFlags
m6i:__ZN15dense_hashtableINSt3__24pairIK10KeyWrapperINS1_IP11Il2CppClassjEEES4_EES6_N6il2cpp8metadata14ArrayClassHashEN14dense_hash_mapIS6_S4_SB_NS6_14EqualsComparerINSA_17ArrayClassCompareEEENS0_9allocatorIS8_EEE9SelectKeyESF_SH_E6insertERKS8_
P8c:_U3CShowU3Ec__AnonStorey1_U3CU3Em__0_m2340880019
dZe:_Selectable_OnSetProperty_m1693943217
G2f:_List_1_GetIndex_m2300811709_gshared
R5b:__ZNK32RendererMaterialAnimationBinding12GetPPtrValueERKN11UnityEngine9Animation10BoundCurveE
PAb:__Z18Transfer_BlittableI18StreamedBinaryReadILb0EELb0E8Vector2fEvRK29SerializationCommandArgumentsR31RuntimeSerializationCommandInfo
bQc:__ZN2UI11CanvasGroup12CleanupClassEv
Nki:_TlsStream_Flush_m3793197834
C3f:_List_1_GetIndex_m2832472557_gshared
qlb:__ZN22LocalFileSystemHandler9MakeLocalER13FileEntryDatab
$kj:__ZN6il2cpp2vm8Profiler10AllocationEP12Il2CppObjectP11Il2CppClass
_Uh:__ZL61Graphic_t1660335611_CustomAttributesCacheGenerator_m_MaterialP21CustomAttributesCache
kLc:__ZNSt3__23mapIN20TextRenderingPrivate7FontRefENS1_6OSFontENS_4lessIS2_EENS_9allocatorINS_4pairIKS2_S3_EEEEEixERS8_
mga:__Z13FormatOrderedPKcz
YUi:__ZN6il2cpp2vm8basepathEPKc
Fdf:_X509Chain_GetAuthorityKeyIdentifier_m614536199
KIc:__ZN14SafeBinaryRead21TransferSTLStyleArrayI10vector_mapINSt3__24pairIttEEfN20TextRenderingPrivate8FontImpl14KerningCompareENS2_9allocatorINS3_IS4_fEEEEEEEvRT_17TransferMetaFlags
$be:_TlsServerFinished__ctor_m1445633918
ODd:_NumberFormatter_FastIntegerToString_m390846811
wKh:__ZL68RuntimePlatform_t4159857903_CustomAttributesCacheGenerator_WP8PlayerP21CustomAttributesCache
x5e:_PKCS1_RSASP1_m3912327535
iUb:__ZN25DeferredRenderLoopScratchD0Ev
Sw:__ZN27AnimationLayerMixerPlayable14SetInputWeightEif
A0c:_PhysicsRaycaster_Raycast_m776323695
Eyg:_UnityException__ctor_m1456865679
qu:__ZN7mecanim9animation17EvaluateHumanPoseERKNS0_18ClipMuscleConstantERKNS0_15ClipMuscleInputEPKfRKNS0_12MotionOutputERNS_5human9HumanPoseE
BSh:__ZL92PointerEventData_t3807901092_CustomAttributesCacheGenerator_U3CscrollDeltaU3Ek__BackingFieldP21CustomAttributesCache
hia:__ZN15dense_hashtableINSt3__24pairIKiN4core17string_with_labelILi1EEEEEi18SInt32HashFunctionN14dense_hash_mapIiS5_S7_NS0_8equal_toIiEE13stl_allocatorIS6_L18MemLabelIdentifier1ELi16EEE9SelectKeyESA_SD_E9copy_fromERKSG_j
nUd:_CustomAttributeNamedArgument_GetHashCode_m2317130892
Feb:__ZN15ResourceManagerD0Ev
yWf:_EqualityComparer_1_get_Default_m990790318_gshared
oMe:_WellKnownClientTypeEntry_ToString_m1119458503
v4:__ZN22CreateGpuProgramOutputD2Ev
T7g:_List_1_get_Item_m1378751541_gshared
gwb:__Z18Transfer_BlittableI19StreamedBinaryWriteILb0EELb1EsEvRK29SerializationCommandArgumentsR31RuntimeSerializationCommandInfo
fwh:__ZL52HMACSHA512_t923916539_CustomAttributesCacheGeneratorP21CustomAttributesCache
zBe:_ValueCollection_CopyTo_m2188334703_gshared
vjf:_SHA1CryptoServiceProvider_Finalize_m1793183797
XAh:__ZL78Convert_t2465617642_CustomAttributesCacheGenerator_Convert_ToUInt64_m409548990P21CustomAttributesCache
d_f:_HashSet_1_System_Collections_Generic_ICollectionU3CTU3E_CopyTo_m408073502_gshared
I8d:_EncryptedPrivateKeyInfo_get_EncryptedData_m491452551
Bkb:__ZN12HandlerChain4OpenER13FileEntryData14FilePermission16FileAutoBehavior
EYg:__Z72RuntimeInvoker_Void_t1185182177_Int32_t2950945753_RaycastHit_t1056001966PFvvEPK10MethodInfoPvPS4_
xAh:__ZL79Convert_t2465617642_CustomAttributesCacheGenerator_Convert_ToUInt16_m1147931813P21CustomAttributesCache
g_i:__ZN15dense_hashtableINSt3__24pairIK10KeyWrapperINS1_IPK10MethodInfoP11Il2CppClassEEEjEES9_17ReflectionMapHashIS8_EN14dense_hash_mapIS9_jSD_NS9_14EqualsComparerINS0_8equal_toIS8_EEEENS0_9allocatorISB_EEE9SelectKeyESI_SK_E6insertERKSB_
I8f:_UTF8Encoding_GetCharCount_m2272165989
jnd:_Array_SetValue_m394135409
$0:__ZN14FileCacherReadD2Ev
Dhb:__ZN13RendererScene23UpdatePreviousFrameDataEii
Kqf:_String_Remove_m562998446
Lfc:__Z50Register_UnityEngine_CullingGroup_FinalizerFailurev
I3h:_Mesh_GetAllocArrayFromChannel_TisVector2_t2156229523_m1057679375_gshared
imf:_SecurityPermission_IsSubsetOf_m545000671
lib:__ZN27UnloadUnusedAssetsOperationD0Ev
Jx:__ZN26AnimatorControllerPlayable6MemoryD2Ev
EPb:__ZN28LightProbeProxyVolumeContextC2E10MemLabelId
uxj:__ZNKSt3__221__basic_string_commonILb1EE20__throw_out_of_rangeEv
jlg:_Cursor_get_lockState_m2828192107
TEg:__Z78RuntimeInvoker_Boolean_t97287965_RuntimeObject_RuntimeObject_Int32_t2950945753PFvvEPK10MethodInfoPvPS4_
jWi:_UpdatedEventHandler_Invoke_m1320302085
Fbj:__ZNK15dense_hashtableINSt3__24pairIK10KeyWrapperIP14Il2CppIUnknownEjEES5_N6il2cpp5utils11PointerHashIS3_EEN14dense_hash_mapIS5_jSB_NS5_14EqualsComparerINS0_8equal_toIS4_EEEENS0_9allocatorIS7_EEE9SelectKeyESG_SI_E12test_deletedERK24dense_hashtable_iteratorIS7_S5_SB_SK_SG_SI_E
LF:__ZN9AudioClip23VirtualRedirectTransferER18StreamedBinaryReadILb0EE
p8g:_List_1_AddEnumerable_m2724989594_gshared
lma:__ZNSt3__26vectorIPN9ShaderLab9SubShaderENS_9allocatorIS3_EEE21__push_back_slow_pathIKS3_EEvRT_
r9g:_List_1_Contains_m2043463915_gshared
NRg:__Z82RuntimeInvoker_Vector2_t2156229523_Vector2_t2156229523_RuntimeObject_RuntimeObjectPFvvEPK10MethodInfoPvPS4_
qHa:__ZN18GlslGpuProgramGLESC2ERK13dynamic_arrayIhLj1EER22CreateGpuProgramOutput
tlc:__Z70Register_UnityEngine_Playables_PlayableHandle_GetPlayableType_Injectedv
kIb:__ZNK4PPtrI23ShaderVariantCollectionEcvPS0_Ev
B7d:_ARC4Managed_TransformBlock_m1687647868
Ej:_glCopyTexSubImage2D
Z5b:__ZNK24RendererAnimationBinding13GetFloatValueERKN11UnityEngine9Animation10BoundCurveE
NT:__ZNK15DownloadHandler14HasPendingDataEv
Jyg:_UnitySynchronizationContext_ExecuteTasks_m1310741010
bif:_RIPEMD160Managed_CompressFinal_m497690796
GZb:__ZN18ScreenManagerWebGL13SetShowCursorEb
Gke:_InternalEnumerator_1_MoveNext_m1773160976_gshared
DJb:__ZN13DrawImmediateC2ER9GfxDevice
Vuj:_frexp
e6d:_Kernel_MultiplyMod2p32pmod_m451690680
zob:__Z18Transfer_BlittableI14SafeBinaryReadLb0E5RectTIfEEvRK29SerializationCommandArgumentsR31RuntimeSerializationCommandInfo
OGd:_NumberFormatter_NumberToString_m2562899600
Lkf:_SymmetricAlgorithm_get_FeedbackSize_m3666584308
tFi:__ZL25UnresolvedVirtualCall_234P12Il2CppObject19Vector2_t2156229523PK10MethodInfo
PBc:_otv_u_C_x_Ox
Vwa:__ZN18AsyncUploadManager19AsyncResourceUploadER9GfxDeviceii9TextureID
fua:__ZN14GfxContextGLES14GetFramebufferEv
JFj:_emscripten_glGenVertexArrays__wrapper
qhg:_Version_Clone_m1749041863
Cye:_ShimEnumerator_get_Key_m4155849607_gshared
Qya:__ZN6prcoreL21CreateRemapAnyBlitterE13TextureFormatS0_
e9d:_RSAManaged_ExportParameters_m1754454264
xbc:__ZN17AnimationCurveTplIfE16StripInvalidKeysEv
bqd:_Boolean_Equals_m535526264_AdjustorThunk
I_g:__Z71RuntimeInvoker_KeyValuePair_2_t71524366_Int32_t2950945753_RuntimeObjectPFvvEPK10MethodInfoPvPS4_
VOc:__ZNK2UI6Canvas17GetSortingLayerIDEv
Ppd:_Convert_ToUInt16_m3116648921
llh:__ZL40UIntPtr_t_CustomAttributesCacheGeneratorP21CustomAttributesCache
x4i:_il2cpp_method_has_attribute
s2b:__Z13RegisterClassI17GlobalGameManagerEvv
n6:__ZN8Renderer24SetupNewRendererForSceneEv
adg:_Type_internal_from_name_m1721940673
B0h:_Array_swap_TisCustomAttributeTypedArgument_t2723150157_TisCustomAttributeTypedArgument_t2723150157_m365781156_gshared
nCf:_Environment_get_TickCount_m2088073110
jJe:_RemotingServices_GetMethodBaseFromName_m3194612939
Otc:__Z35Transfer_Blittable_FixedBufferFieldI8JSONReadtEvRK29SerializationCommandArgumentsR31RuntimeSerializationCommandInfo
QTa:__ZN4PPtrI7TextureE8TransferI14SafeBinaryReadEEvRT_
H8b:__ZN14PlayableOutput6HandleEv
C6a:__ZNK6Sprite22GetTypeVirtualInternalEv
fZc:__ZN13RuntimeStaticINSt3__26vectorI23UnityVRDeviceDefinition13stl_allocatorIS2_L18MemLabelIdentifier90ELi16EEEELb0EE13StaticDestroyEPv
pn:FUNCTION_TABLE_iiiiiiiiiiiiii
iXc:__ZN19UnityConnectService18OnPlayerQuitStaticEPS_
GCc:_UNITY_tt_get_cmap_info
ige:_SslClientStream_RaiseServerCertificateValidation_m3477149273
lvb:__Z29Transfer_Blittable_ArrayFieldI24GenerateTypeTreeTransfer5RectTIiEEvRT_R9ArrayInfoRK23StaticTransferFieldInfo
KXa:__ZN16ReflectionProbes8ScheduleEN18ReflectionProbeJob7JobTypeEP15ReflectionProbei
dce:_ClientSessionInfo_KeepAlive_m1020179566
dPc:__ZN13dynamic_arrayIN2UI13UIInstructionELj4EE12emplace_backEv
I9g:_List_1_ToArray_m4056539300_gshared
eph:__ZL51Calendar_t1661121569_CustomAttributesCacheGeneratorP21CustomAttributesCache
kMa:__Z18IsDirectoryCreatedRKN4core12basic_stringIcNS_20StringStorageDefaultIcEEEE
Xlf:_String_FormatHelper_m3913915042
UNc:__ZN2UI13CanvasManagerD2Ev
UTd:_ConstructorInfo__cctor_m1016079270
uNi:__ZN15dense_hashtableINSt3__24pairIK10KeyWrapperIPKcEP11Il2CppClassEES5_N6il2cpp5utils11StringUtils12StringHasherIS4_EEN14dense_hash_mapIS5_S8_SE_NS5_14EqualsComparerINSB_13VmStringUtils21CaseSensitiveComparerEEENS0_9allocatorIS9_EEE9SelectKeyESJ_SL_E15set_deleted_keyERKS9_
NSg:__Z38RuntimeInvoker_ContentType_t1787303396PFvvEPK10MethodInfoPvPS4_
hld:_AttrListImpl_get_Names_m977594476
jvh:__ZL53IFormatter_t3549834567_CustomAttributesCacheGeneratorP21CustomAttributesCache
NKc:_UNITY_FT_GlyphLoader_Done
bPh:__ZL89GUIStyle_t3956901511_CustomAttributesCacheGenerator_GUIStyle_get_stretchWidth_m3556443132P21CustomAttributesCache
I2d:_Pointer_Box_m389276611
bAf:_StackTrace_get_FrameCount_m344690939
XNd:_UnexceptionalStreamWriter_Write_m363195622
XVb:__ZNK21IntermediateRenderers16GetBoundingBoxesEv
iLc:__ZN20TextRenderingPrivate25ReadFontFileAndAddToCacheERKN4core12basic_stringIcNS0_20StringStorageDefaultIcEEEE
HDc:_tt_cmap14_char_var_index
NBb:__Z35Transfer_Blittable_FixedBufferFieldI18StreamedBinaryReadILb0EEdEvRK29SerializationCommandArgumentsR31RuntimeSerializationCommandInfo
BQe:_Selectable_OnPointerDown_m1086067264
SHc:_psh_globals_new
h8c:_Dropdown_SetupTemplate_m628218778
$8f:_Thread_GetCompressedStack_m2923422412
Tud:_SynchronizedArrayListWrapper_CopyTo_m4207791406
Ubf:_X509BasicConstraintsExtension_ToString_m1809935297
Eoa:__ZN9GfxDevice20SetMaxBufferedFramesEi
Fii:_TweenRunner_1_StartTween_m1055628540_gshared
C6h:_ReadOnlyCollection_1_System_Collections_IList_Remove_m4129318771_gshared
L1h:_GameObject_GetComponents_TisRuntimeObject_m1246177135_gshared
KK:__ZN24AudioScriptBufferManagerD2Ev
Mzj:dynCall_vdd
GOd:_MethodAccessException__ctor_m3542088436
L$b:__Z23ConvertIntegerToTypePtrIsEbPvR14SafeBinaryRead
Etd:_ArrayListWrapper_get_Capacity_m51087796
gSe:_LayoutElement_get_minHeight_m4160507569
PVf:_EqualityComparer_1_System_Collections_IEqualityComparer_GetHashCode_m2230215241_gshared
mYh:__ZL60ContentSizeFitter_t3850442145_CustomAttributesCacheGeneratorP21CustomAttributesCache
$wd:_Hashtable_Contains_m2145146412
bFh:__ZL64UnmarshalledAttribute_t1517743549_CustomAttributesCacheGeneratorP21CustomAttributesCache
Dac:__ZN4Mesh24UpdateSubMeshVertexRangeEi
sng:_MaterialEffectPlayable_Equals_m3750885802
qYi:__ZNK15dense_hashtableINSt3__24pairIK10KeyWrapperINS1_IPK14Il2CppAssemblyP11Il2CppClassEEEjEES9_17ReflectionMapHashIS8_EN14dense_hash_mapIS9_jSD_NS9_14EqualsComparerINS0_8equal_toIS8_EEEENS0_9allocatorISB_EEE9SelectKeyESI_SK_E12test_deletedEj
hsj:__ZN6il2cpp2os9FastMutex4LockEv
DDd:_Int32_FindCurrency_m3541026887
Jhf:_Interval_CompareTo_m3282557545
HGj:_pthread_cond_wait__wrapper
vTb:__ZNK14RenderSettings19GetFlatAmbientColorEv
qya:__ZN6prcoreL10inner_flipILj4EEEvPhS1_j
ndb:__ZN18StreamedBinaryReadILb0EE21TransferSTLStyleArrayI10vector_mapIPKN5Unity4TypeE7Hash128NSt3__24lessIS6_EENS8_9allocatorINS8_4pairIS6_S7_EEEEEEEvRT_17TransferMetaFlags
Py:__ZNK27StateMachineBehaviourPlayer15IsSenderEnabledEv
IXh:__ZL58Text_t1901882714_CustomAttributesCacheGenerator_m_FontDataP21CustomAttributesCache
RXd:_GenericTypeParameterBuilder_IsPrimitiveImpl_m1952010459
h6h:_ReadOnlyCollection_1_CopyTo_m3474153465_gshared
Hid:_RijndaelManagedTransform_TransformBlock_m1610137419
jkc:__Z40Register_UnityEngine_Transform_SetParentv
hxh:__ZL94WindowsIdentity_t2948242406_CustomAttributesCacheGenerator_WindowsIdentity_Dispose_m3466258450P21CustomAttributesCache
r8a:__ZN14Texture2DArray17UploadToGfxDeviceEv
FJ:__Z14FMODMemoryFreePvjPKc
KJh:__ZL100RectTransform_t3704657025_CustomAttributesCacheGenerator_RectTransform_INTERNAL_get_rect_m3130887130P21CustomAttributesCache
i1f:_Enumerator__ctor_m2029608698_gshared
Bmg:_NetFxCoreExtensions_GetMethodInfo_m444570327
ARb:__Z14SetSHConstantsR13BatchRendererR17ShaderPassContextRK20SphericalHarmonicsL2b
Crd:_Char_System_IConvertible_ToDecimal_m3534906463
Syc:_cf2_glyphpath_moveTo
q7g:_List_1_AddCollection_m1469681717_gshared
Wnh:__ZL86MSCompatUnicodeTable_t1453885583_CustomAttributesCacheGenerator_U3CU3Ef__switchU24map4P21CustomAttributesCache
Qwg:_StackTraceUtility_SetProjectFolder_m830524047
qv:__ZN7mecanim23TransformValueArrayLoopEiiiRKN4math4trsXES3_RNS_10ValueArrayEf
sce:_ClientSessionInfo_Finalize_m2165787049
bnc:__ZN5IMGUI14GUIWindowStateD2Ev
pbe:_ClientContext_Clear_m1774063253
Pac:__ZN4Mesh17SetIndicesComplexEPKvjj16GfxPrimitiveTypeij
Juf:_DateTime_AddSeconds_m332574389_AdjustorThunk
xyg:_RequestAtlasCallback_Invoke_m378128467
Kqd:_Byte_System_IConvertible_ToSByte_m1869482168
SHg:__Z99RuntimeInvoker_RuntimeObject_RuntimeObject_RuntimeObject_StreamingContext_t3711869237_RuntimeObjectPFvvEPK10MethodInfoPvPS4_
JB:__ZN7mecanim5human10RetargetToEPKNS0_5HumanEPKNS0_9HumanPoseES6_RKN4math4trsXEPS4_PNS_8skeleton13SkeletonPoseTIS8_EESF_
iv:__ZN7mecanim9animation8SeekClipERKNS0_12StreamedClipERNS0_18StreamedClipMemoryEf
Lng:_GameObject_Internal_AddComponentWithType_m3797731663
km:_emscripten_glIsTexture
Rk:_emscripten_glHint
uCi:__ZL24UnresolvedVirtualCall_73P12Il2CppObjectPK10MethodInfo
byi:_Check_SourceAndPredicate_m2332465641
fRg:__Z67RuntimeInvoker_Boolean_t97287965_TextGenerationSettings_t1351628751PFvvEPK10MethodInfoPvPS4_
BGc:_ft_var_readpackeddeltas
mnf:_String_op_Inequality_m215368492
mTf:_Dictionary_2_Clear_m1938428402_gshared
pyb:__Z35Transfer_Blittable_FixedBufferFieldI18StreamedBinaryReadILb1EEtEvRK29SerializationCommandArgumentsR31RuntimeSerializationCommandInfo
ifg:_UInt32_System_IConvertible_ToInt64_m2261037378
nm:_SDL_UpperBlit
GXa:__Z35GetTextureDecodeValuesWithIntensity16TextureUsageMode17TextureColorSpace10ColorSpacef
eIf:_Array_InternalArray__ICollection_Remove_TisChar_t3634460470_m4143749387_gshared
RJb:__ZN15dense_hashtableINSt3__24pairIK9TextureIDiEES2_14GfxGenericHashIS2_EN14GfxDoubleCacheIS2_iS6_NS0_8equal_toIS2_EEN31GfxDoubleCacheConcurrencyPolicy11LocklessGetE42GfxDoubleCacheDefaultEmptyDeletedGeneratorIS2_EE9SelectKeyES9_13stl_allocatorIS4_L18MemLabelIdentifier24ELi16EEE14squash_deletedEv
A2i:__ZN15dense_hashtableINSt3__24pairIK10KeyWrapperINS1_IPK9EventInfoP11Il2CppClassEEEjEES9_17ReflectionMapHashIS8_EN14dense_hash_mapIS9_jSD_NS9_14EqualsComparerINS0_8equal_toIS8_EEEENS0_9allocatorISB_EEE9SelectKeyESI_SK_E15set_deleted_keyERKSB_
H$i:__ZN15dense_hashtableINSt3__24pairIK10KeyWrapperINS1_IPK12PropertyInfoP11Il2CppClassEEEjEES9_17ReflectionMapHashIS8_EN14dense_hash_mapIS9_jSD_NS9_14EqualsComparerINS0_8equal_toIS8_EEEENS0_9allocatorISB_EEE9SelectKeyESI_SK_ED2Ev
E5f:_Encoding_GetBytes_m3823106599
buf:_GregorianCalendar__ctor_m979779718
Hfe:_SslClientStream__ctor_m2402546929
kEb:__ZN14SafeBinaryRead20OverrideRootTypeNameEPKc
g8e:_DictionaryNodeEnumerator_get_Entry_m2309234501
zKi:__ZNK10KeyWrapperIPK22Il2CppGenericParameterE14EqualsComparerINSt3__28equal_toIS2_EEEclERKS3_SA_
d1:__ZN14FileCacherRead16UnlockCacheBlockEj
v0f:_Enumerator_Dispose_m951715887_AdjustorThunk
Rle:_InternalEnumerator_1_System_Collections_IEnumerator_Reset_m521819017_AdjustorThunk
dJd:_IsolatedStorageException__ctor_m1022659452
r9:__ZN10InstancingL21OnGraphicsCapsChangedEv
Vrb:__Z18Transfer_BlittableI17RemapPPtrTransferLb1E8Vector3fEvRK29SerializationCommandArgumentsR31RuntimeSerializationCommandInfo
Csh:__ZL61ClassInterfaceType_t4029497327_CustomAttributesCacheGeneratorP21CustomAttributesCache
$ag:_WaitHandle_get_Handle_m3260446580
q1f:_Enumerator_VerifyState_m1745883925_AdjustorThunk
Jc:_emscripten_glUniform1f
Yxd:_SortedList__ctor_m1261191695
Hbi:_ReadOnlyCollection_1_System_Collections_IList_get_IsReadOnly_m165706550_gshared
aDg:__Z75RuntimeInvoker_Int32_t2950945753_DecimalU26_t3714369516_Int64U26_t200113976PFvvEPK10MethodInfoPvPS4_
qLc:__Z20ParseImageParametersR11UTF16StringRiRN20TextRenderingPrivate16TextFormatChangeE
bYh:__ZL55CanvasScaler_t2767979955_CustomAttributesCacheGeneratorP21CustomAttributesCache
Dih:_Collection_1_RemoveItem_m2942561924_gshared
Oc:_emscripten_glUniform1i
Jtb:__Z18Transfer_BlittableI24GenerateTypeTreeTransferLb1EN4math12int3_storageEEvRK29SerializationCommandArgumentsR31RuntimeSerializationCommandInfo
RB:__ZN12_GLOBAL__N_119PreProcessAnimationER35AnimationPlayableEvaluationConstantR17AnimationPlayable
tWe:__Z14bankers_roundff
bka:__ZN9ShaderLab16SerializedTagMapaSERKS0_
hS:__ZN11UnityEngine15CloudWebService16SessionContainer20RestoreSessionHeaderERKN4core12basic_stringIcNS2_20StringStorageDefaultIcEEEES8_RNS0_13SessionHeaderE
CYc:__ZN22UnityWebRequestManager13BackendRetainEv
lcc:__ZN8Material28ApplyMaterialPropertyDrawersEv
trj:__ZN6il2cpp2os12Cryptography23GetCryptographyProviderEv
eLi:__ZN24dense_hashtable_iteratorINSt3__24pairIK10KeyWrapperIPK22Il2CppGenericParameterEP11Il2CppClassEES6_N6il2cpp5utils11PointerHashIS4_EEN14dense_hash_mapIS6_S9_SE_NS6_14EqualsComparerINS0_8equal_toIS5_EEEENS0_9allocatorISA_EEE9SelectKeyESJ_SL_E30advance_past_empty_and_deletedEv
XC:__ZN11UnityEngine9Animation27CreateAvatarBindingConstantER9TransformPKN7mecanim9animation14AvatarConstantERNS3_6memory9AllocatorE
uPc:__ZN2UI14CanvasRenderer13SyncTransformENS0_8SyncFlagEb
qUe:_MaskableGraphic_get_onCullStateChanged_m3331479633
gHg:__Z151RuntimeInvoker_RuntimeObject_Int32_t2950945753_RuntimeObject_ObjectU5BU5DU26_t712384779_RuntimeObject_RuntimeObject_RuntimeObject_ObjectU26_t2146539884PFvvEPK10MethodInfoPvPS4_
hec:__ZN9BlobWriteC2ER13dynamic_arrayIhLj16EE24TransferInstructionFlags19BuildTargetPlatform
T4c:_CanvasUpdateRegistry__ctor_m2005397069
zHh:__ZL77Input_t1431474628_CustomAttributesCacheGenerator_Input_GetAxisRaw_m2316819917P21CustomAttributesCache
r$:__ZN14MessageHandler3GetEv
e0d:_MonoMethodInfo_GetCallingConvention_m3156036493
WSe:_LayoutGroup_SetLayoutInputForAxis_m2458344630
ad:_emscripten_glAttachShader
Doa:__ZN9GfxDevice13SetActiveTierE12GraphicsTier
Jcd:_Image__cctor_m1927508576
K9f:_SendOrPostCallback_EndInvoke_m2485163446
tka:__ZNSt3__26vectorIN4core12basic_stringIcNS1_20StringStorageDefaultIcEEEENS_9allocatorIS5_EEE6assignIPS5_EENS_9enable_ifIXaasr21__is_forward_iteratorIT_EE5valuesr16is_constructibleIS5_NS_15iterator_traitsISC_E9referenceEEE5valueEvE4typeESC_SC_
qrj:__ZN6il2cpp6icalls8mscorlib6System21CurrentSystemTimeZone15GetTimeZoneDataEiPP11Il2CppArrayS6_
Bwe:_Enumerator__ctor_m1195706188_gshared
Bkh:__ZL76String_t_CustomAttributesCacheGenerator_String_Concat_m1809518182____values0P21CustomAttributesCache
gob:__Z18Transfer_BlittableI14SafeBinaryReadLb0E11QuaternionfEvRK29SerializationCommandArgumentsR31RuntimeSerializationCommandInfo
vBb:__Z18Transfer_BlittableI18StreamedBinaryReadILb0EELb1E12PropertyNameEvRK29SerializationCommandArgumentsR31RuntimeSerializationCommandInfo
IW:_tlsf_walk_heap
XGg:__Z49RuntimeInvoker_Void_t1185182177_OpCode_t123070264PFvvEPK10MethodInfoPvPS4_
B6i:__ZNK15dense_hashtableINSt3__24pairIK10KeyWrapperIP11Il2CppClassES4_EES5_N6il2cpp8metadata16SZArrayClassHashEN14dense_hash_mapIS5_S4_SA_NS5_14EqualsComparerINS9_19SZArrayClassCompareEEENS0_9allocatorIS7_EEE9SelectKeyESE_SG_E10test_emptyERK24dense_hashtable_iteratorIS7_S5_SA_SI_SE_SG_E
$Pg:__Z69RuntimeInvoker_Void_t1185182177_Int32_t2950945753_HitInfo_t3229609740PFvvEPK10MethodInfoPvPS4_
sNh:__ZL59AnimatorClipInfo_t3156717155_CustomAttributesCacheGeneratorP21CustomAttributesCache
cCd:_Convert_ToUInt32_m3592050311
jb:invoke_vif
A1h:_Component_GetComponents_TisRuntimeObject_m2416546752_gshared
kb:invoke_vid
Kpe:_InternalEnumerator_1__ctor_m2202456613_AdjustorThunk
Mxj:__ZNSt3__212basic_stringIcNS_11char_traitsIcEENS_9allocatorIcEEE6insertEjPKc
lb:invoke_vii
YMb:__ZNK12ImageFilters8DoRenderER17ShaderPassContextP13RenderTextureS3_RKNSt3__26vectorI11ImageFilterNS4_9allocatorIS6_EEEE
ZKa:__ZN12TLSAllocatorI14StackAllocatorE16ThreadInitializeEP13BaseAllocator
vIg:__Z82RuntimeInvoker_Boolean_t97287965_SByte_t1669577662_RuntimeObject_SByte_t1669577662PFvvEPK10MethodInfoPvPS4_
cpa:__ZN9GfxDevice32UpdateStereoViewProjectionMatrixE21MonoOrStereoscopicEye
VQc:__Z41CanvasRenderer_CUSTOM_DisableRectClippingP12Il2CppObject
ZQf:_Dictionary_2__ctor_m1324730059_gshared
RPd:_MonoType_GetConstructorImpl_m441167626
p7c:_DefaultControls_CreateRawImage_m4219873755
adh:_Collection_1_IsFixedSize_m3709118201_gshared
gPa:__ZN25SingleBlockMemoryFileDataD0Ev
eLa:__ZNSt3__26vectorI14ConstantStringNS_9allocatorIS1_EEE6assignINS_11__wrap_iterIPS1_EEEENS_9enable_ifIXaasr21__is_forward_iteratorIT_EE5valuesr16is_constructibleIS1_NS_15iterator_traitsISA_E9referenceEEE5valueEvE4typeESA_SA_
Lbi:_ReadOnlyCollection_1_CopyTo_m586367390_gshared
cS:__ZN11UnityEngine15CloudWebService16SessionContainer21ConvertFromFolderTimeERKN4core12basic_stringIcNS2_20StringStorageDefaultIcEEEEPjPt
_ed:_CodeAccessPermission_Equals_m1555575992
Tpb:__ZNSt3__26vectorI8GUIStyle13stl_allocatorIS1_L18MemLabelIdentifier1ELi16EEE7reserveEj
K6h:_ReadOnlyCollection_1_Contains_m3869904379_gshared
r8i:__ZN6il2cpp6icalls8mscorlib6System9Threading6Thread27GetSerializedCurrentCultureEP12Il2CppThread
Pce:_Context_set_ReadSequenceNumber_m2154909392
Cid:_RijndaelTransform_SubByte_m3037693507
c1b:__Z31CalculateHierarchyTransformType23TransformAccessReadOnly
O2b:__Z13RegisterClassI11TimeManagerEvv
wJ:__ZN4FMOD8ChannelI11setPositionEjj
pog:_Input_INTERNAL_CALL_GetTouch_m3481893561
mnj:_GC_set_fl_marks
Kfb:__ZNSt3__26vectorIN30RuntimeInitializeOnLoadManager15ClassMethodInfoE13stl_allocatorIS2_L18MemLabelIdentifier13ELi16EEE7reserveEj
fpa:__ZN9GfxDevice17SetStereoViewportE15StereoscopicEyeRK5RectTIiE
Jfa:__ZN17BaseObjectManager13StaticDestroyEPv
YKa:__ZNK12TLSAllocatorI14StackAllocatorE24GetBookKeepingMemorySizeEv
lIi:_CanvasRenderer_INTERNAL_CALL_GetColor_m597074473
Gue:_Comparer_1__cctor_m3891417387_gshared
t8f:_UTF7Decoder_GetChars_m3413809261
jIh:__ZL81Shader_t4151988712_CustomAttributesCacheGenerator_Shader_PropertyToID_m1030499873P21CustomAttributesCache
Jlh:__ZL70RuntimeArray_CustomAttributesCacheGenerator_Array_get_Rank_m3448755881P21CustomAttributesCache
MWd:_EnumBuilder_GetEvent_m4074915332
yh:_sysconf
Xxg:_Vector3_get_forward_m3100859705
TAf:_Double_Equals_m2309369974_AdjustorThunk
oI:__ZN4FMOD6Reverb13setPropertiesEPK22FMOD_REVERB_PROPERTIES
G5i:__ZN15dense_hashtableINSt3__24pairIK10KeyWrapperIP11Il2CppClassES4_EES5_N6il2cpp8metadata16SZArrayClassHashEN14dense_hash_mapIS5_S4_SA_NS5_14EqualsComparerINS9_19SZArrayClassCompareEEENS0_9allocatorIS7_EEE9SelectKeyESE_SG_E5clearEv
JOb:__ZN9DepthPass13PrepareSubsetEjRK10RenderNodeifRK17ShaderReplaceData
Wpf:_String_IndexOf_m3406607758
gja:__ZN9ShaderLab20SerializedSubProgram16TextureParameter8TransferI14SafeBinaryReadEEvRT_
R6d:_ASN1__ctor_m3517592395
Wac:__Z35SetMeshComponentFromArrayFromScriptR4Mesh30InternalScriptingShaderChannel34InternalScriptingVertexChannelTypei17ScriptingArrayPtri
xla:__ZN4PPtrI6ShaderE8TransferI19StreamedBinaryWriteILb0EEEEvRT_
GNf:_Array_InternalArray__ICollection_Add_TisCustomAttributeNamedArgument_t287865710_m4157175270_gshared
fq:__ZN4core20StringStorageDefaultIcE6assignEPKcj
ngg:_UInt64_System_IConvertible_ToUInt64_m2135047981_AdjustorThunk
j6d:_BigInteger_ModPow_m3776562770
Mej:__ZN15dense_hashtableINSt3__24pairIK10KeyWrapperIP12Il2CppObjectEN6il2cpp2gc9CachedCCWEEES5_NS7_5utils11PointerHashIS3_EEN14dense_hash_mapIS5_S9_SD_NS5_14EqualsComparerINS0_8equal_toIS4_EEEENS0_9allocatorISA_EEE9SelectKeyESI_SK_E3endEv
aId:_BinaryReader_ReadInt64_m939370142
Oee:_RecordProtocol_ProcessChangeCipherSpec_m15839975
etd:_ArrayList_IndexOf_m305368842
i9g:_List_1_Add_m2996644200_gshared
KXb:__ZN6Camera6SetFarEf
GMe:_FormatterConverter_ToBoolean_m1680758923
Gza:__ZN6prcoreL12RemapGenericI17TexFormatABGR888817TexFormatARGB8888EEvPKNS_9InnerInfoE
aQa:__ZN11GameManager17MainThreadCleanupEv
Pyd:_Stack_get_Count_m2258661097
E4h:_ReadOnlyCollection_1__ctor_m1345363288_gshared
BSc:__Z50Register_UnityEngine_UISystemProfilerApi_EndSamplev
lCe:_Dictionary_2_System_Collections_ICollection_get_SyncRoot_m2020472285_gshared
Dre:_InternalEnumerator_1_System_Collections_IEnumerator_Reset_m1775752715_AdjustorThunk
Hb:invoke_vffff
gFh:__ZL91Application_t1852185770_CustomAttributesCacheGenerator_Application_get_isPlaying_m100394690P21CustomAttributesCache
nFe:_ConfigHandler_OnProcessingInstruction_m4212209262
U4g:_List_1_Reverse_m3290386475_gshared
FNe:_SerializationCallbacks_GetSerializationCallbacks_m2939476649
Hwd:_Hashtable__cctor_m4112166779
kFc:_UNITY_tt_slot_init
SKb:__ZZ23InitPlayerLoopCallbacksvEN41PostLateUpdateUpdateResolutionRegistrator7ForwardEv
gDb:__Z25scripting_array_class_get17ScriptingClassPtrj
Qrc:__ZL22Transfer_ManagedObjectI9JSONWriteLb1EEvRK29SerializationCommandArgumentsR31RuntimeSerializationCommandInfo
tF:__ZNK10SampleClip22GetTypeVirtualInternalEv
oqa:__ZN9GfxDevice20DestroyRenderSurfaceER12ObjectHandleI17RenderSurface_TagP17RenderSurfaceBaseE
Myd:_Stack__ctor_m2602729586
wBg:__Z77RuntimeInvoker_Byte_t1134296376_RuntimeObject_Int32_t2950945753_RuntimeObjectPFvvEPK10MethodInfoPvPS4_
Czh:__ZL81Convert_t2465617642_CustomAttributesCacheGenerator_Convert_ToDateTime_m1031474510P21CustomAttributesCache
vJa:__ZN9GfxDevice22UpdateComputeResourcesEjPK9TextureIDPK16TextureDimensionPKijPKjjPK15ComputeBufferIDS7_PK20ComputeBufferCounterjSC_S2_S5_S9_SF_
U1:__ZN12_GLOBAL__N_15qAsinEff
Klg:_Display__ctor_m3105658851
yxd:_HashValues_get_IsSynchronized_m3461082747
gle:_InternalEnumerator_1_System_Collections_IEnumerator_get_Current_m2629988057_AdjustorThunk
_Ka:__ZN12TLSAllocatorI14StackAllocatorE13ThreadCleanupEv
VF:__Z18GetAudioManagerPtrv
Lle:_InternalEnumerator_1_Dispose_m2043273260_AdjustorThunk
Vkj:__ZThn4_N6il2cpp2vm13ComObjectBase16MarshalInterfaceEP13Il2CppIStreamRK10Il2CppGuidPvjS7_j
yAd:_Convert_ToDouble_m996590115
UFb:__Z27FindActiveTransformWithPathPKc
O8h:_ReadOnlyCollection_1_System_Collections_IList_Remove_m4169110229_gshared
Oeg:_UInt16_ToString_m3020002356
sTe:_LayoutRebuilder_LayoutComplete_m68578143
GVi:_RequiredByNativeCodeAttribute__ctor_m119855101
$Ra:__ZN12BaseRendererD0Ev
C$b:__Z29StdTemplateConversionFunctionIbyEbPvR14SafeBinaryRead
xid:_RijndaelManaged_GenerateKey_m1736287430
lwi:_GUIStyle_get_fixedWidth_m2576616348
nSh:__ZL90PointerEventData_t3807901092_CustomAttributesCacheGenerator_U3ClastPressU3Ek__BackingFieldP21CustomAttributesCache
myd:_SortedList_Find_m3363512987
nY:__ZNK6Camera7GetNearEv
CXd:_GenericTypeParameterBuilder_GetConstructorImpl_m863833310
BCa:__ZN7ApiGLES11UnmapBufferEjN2gl12BufferTargetE
hlj:__ZN6il2cpp5utilsL24Utf32CharToSurrogatePairEjRA2_Ds
k3a:__Z25GetNextAllowedTextureSizeib13TextureFormat
MFb:__ZN20LocalFileSystemWebGL4CopyER13FileEntryDataS1_
HU:__ZN19CloudServiceHandler6RetainEv
htj:__ZN6il2cpp2os9Semaphore4WaitEb
u5h:_ReadOnlyCollection_1_System_Collections_IList_IndexOf_m198887188_gshared
Mnc:__Z36Event_CUSTOM_Internal_SetNativeEventPv
L7f:_UTF32Encoding_GetBytes_m3180303867
C3:__ZN12BaseRenderer20FlattenToRenderQueueER15RenderNodeQueueRK20DeprecatedSourceData
s9g:_List_1_CopyTo_m4034402519_gshared
a7h:_ReadOnlyCollection_1_System_Collections_IList_Clear_m2007013334_gshared
Aib:__Z34scripting_liveness_calculation_endPv
Ggj:__ZN6il2cpp2os6ThreadC2Ev
yhe:_U3CGetEnumeratorU3Ec__Iterator0_System_Collections_Generic_IEnumeratorU3CTU3E_get_Current_m1566629109_gshared
uwf:_DateTimeOffset_get_UtcDateTime_m1021718282_AdjustorThunk
Cfa:__ZN16memory_pool_implILi64EE15AutoPoolWrapper12UninitializeEPv
Fu:__ZN21AnimationClipPlayable22ProcessAnimationNoClipEPK35AnimationPlayableEvaluationConstantPK32AnimationPlayableEvaluationInputP33AnimationPlayableEvaluationOutput
E7e:_HybridDictionary_get_Count_m1166314536
Iki:_TlsStream_Write_m1412844442
qtc:__Z18Transfer_BlittableI8JSONReadLb0E8Vector3fEvRK29SerializationCommandArgumentsR31RuntimeSerializationCommandInfo
J6i:__ZN6il2cpp2vm6Thread6DetachEP12Il2CppThread
jli:_GeneralNames_get_DNSNames_m3788548987
s3f:_List_1_AddCollection_m2026039026_gshared
dff:_X509ChainStatus_get_Status_m2572005749_AdjustorThunk
gCi:__ZL24UnresolvedVirtualCall_59P12Il2CppObjectS0_aPK10MethodInfo
uwc:__GLOBAL__sub_I_runtime_dynamics_2_cpp
YFi:_Hacker_OnUserInput_m1095014035
Kcd:_SerializationEntry_t648286436_marshal_pinvoke
bD:__ZN7mecanim8skeleton30SkeletonBuildReverseIndexArrayEPiPKiPKNS0_8SkeletonES6_
Rlc:__Z19GetGUIBlendMaterialv
wOd:_Math_Round_m3018379666
sJg:__Z41RuntimeInvoker_Boolean_t97287965_IntPtr_tPFvvEPK10MethodInfoPvPS4_
vhj:__ZN6il2cpp2os10ThreadImpl5SleepEjb
w5h:_ReadOnlyCollection_1_System_Collections_IList_Remove_m1965826685_gshared
wzf:_Delegate_CreateDelegate_m1051651521
lJf:_PlayableHandle_IsPlayableOfType_TisRuntimeObject_m503495943_AdjustorThunk
jFj:_glBindSampler__wrapper
UPa:__ZNSt3__26vectorIN20ArchiveStorageHeader12StorageBlockE13stl_allocatorIS2_L18MemLabelIdentifier55ELi16EEE8__appendEj
Hf:_emscripten_set_mouseup_callback
zpg:_Mathf_Clamp_m3350697880
kJa:__ZN9GfxDevice27SetRandomWriteTargetTextureEi9TextureID
cSf:_Dictionary_2_System_Collections_Generic_ICollectionU3CSystem_Collections_Generic_KeyValuePairU3CTKeyU2CTValueU3EU3E_Contains_m3033743418_gshared
IIg:__Z165RuntimeInvoker_Void_t1185182177_UInt32U26_t3735378166_Int32_t2950945753_UInt32U26_t3735378166_Int32_t2950945753_Int32_t2950945753_Int32_t2950945753_Int32_t2950945753PFvvEPK10MethodInfoPvPS4_
i3f:_List_1_System_Collections_IList_Remove_m3140917266_gshared
x5f:_Encoding_get_DecoderFallback_m1525880676
Euh:__ZL59ITrackingHandler_t1244553475_CustomAttributesCacheGeneratorP21CustomAttributesCache
qqi:_CompositeExpression__ctor_m2434860303
Bgd:_DSASignatureDeformatter__ctor_m2759753186
Wef:_X509ChainElementCollection_System_Collections_IEnumerable_GetEnumerator_m3829089536
thh:_Collection_1_System_Collections_IEnumerable_GetEnumerator_m801406918_gshared
KZb:__ZNK18ScreenManagerWebGL8GetWidthEv
eSi:__ZN6il2cpp2vm13MetadataCache33GetFieldDefaultValueDataFromIndexEi
qF:__ZN10SampleClipD2Ev
zfi:_InvokableCall_1_remove_Delegate_m790146436_gshared
uei:_Predicate_1_Invoke_m2389850270_gshared
uhj:__ZN6il2cpp2os10ThreadImpl13SetWaitObjectEPNS0_5posix15PosixWaitObjectE
Vhb:__Z13GetGISettingsv
neh:_Collection_1_RemoveAt_m1813368096_gshared
rU:__ZN11UnityEngine15CloudWebService20WebRequestRestClientC2Ev
DAc:_cff_cmap_unicode_init
rHf:_Array_InternalArray__ICollection_Contains_TisRuntimeObject_m4067783231_gshared
g1:__ZN14FileCacherRead13GetFileLengthEv
zgi:_UnityAction_1_EndInvoke_m542551745_gshared
Dbh:_Collection_1_IsValidItem_m3080586124_gshared
i8c:_DropdownItem_set_text_m3702712387
t5c:_ClipperRegistry_Register_m2407166513
mwj:_readlink
b0i:__ZN15dense_hashtableINSt3__24pairIK10KeyWrapperINS1_IPK9EventInfoP11Il2CppClassEEEjEES9_17ReflectionMapHashIS8_EN14dense_hash_mapIS9_jSD_NS9_14EqualsComparerINS0_8equal_toIS8_EEEENS0_9allocatorISB_EEE9SelectKeyESI_SK_E12resize_deltaEjj
$$d:_MonoCMethod_Invoke_m2700167622
Dxd:_KeyMarker__cctor_m2590194914
xwe:_Enumerator_Reset_m627751027_AdjustorThunk
Vbb:__ZNK6Sprite9GetBoundsE8Vector2fbb
qTa:__ZNK19RenderEventsContext21CleanupCommandBuffersEv
wHi:_TextGenerator_PopulateWithErrors_m1222498386
f4f:_List_1_System_Collections_Generic_ICollectionU3CTU3E_get_IsReadOnly_m507350231_gshared
iua:__ZN11ContextGLES6CreateEi
aIi:_WillRenderCanvases_BeginInvoke_m1804779886
kQg:__Z52RuntimeInvoker_Boolean_t97287965_Vector3_t3722313464PFvvEPK10MethodInfoPvPS4_
h2g:_List_1_set_Capacity_m3382070520_gshared
qUg:__Z68RuntimeInvoker_Boolean_t97287965_RuntimeObject_ObjectU26_t2146539884PFvvEPK10MethodInfoPvPS4_
SRe:_U3CMouseDragOutsideRectU3Ec__Iterator1_Dispose_m267465418
uyf:_Decimal_CompareTo_m3502307243_AdjustorThunk
jCb:__Z19TransferField_ArrayI18StreamedBinaryReadILb0EE27Converter_SimpleNativeClassI17AnimationCurveTplIfEEEvRK23StaticTransferFieldInfoR31RuntimeSerializationCommandInfoRT0_
BKa:__ZN14StackAllocator16FrameMaintenanceEb
MMa:__Z18ReadStringFromFilePN4core17string_with_labelILi1EEERKNS_12basic_stringIcNS_20StringStorageDefaultIcEEEE
sWe:_Scrollbar_get_value_m760470106
sY:__ZNK10GameObject20QueryComponentByTypeEPKN5Unity4TypeE
Jxf:_Decimal_System_IConvertible_ToInt32_m1488426794_AdjustorThunk
YOd:_MonoCustomAttrs_IsUserCattrProvider_m2878058089
GVh:__ZL71InputField_t3762917431_CustomAttributesCacheGenerator_m_HideMobileInputP21CustomAttributesCache
w2a:__ZN11TextureData5ResetEv
sgc:__Z53Register_UnityEngine_GameObject_get_activeInHierarchyv
hlf:_ToBase64Transform_InternalTransformFinalBlock_m360524956
old:_ActivationContext_Dispose_m2038725770
Lrb:__Z35Transfer_Blittable_FixedBufferFieldI17RemapPPtrTransferiEvRK29SerializationCommandArgumentsR31RuntimeSerializationCommandInfo
J_:__ZL30InitializeCoreScriptingClassesv
y9h:_ReadOnlyCollection_1_Contains_m1699971074_gshared
lpe:_InternalEnumerator_1_Dispose_m630370856_AdjustorThunk
Eg:_glBlitFramebuffer
LNa:__ZN17ArchiveFileSystem5TouchER13FileEntryData
n1f:_Enumerator_System_Collections_IEnumerator_get_Current_m3594024719_gshared
Grb:__Z35Transfer_Blittable_SingleValueFieldI14SafeBinaryReadhEvRT_R17GeneralMonoObjectRK23StaticTransferFieldInfo
H9b:__ZN12CachedWriter15CompleteWritingEv
B1a:__ZNK12CubemapArray22GetTypeVirtualInternalEv
Mn:FUNCTION_TABLE_vif
Nn:FUNCTION_TABLE_vid
On:FUNCTION_TABLE_vii
Lib:__Z40scripting_liveness_calculation_from_root18ScriptingObjectPtrPv
Ncd:_SerializationEntry__ctor_m1411687997_AdjustorThunk
Sth:__ZL65IContributeDynamicSink_t2255997386_CustomAttributesCacheGeneratorP21CustomAttributesCache
y_a:__ZN7Texture23VirtualRedirectTransferER24GenerateTypeTreeTransfer
gKc:_UNITY_FT_Set_Transform
Q5b:__ZNK32RendererMaterialAnimationBinding12SetPPtrValueERKN11UnityEngine9Animation10BoundCurveEi
Pdj:__ZN6il2cpp8metadata15GenericMetadata20RegisterGenericClassEP18Il2CppGenericClass
OEj:_glDeleteFramebuffers__wrapper
dFg:__Z220RuntimeInvoker_Boolean_t97287965_RuntimeObject_Int32U26_t1369213839_Int32_t2950945753_Int32_t2950945753_Int32_t2950945753_RuntimeObject_SByte_t1669577662_Int32_t2950945753_ContractionU26_t961830454_ContextU26_t3937453398PFvvEPK10MethodInfoPvPS4_
Zze:_Enumerator__ctor_m920120158_AdjustorThunk
Org:_Playable_Equals_m328753404_AdjustorThunk
Cph:__ZL78TextInfo_t3810425522_CustomAttributesCacheGenerator_TextInfo_Clone_m3838580862P21CustomAttributesCache
Lyc:_cff_blend_build_vector
Yaf:_WebHeaderCollection_ToString_m1263025316
Uoe:_InternalEnumerator_1_MoveNext_m1015797184_gshared
o6b:__ZZN12MeshRenderer15InitializeClassEvEN29FunctorImpl_134kDidDeleteMesh4CallEPviR11MessageData
AHg:__Z91RuntimeInvoker_Void_t1185182177_RuntimeObject_RuntimeObject_RuntimeObject_Int32_t2950945753PFvvEPK10MethodInfoPvPS4_
h2d:_GetterAdapter_Invoke_m3767885970
j3g:_List_1__ctor_m747758800_gshared
Xni:_X509Extension_get_Oid_m4107042796
GYd:_MethodBuilder_get_ReflectedType_m3038768129
trf:_String_CreateString_m2818852475
b0f:_Enumerator_get_Current_m335492761_AdjustorThunk
H4a:__ZN28EnlightenRendererInformation8TransferI14SafeBinaryReadEEvRT_
JIi:_CanvasRenderer_get_hasMoved_m2236392341
grg:_MessageEvent__ctor_m1231650089
vha:__ZNK15Lz4Decompressor16DecompressMemoryEPKvPjPvS2_
FOd:_MemberAccessException__ctor_m3713703094
USa:__Z11IsCoroutine18ScriptingMethodPtrRK22CommonScriptingClasses
wqh:__ZL117GenericTypeParameterBuilder_t1988827940_CustomAttributesCacheGenerator_GenericTypeParameterBuilder_Equals_m3260957994P21CustomAttributesCache
Q1b:__ZN4core8hash_mapINS_12basic_stringIcNS_20StringStorageDefaultIcEEEE10vector_setI4PPtrI11SpriteAtlasENSt3__24lessIS8_EE13stl_allocatorIS8_L18MemLabelIdentifier81ELi16EEENS_4hashIS4_EENS9_8equal_toIS4_EEEixERKS4_
uh:_glGetAttribLocation
WBi:__ZL24UnresolvedVirtualCall_47P12Il2CppObject20DateTime_t3738529785PK10MethodInfo
y0a:__Z35UnityPropertySheet_MakeSortedColorsRKNSt3__23mapIN9ShaderLab16FastPropertyNameE10ColorRGBAfNS_4lessIS2_EENS_9allocatorINS_4pairIKS2_S3_EEEEEER10vector_mapIS2_S3_S5_NS6_INS7_IS2_S3_EEEEE
XCh:__ZL72PKCS12_t4101533061_CustomAttributesCacheGenerator_U3CU3Ef__switchU24map8P21CustomAttributesCache
YCc:_UNITY_tt_face_load_os2
xFh:__ZL90Coroutine_t3829159415_CustomAttributesCacheGenerator_Coroutine_ReleaseCoroutine_m809189848P21CustomAttributesCache
_qb:__Z29Transfer_Blittable_ArrayFieldI14SafeBinaryRead8Vector4fEvRT_R9ArrayInfoRK23StaticTransferFieldInfo
HTd:_Default_check_arguments_m3882727959
Nwd:_Hashtable_get_IsSynchronized_m1426775249
N8f:_UTF8Encoding_GetMaxCharCount_m3762459613
SUd:_ModuleBuilder_RegisterToken_m4166846047
JKb:__ZZ23InitPlayerLoopCallbacksvEN51PostLateUpdateUpdateCustomRenderTexturesRegistrator7ForwardEv
BVe:_RawImage_OnPopulateMesh_m1115858855
EGg:__Z74RuntimeInvoker_MonoFileType_t221779374_IntPtr_t_MonoIOErrorU26_t1548853198PFvvEPK10MethodInfoPvPS4_
sSi:__ZN6il2cpp2vm13MetadataCache25GetStringLiteralFromIndexEi
Qld:_Hashtable_ToPrime_m33531354
bv:__ZN7mecanim9animation12EvaluateClipEPKNS0_4ClipEPKNS0_9ClipInputEPNS0_10ClipMemoryEPNS0_10ClipOutputE
_hh:_Collection_1_IsSynchronized_m1117613618_gshared
Yqb:__ZN15SerializeTraitsI13dynamic_arrayI5RectTIfELj4EEE19ResizeSTLStyleArrayERS3_i
Tdg:_TypeInitializationException__ctor_m3546444694
ycc:__ZNK9Transform16GetLocalRotationEv
S4a:__ZN4PPtrI11LightProbesE8TransferI18StreamedBinaryReadILb0EEEEvRT_
VT:__ZN11UnityEngine15CloudWebService23WebRequestUploadHandler17ConsumeUploadDataEj
mTi:__ZNSt3__214__split_bufferI6pollfdRNS_9allocatorIS1_EEEC2EjjS4_
YEe:_CrossAppDomainData_get_DomainID_m3516796532
eTg:__Z68RuntimeInvoker_Void_t1185182177_Single_t1397266774_SByte_t1669577662PFvvEPK10MethodInfoPvPS4_
WKd:_MemoryStream_set_Position_m3169779190
CWb:__ZN13RenderManager29SetCurrentCameraAndStackStateEP6CameraP25CameraStackRenderingState
e0c:_ExecuteEvents_get_scrollHandler_m2659345019
PRa:__ZNSt3__26__treeINS_12__value_typeIjN4core12basic_stringIcNS2_20StringStorageDefaultIcEEEEEENS_19__map_value_compareIjS7_NS_4lessIjEELb1EEE13stl_allocatorIS7_L18MemLabelIdentifier7ELi16EEE7destroyEPNS_11__tree_nodeIS7_PvEE
u6i:__ZN15dense_hashtableINSt3__24pairIK10KeyWrapperINS1_IP11Il2CppClassjEEES4_EES6_N6il2cpp8metadata14ArrayClassHashEN14dense_hash_mapIS6_S4_SB_NS6_14EqualsComparerINSA_17ArrayClassCompareEEENS0_9allocatorIS8_EEE9SelectKeyESF_SH_E12resize_deltaEjj
Th:_JS_WebRequest_Release
DS:__ZN11UnityEngine15CloudWebService14DataErrorEventD0Ev
jaj:__ZN6il2cpp6icalls8mscorlib6System4Type20internal_from_handleEi
WEh:__ZL72RequiredByNativeCodeAttribute_t4130846357_CustomAttributesCacheGeneratorP21CustomAttributesCache
mGe:_Context__ctor_m254302079
Ldj:__ZN6il2cpp8metadata15GenericMetadata7InflateEPK19Il2CppGenericMethodPK20Il2CppGenericContext
j6e:_KeyGeneratedEventHandler_EndInvoke_m3057317531
Y3a:__ZN19ShaderPropertySheet16SetArrayPropertyEN9ShaderLab16FastPropertyNameENS_12PropertyTypeEPKvj
aXe:_Selectable_FindSelectable_m2348614027
Q6c:_FloatTween_get_duration_m1227071020
sej:__ZN15dense_hashtableINSt3__24pairIK10KeyWrapperIP12Il2CppObjectEN6il2cpp2gc9CachedCCWEEES5_NS7_5utils11PointerHashIS3_EEN14dense_hash_mapIS5_S9_SD_NS5_14EqualsComparerINS0_8equal_toIS4_EEEENS0_9allocatorISA_EEE9SelectKeyESI_SK_E16reset_thresholdsEv
R8c:_DropdownItem_OnPointerEnter_m1492957598
INc:__ZN2UI11CanvasGroup23VirtualRedirectTransferER19StreamedBinaryWriteILb0EE
q2d:_ParameterInfo_get_ParameterType_m4197803362
aGg:__Z91RuntimeInvoker_Void_t1185182177_Int32U26_t1369213839_Int32U26_t1369213839_Int32_t2950945753PFvvEPK10MethodInfoPvPS4_
jnc:__ZN8GUIState8EndOnGUIEv
rFc:_UNITY_TT_Get_VMetrics
RBg:__Z49RuntimeInvoker_Char_t3634460470_Int16_t2552820387PFvvEPK10MethodInfoPvPS4_
MPg:__Z69RuntimeInvoker_Color_t2555686324_Color_t2555686324_Single_t1397266774PFvvEPK10MethodInfoPvPS4_
OWf:_EqualityComparer_1__ctor_m2283513024_gshared
uud:_SimpleEnumerator__cctor_m2844299657
kOd:_LocalDataStoreSlot__ctor_m4104083971
__h:_Array_qsort_TisVector3_t3722313464_m4117329442_gshared
f9h:_ReadOnlyCollection_1_System_Collections_Generic_IListU3CTU3E_RemoveAt_m3849058645_gshared
bAi:_AudioSource_ReadExtensionName_m725112169
jni:_X509CertificateEnumerator_System_Collections_IEnumerator_Reset_m2039524926
RLg:__Z128RuntimeInvoker_Void_t1185182177_RuntimeObject_BooleanU26_t4125257963_SByte_t1669577662_Int32U26_t1369213839_Int32U26_t1369213839PFvvEPK10MethodInfoPvPS4_
$wa:__ZN7Texture21GetMasterTextureLimitEv
Tze:_Enumerator_Dispose_m3503748991_AdjustorThunk
rYb:__Z12CanAddScriptR10GameObject17ScriptingClassPtrPS1_S2_
b3i:__ZN6il2cpp2vm10Reflection12HasAttributeEP12Il2CppObjectP11Il2CppClass
RRg:__Z103RuntimeInvoker_Boolean_t97287965_RuntimeObject_Vector2_t2156229523_RuntimeObject_Vector3U26_t3464235976PFvvEPK10MethodInfoPvPS4_
_bi:_Comparison_1_BeginInvoke_m3263247262_gshared
N9:__ZN9ShaderLabL25StaticInitializeShaderLabEPv
U:Math_max
wYh:__ZL64HorizontalLayoutGroup_t2586782146_CustomAttributesCacheGeneratorP21CustomAttributesCache
NCi:__ZL24UnresolvedVirtualCall_92P12Il2CppObjectPK10MethodInfo
D3i:_il2cpp_class_get_methods
qwg:_HitInfo_SendMessage_m1343099429_AdjustorThunk
Mtb:__Z18Transfer_BlittableI24GenerateTypeTreeTransferLb0EN4math12int2_storageEEvRK29SerializationCommandArgumentsR31RuntimeSerializationCommandInfo
aAf:_StackTrace_get_trace_m1194606084
Vof:_Single_CompareTo_m2785801815_AdjustorThunk
Ogj:__ZN6il2cpp2os6Thread16GetCurrentThreadEv
sQf:_Array_InternalArray__Insert_TisUILineInfo_t4195266810_m3191124053_gshared
N7b:__ZN10GameObject13ComponentPair15SetComponentPtrEPN5Unity9ComponentE
hDj:_glBlitFramebuffer__wrapper
B2b:__Z13RegisterClassI10MeshFilterEvv
aUh:__ZL75U3COnFinishSubmitU3Ec__Iterator0_t3413438900_CustomAttributesCacheGeneratorP21CustomAttributesCache
VRa:__ZN10TagManager8TransferI19StreamedBinaryWriteILb0EEEEvRT_
eib:__ZN11PreloadData23VirtualRedirectTransferER18StreamedBinaryReadILb0EE
H7a:__ZN13sorted_vectorI4PPtrI11SpriteAtlasENSt3__24lessIS2_EE13stl_allocatorIS2_L18MemLabelIdentifier1ELi16EEE21sort_clear_duplicatesEv
ysg:_PropertyNameUtils_PropertyNameFromString_Injected_m1259736140
PUh:__ZL60FontData_t746620069_CustomAttributesCacheGenerator_m_MinSizeP21CustomAttributesCache
Ard:_Char_System_IConvertible_ToDateTime_m3564102661
vye:_ShimEnumerator_get_Key_m317201915_gshared
A6a:__ZN6Sprite17MainThreadCleanupEv
pDj:_glBlendFuncSeparate__wrapper
bL:__ZN10AudioMixer14UpdateMuteSoloEv
b0:__Z17GetMonoManagerPtrv
gRa:__ZN9Transform35SetLocalPositionWithoutNotificationERKN4math7_float3Ey
fPh:__ZL87GUIUtility_t1868551600_CustomAttributesCacheGenerator_U3CguiIsExitingU3Ek__BackingFieldP21CustomAttributesCache
yLg:__Z69RuntimeInvoker_UInt64_t4134040092_Int32_t2950945753_SByte_t1669577662PFvvEPK10MethodInfoPvPS4_
Ui:_JS_Eval_ClearTimeout
bWe:_Raycast2DCallback_Invoke_m1500574149
LBa:__ZN7ApiGLES16SetPatchVerticesEi
usi:_CharacterClass_Compile_m3296067317
Fij:__ZN6il2cpp2gc16GarbageCollector16InvokeFinalizersEv
Jqd:_Byte_System_IConvertible_ToInt64_m285584218_AdjustorThunk
Ttg:_Rect_get_size_m477575021_AdjustorThunk
VKi:__ZN6il2cpp2vm5Class20FromGenericParameterEPK22Il2CppGenericParameter
eV:__ZN19CloudServiceHandler11FlushEventsEv
$ea:__ZN15GlobalCallbacksC2Ev
uJe:_MethodCall_System_Runtime_Remoting_Messaging_IInternalMessage_set_Uri_m1919576807
INf:_Array_InternalArray__ICollection_Add_TisLabelData_t360167391_m1648183135_gshared
Bve:_Comparer_1_System_Collections_IComparer_Compare_m2016223770_gshared
DZh:__ZL57BaseMeshEffect_t2440176439_CustomAttributesCacheGeneratorP21CustomAttributesCache
PKg:__Z74RuntimeInvoker_DateTime_t3738529785_DateTime_t3738529785_Int32_t2950945753PFvvEPK10MethodInfoPvPS4_
vLc:_UNITY_FT_New_Memory_Face
Feh:_Collection_1_System_Collections_IList_IndexOf_m3271188411_gshared
zJc:__ZN20TextRenderingPrivate21TextMeshGeneratorImpl5FlushEv
IKd:_MonoIO_GetFileStat_m678141354
nBc:_UNITY_FT_Load_Sfnt_Table
v7c:__Z15CastclassSealedP12Il2CppObjectP11Il2CppClass
d2b:__ZN15ApplicationInfo14GetSandboxTypeEv
Nrb:__Z18Transfer_BlittableI17RemapPPtrTransferLb1EhEvRK29SerializationCommandArgumentsR31RuntimeSerializationCommandInfo
jyf:_Decimal_IsZero_m4250358244_AdjustorThunk
YNd:_UnmanagedMemoryStream_get_CanRead_m3770815400
bjj:__ZNSt3__26vectorIjNS_9allocatorIjEEE26__swap_out_circular_bufferERNS_14__split_bufferIjRS2_EE
jXb:__ZN16ReflectionProbes40UpdateRealtimeReflectionProbesTimeslicedEv
Pcj:__ZNSt3__26__treeINS_12__value_typeIP24Il2CppReflectionAssemblyPvEENS_19__map_value_compareIS3_S5_NS_4lessIS3_EELb1EEENS_9allocatorIS5_EEE16__insert_node_atEPNS_16__tree_node_baseIS4_EERSF_SF_
$xf:_Decimal_u64_m3374804932
keg:_UInt16_System_IConvertible_ToInt32_m1950778303_AdjustorThunk
tfb:__ZNK30RuntimeInitializeOnLoadManager22GetTypeVirtualInternalEv
DPi:__ZN15dense_hashtableINSt3__24pairIK10KeyWrapperIN6il2cpp5utils13dynamic_arrayIPK10Il2CppTypeLj4EEEEPFvvEEESA_NS3_8metadata19Il2CppSignatureHashEN14dense_hash_mapISA_SD_SG_NSA_14EqualsComparerINSF_22Il2CppSignatureCompareEEENS0_9allocatorISE_EEE9SelectKeyESK_SM_E12resize_deltaEjj
w5b:__ZN16ReflectionProbes15InitializeClassEv
Elh:__ZL71Enum_t4135868527_CustomAttributesCacheGenerator_Enum_Format_m2588135982P21CustomAttributesCache
VQi:__ZNK15dense_hashtableINSt3__24pairIK10KeyWrapperIPK11Il2CppClassEPKcEES6_N6il2cpp5utils11PointerHashIS3_EEN14dense_hash_mapIS6_S9_SE_NS6_14EqualsComparerINS0_8equal_toIS5_EEEENS0_9allocatorISA_EEE9SelectKeyESJ_SL_E12test_deletedEj
tRh:__ZL127RectTransformUtility_t1743242446_CustomAttributesCacheGenerator_RectTransformUtility_INTERNAL_CALL_PixelAdjustPoint_m1064459754P21CustomAttributesCache
e1h:_Dictionary_2_Do_ICollectionCopyTo_TisKeyValuePair_2_t3699644050_m4159638770_gshared
Kbj:__ZN6il2cpp2vm5Image9GetCorlibEv
Bzg:_Vector3_get_left_m2428419009
eA:__ZN8Animator13BatchedFKPassERK13dynamic_arrayIP14PlayableOutputLj4EE
Xrh:__ZL50Pointer_t2088917139_CustomAttributesCacheGeneratorP21CustomAttributesCache
boj:_GC_reclaim_uninit
mhb:__ZN16LightmapSettings11UnshareDataEv
T$c:_ExecuteEvents_Execute_m113814934
wba:__ZN13RuntimeStaticINSt3__23mapIN4core12basic_stringIcNS2_20StringStorageDefaultIcEEEES6_NS0_4lessIS6_EE13stl_allocatorINS0_4pairIKS6_S6_EEL18MemLabelIdentifier13ELi16EEEELb0EE13StaticDestroyEPv
N_h:_Array_qsort_TisColor32_t2600501292_m1362211604_gshared
Hve:_Enumerator_System_Collections_IEnumerator_get_Current_m2979767597_AdjustorThunk
Zhd:_MD5CryptoServiceProvider_ProcessFinalBlock_m2241588515
kYe:_ScrollRect_GetBounds_m449872505
Tj:_glIsVertexArray
zkd:_SmallXmlParser_Read_m3485223434
sDd:_Int16_Parse_m2276856944
Yoe:_InternalEnumerator_1__ctor_m3443175323_AdjustorThunk
a6:__ZN5Unity9Component8TransferI18StreamedBinaryReadILb0EEEEvRT_
Arh:__ZL131CustomAttributeData_t1084486650_CustomAttributesCacheGenerator_CustomAttributeData_t1084486650____ConstructorArguments_PropertyInfoP21CustomAttributesCache
ea:invoke_fff
bwj:_mbsinit
XBj:b14
Tgf:_RepeatContext_get_Expression_m255006542
TMc:__ZN2UI6Canvas17MainThreadCleanupEv
oza:__ZN6prcoreL12RemapGenericI17TexFormatARGB155517TexFormatRGBA8888EEvPKNS_9InnerInfoE
PMi:__ZN13Il2CppHashMapIPK19Il2CppGenericMethodPK26Il2CppGenericMethodIndicesN6il2cpp8metadata23Il2CppGenericMethodHashENS7_26Il2CppGenericMethodCompareENSt3__29allocatorINSA_4pairIK10KeyWrapperIS2_ES5_EEEEEC2EjRKS8_RKS9_
w_d:_TypeBuilder_HasElementTypeImpl_m1871001960
_nf:_SecurityFrame__ctor_m2140076703_AdjustorThunk
lVf:_DefaultComparer_Equals_m2458578172_gshared
nDa:__ZN7ApiGLES13CreateProgramEv
Fwe:_Enumerator_VerifyState_m4003066746_gshared
oxa:__ZN4crnd12crn_unpackerD2Ev
ek:_emscripten_glTexImage2D
vue:_Comparer_1_System_Collections_IComparer_Compare_m2537217645_gshared
x_:__ZN18ScriptingArguments9AddStringEPKc
voj:_setup_header
G_f:_KeyValuePair_2__ctor_m3953574590_AdjustorThunk
zsd:_Char_ToString_m3588025615
yJf:_SetPropertyUtility_SetStruct_TisAspectMode_t3417192999_m1565063249_gshared
ich:_Collection_1_get_Count_m2853642267_gshared
j7h:_ReadOnlyCollection_1_System_Collections_IList_get_IsReadOnly_m375760151_gshared
Juh:__ZL53IEnvoyInfo_t2180778907_CustomAttributesCacheGeneratorP21CustomAttributesCache
p4e:_CryptoConvert_ToCapiKeyBlob_m3371450375
wya:__ZL23stbir__resize_arbitraryPvPKviiiS_iiiffffPfiij14stbir_datatype12stbir_filterS4_10stbir_edgeS5_16stbir_colorspace
eub:__Z18Transfer_BlittableI24GenerateTypeTreeTransferLb1E8Vector4fEvRK29SerializationCommandArgumentsR31RuntimeSerializationCommandInfo
$Bj:b18
pk:_pthread_detach
JSi:__ZN6il2cpp2vm19SocketPollingThread7RunLoopEv
x9c:_FontUpdateTracker_UntrackText_m1981515690
s4g:_List_1_System_Collections_ICollection_get_SyncRoot_m1937857346_gshared
p8b:__ZN15DirectorManager20ScheduleGraphDestroyERK14HPlayableGraph
YCb:__ZNSt3__213__stable_sortIRN10vector_mapI17ScriptingClassPtrPKN5Unity4TypeENS_4lessIS2_EENS_9allocatorINS_4pairIS2_S6_EEEEE13value_compareENS_11__wrap_iterIPSB_EEEEvT0_SJ_T_NS_15iterator_traitsISJ_E15difference_typeEPNSM_10value_typeEi
_0e:_SimpleCollator_FillSurrogateSortKeyRaw_m725998232
y5g:_List_1_AddEnumerable_m1284696147_gshared
jaf:_IPAddress_Equals_m1823478787
dHe:_Context_CreateNewContext_m3053563976
jHh:__ZL83RectOffset_t1369453676_CustomAttributesCacheGenerator_RectOffset_set_top_m713260669P21CustomAttributesCache
Wka:__ZN9ShaderLab25SerializedTextureProperty8TransferI24GenerateTypeTreeTransferEEvRT_
Q0h:_Array_swap_TisVector2_t2156229523_TisVector2_t2156229523_m345092822_gshared
Abh:_Collection_1_get_Item_m1773274637_gshared
V0i:__ZN6il2cpp2gc19AppendOnlyGCHashMapINSt3__24pairIPK14Il2CppAssemblyP11Il2CppClassEEP24Il2CppReflectionAssembly17ReflectionMapHashIS9_ENS2_8equal_toIS9_EEEC2Ev
GDc:_tt_cmap14_char_next
Rwb:__Z18Transfer_BlittableI19StreamedBinaryWriteILb0EELb0EdEvRK29SerializationCommandArgumentsR31RuntimeSerializationCommandInfo
Zka:__ZN11NamedObject8TransferI18StreamedBinaryReadILb0EEEEvRT_
AGa:__ZNK17GPUSkinPoseBuffer12GetBoneCountEv
xmg:_InvokableCall_remove_Delegate_m1376110510
_wd:_Hashtable_Clear_m3112193608
v8f:_UTF8Encoding_InternalGetByteCount_m771565606
pbj:__ZNK15dense_hashtableINSt3__24pairIK10KeyWrapperIP14Il2CppIUnknownEjEES5_N6il2cpp5utils11PointerHashIS3_EEN14dense_hash_mapIS5_jSB_NS5_14EqualsComparerINS0_8equal_toIS4_EEEENS0_9allocatorIS7_EEE9SelectKeyESG_SI_E12test_deletedEj
w4e:_DSAManaged_GenerateKeyPair_m2236915969
B0g:_List_1_System_Collections_IList_Remove_m3654336679_gshared
pHh:__ZL51GUILayer_t2783472903_CustomAttributesCacheGeneratorP21CustomAttributesCache
joh:__ZL56IDictionary_2_t3177279192_CustomAttributesCacheGeneratorP21CustomAttributesCache
BKf:_Array_InternalArray__IEnumerable_GetEnumerator_TisUInt64_t4134040092_m1382862496_gshared
Mk:_emscripten_glMatrixMode
OUe:_MaskableGraphic_UnityEngine_UI_IClippable_get_gameObject_m1739855597
jFf:_NumberFormatInfo_get_RawPercentGroupSizes_m97703232
Ps:__ZN8Animator23VirtualRedirectTransferER18StreamedBinaryReadILb0EE
jGf:_Guid__ctor_m3562600567_AdjustorThunk
YR:__ZN11UnityEngine15CloudWebService14DataDispatcher16PrepareDataBlockERNS0_16SessionContainerE
XHa:__ZN18GfxFramebufferGLES5ClearE13GfxClearFlagsRK10ColorRGBAffib
hNf:_MonoProperty_StaticGetterAdapterFrame_TisRuntimeObject_m4131530968_gshared
ABb:__ZL26Transfer_SimpleNativeClassI18StreamedBinaryReadILb0EE10RectOffsetLb0EEvRK29SerializationCommandArgumentsR31RuntimeSerializationCommandInfo
Vne:_InternalEnumerator_1_get_Current_m2316281569_gshared
sOb:__ZL12DepthPassJobPN21GfxDeviceAsyncCommand10ArgScratchEPKNS_3ArgE
ija:__ZNSt3__26vectorIN9ShaderLab20SerializedSubProgram16TextureParameterENS_9allocatorIS3_EEE6assignINS_11__wrap_iterIPS3_EEEENS_9enable_ifIXaasr21__is_forward_iteratorIT_EE5valuesr16is_constructibleIS3_NS_15iterator_traitsISC_E9referenceEEE5valueEvE4typeESC_SC_
Hze:_Transform_1_EndInvoke_m1701794896_gshared
Jpc:__ZN5Unity9rapidjson6WriterI16TempBufferWriterNS0_4UTF8IcEES4_13JSONAllocatorE11WriteDoubleEd
bag:_Thread_SetCachedCurrentUICulture_m1729523031
RQc:__Z55Register_UnityEngine_CanvasGroup_get_ignoreParentGroupsv
ERe:_InputField_get_minHeight_m2822964544
$2b:__Z13RegisterClassI19LowerResBlitTextureEvv
obe:_ClientContext_set_ClientHelloProtocol_m4189379912
Nm:FUNCTION_TABLE_iiiiiiiiiiii
a5g:_List_1_get_Item_m1686506901_gshared
fUa:__ZN16GraphicsSettingsD0Ev
h$b:__Z29StdTemplateConversionFunctionIshEbPvR14SafeBinaryRead
n:cttz_i8
zyc:_UNITY_FT_GlyphLoader_Add
xAi:_AudioListener_INTERNAL_CALL_ReadExtensionPropertyName_m330480156
xsh:__ZL62ActivationArguments_t4219999170_CustomAttributesCacheGeneratorP21CustomAttributesCache
ONg:__Z53RuntimeInvoker_Interval_t1802865632_Int32_t2950945753PFvvEPK10MethodInfoPvPS4_
OBd:_Convert_ToUInt16_m867476252
Jl:_emscripten_glViewport
Ikj:__ZN6il2cpp6icalls8mscorlib6System15MonoCustomAttrs17IsDefinedInternalEP12Il2CppObjectP20Il2CppReflectionType
p0f:_Enumerator__ctor_m40451936_AdjustorThunk
iQg:__Z53RuntimeInvoker_Vector3_t3722313464_Single_t1397266774PFvvEPK10MethodInfoPvPS4_
RJi:_SkeletonBone_t4134054672_marshal_pinvoke_back
_th:__ZL115SynchronizationAttribute_t3946661254_CustomAttributesCacheGenerator_SynchronizationAttribute_IsContextOK_m324067792P21CustomAttributesCache
YTd:_CustomAttributeData_get_Constructor_m489601093
Xzc:_cff_parse_font_bbox
h0e:_MSCompatUnicodeTable_Category_m1834196420
sec:__Z35Application_Get_Custom_PropIsEditorv
Kdb:__ZN14PlayerSettings23VirtualRedirectTransferER18StreamedBinaryReadILb0EE
RAf:_Double_CompareTo_m3151899116
Ctj:__ZN6il2cpp2os5Event5ResetEv
FTb:__Z26CombineDepthNormalsTextureRK17RenderLoopContextR13dynamic_arrayI16RenderObjectDataLj4EE
pDc:_tt_name_ascii_from_other
_yi:_ToggleGroup__ctor_m3308114662
wdj:__ZN6il2cpp8metadata15GenericMetadata17InflateParametersEPK13ParameterInfohPK20Il2CppGenericContextb
gSa:__ZN6Camera13AwakeFromLoadE17AwakeFromLoadMode
h0h:_Array_Sort_TisUILineInfo_t4195266810_m3737783007_gshared
Trg:_PlayableAsset_Internal_CreatePlayable_m2550417712
Xv:__ZNK17AnimationPlayable27GetNextCompatibleDescendantEi
$Bh:__ZL59ResolveEventArgs_t1779456501_CustomAttributesCacheGeneratorP21CustomAttributesCache
oKa:__ZN4PPtrI6SpriteE8TransferI18StreamedBinaryReadILb0EEEEvRT_
Apd:_Convert_ToInt16_m3324557887
Rki:_TlsStream_Write_m188217214
jzb:__ZN4PPtrI9Texture2DE8TransferI18StreamedBinaryReadILb1EEEEvRT_
zGb:__Z25SetNeedToPerformRenderingb
Xxj:__ZN10__cxxabiv116__shim_type_infoD2Ev
qri:_Alternation__ctor_m1629257642
agg:_UInt64_System_IConvertible_ToInt32_m949522652_AdjustorThunk
tQa:__ZN10GameObjectD2Ev
HOb:__ZN14qsort_internal30FindAndMovePivotToLastPositionIP15RODataDepthPassi17ROSorterDepthPassEEvT_S4_T0_T1_
HOd:_MethodAccessException__ctor_m3411913042
BBi:__ZL24UnresolvedVirtualCall_26P12Il2CppObjectS0_iiPK10MethodInfo
cYf:_EqualityComparer_1__ctor_m1767308726_gshared
sWb:__ZN12CullingGroup10SendEventsEPK17CullingGroupEventj
oTi:__ZNSt3__214__split_bufferI6pollfdRNS_9allocatorIS1_EEED2Ev
nFf:_NumberFormatInfo_get_PerMilleSymbol_m1360140831
x9d:_EncryptedData_get_EncryptionAlgorithm_m905084934
kKf:_Array_InternalArray__IEnumerable_GetEnumerator_TisCustomAttributeTypedArgument_t2723150157_m1333528454_gshared
t1c:_PointerInputModule__ctor_m3728889932
EX:__ZThn32_NK8Renderer8GetLayerEv
O0f:_Enumerator_System_Collections_IEnumerator_Reset_m2915500989_gshared
aAc:_cff_parse_vsindex
kcj:__ZN30dense_hashtable_const_iteratorINSt3__24pairIK10KeyWrapperINS1_IPKcS4_EEEiEES6_24NamespaceAndNamePairHashN14dense_hash_mapIS6_iS9_NS6_14EqualsComparerI26NamespaceAndNamePairEqualsEENS0_9allocatorIS8_EEE9SelectKeyESD_SF_E30advance_past_empty_and_deletedEv
EDd:_Int32_ValidDigit_m1059003769
zHj:_emscripten_glTexParameterfv__wrapper
tCh:__ZL54MemberFilter_t426314064_CustomAttributesCacheGeneratorP21CustomAttributesCache
CSe:_LayoutGroup_get_rectTransform_m442863741
nob:__Z18Transfer_BlittableI14SafeBinaryReadLb1E9BoundsIntEvRK29SerializationCommandArgumentsR31RuntimeSerializationCommandInfo
u4i:_il2cpp_method_get_param_count
ccc:__ZN10systeminfo19ISOToSystemLanguageERN4core12basic_stringIcNS0_20StringStorageDefaultIcEEEE
N$i:__ZNK15dense_hashtableINSt3__24pairIK10KeyWrapperINS1_IPK12PropertyInfoP11Il2CppClassEEEjEES9_17ReflectionMapHashIS8_EN14dense_hash_mapIS9_jSD_NS9_14EqualsComparerINS0_8equal_toIS8_EEEENS0_9allocatorISB_EEE9SelectKeyESI_SK_E3endEv
$1h:_LayoutGroup_SetProperty_TisAxis_t3613393006_m3591044743_gshared
Pgg:_UnauthorizedAccessException__ctor_m40101894
Ulh:__ZL69RuntimeArray_CustomAttributesCacheGenerator_Array_SetValue_m282347242P21CustomAttributesCache
sHc:_ps_dimension_done
HMc:__Z46Register_UnityEngine_TextGenerator_Dispose_cppv
EHg:__Z67RuntimeInvoker_GCHandle_t3351438187_RuntimeObject_Int32_t2950945753PFvvEPK10MethodInfoPvPS4_
WAf:_Double_Parse_m4153729520
Xhi:_IndexedSet_1_AddUnique_m861843892_gshared
wDh:__ZL59HybridDictionary_t4070033136_CustomAttributesCacheGeneratorP21CustomAttributesCache
m4a:__ZN16LightmapSettings8TransferI14SafeBinaryReadEEvRT_
voa:__ZN17BufferManagerGLES13ReleaseBufferEP14DataBufferGLES
nae:_CipherSuite_Write_m1172814058
hNd:_SynchronizedWriter_Write_m301917713
F8:__ZN9profiling6MarkerC2EPKc13ProfilerGroupNS0_5FlagsE
cue:__ZN21InterfaceFuncInvoker1Ii22UILineInfo_t4195266810E6InvokeEjP11Il2CppClassP12Il2CppObjectS0_
luc:__Z18Transfer_BlittableI8JSONReadLb1EjEvRK29SerializationCommandArgumentsR31RuntimeSerializationCommandInfo
WUd:_ConstructorBuilder_get_IsCompilerContext_m3364441562
ylg:_Debug_LogWarning_m3752629331
rbi:_ReadOnlyCollection_1_System_Collections_Generic_IListU3CTU3E_RemoveAt_m4037795630_gshared
_Ig:__Z117RuntimeInvoker_Void_t1185182177_RuntimeObject_Int32_t2950945753_Int32_t2950945753_Int32_t2950945753_Int32_t2950945753PFvvEPK10MethodInfoPvPS4_
cWh:__ZL81U3CMouseDragOutsideRectU3Ec__Iterator1_t3909241878_CustomAttributesCacheGeneratorP21CustomAttributesCache
n4c:_U3COnFinishSubmitU3Ec__Iterator0_Reset_m3632769946
$o:stackSave
q6c:_ColorTween_get_targetColor_m1724075482_AdjustorThunk
NHc:_ps_dimension_end
flc:__Z41Register_UnityEngine_Mesh_Internal_Createv
Wmb:__ZN16MemoryFileSystem5TouchER13FileEntryData
udj:__ZNK15dense_hashtableI10KeyWrapperIP18Il2CppGenericClassES3_N6il2cpp8metadata22Il2CppGenericClassHashEN14dense_hash_setIS3_S6_NS3_14EqualsComparerINS5_25Il2CppGenericClassCompareEEENSt3__29allocatorIS3_EEE8IdentityESA_SD_E12test_deletedERK30dense_hashtable_const_iteratorIS3_S3_S6_SF_SA_SD_E
p1f:_Enumerator_Dispose_m2498245804_AdjustorThunk
hzd:_Console_Open_m3077673205
qni:_X509StoreManager_get_CurrentUser_m4040993045
RXb:__ZN6Camera9SetAspectEf
hMf:_Array_InternalArray__IndexOf_TisDateTime_t3738529785_m2463359116_gshared
va:invoke_viiffiii
DFi:_Display_Start_m3623905221
Sme:_InternalEnumerator_1_MoveNext_m4138204635_gshared
QIj:_emscripten_glBindVertexArray__wrapper
mgj:__ZN6il2cpp6icalls8mscorlib6System4Enum19get_underlying_typeEP20Il2CppReflectionType
cti:_Parser_IsECMAScript_m674158805
nF:__ZN10ObjectPoolIN4FMOD3DSPENS0_4DSPIEE7GetFreeEi
oRa:__ZN9Transform37InitializeTransformHierarchyRecursiveER18TransformHierarchyRii
LHa:__ZN26SinglePassStereoSupportExt23SetupStereoMatrixParamsE21MonoOrStereoscopicEye24BuiltinShaderMatrixParamRK10Matrix4x4f
v$h:_Array_Resize_TisVector2_t2156229523_m1564542050_gshared
Yvj:_fscanf
gYc:__ZNK25UnityWebRequestJavaScript16GetUploadedBytesEv
XP:__Z46AudioListener_CUSTOM_GetNumExtensionPropertiesP12Il2CppObject
UTi:__ZN6il2cpp6icalls8mscorlib6SystemL16CheckMemberMatchI9FieldInfoNS_5utils10functional6FilterINSt3__212basic_stringIcNS8_11char_traitsIcEENS8_9allocatorIcEEEENS5_13VmStringUtils23CaseInsensitiveComparerEEEEEbPKT_PK11Il2CppClassSN_iRKT0_
__:__Z14GetMonoManagerv
uMf:_Array_InternalArray__IndexOf_TisMonoResource_t4103430009_m1351751258_gshared
Jej:__ZN6il2cpp2gc16GarbageCollector12RunFinalizerEPvS2_
QCf:_FieldAccessException__ctor_m3583219052
bkc:__Z57Register_UnityEngine_Transform_INTERNAL_set_localPositionv
NJh:__ZL105RectTransform_t3704657025_CustomAttributesCacheGenerator_RectTransform_INTERNAL_get_anchorMax_m1239315619P21CustomAttributesCache
zsa:__ZN13GfxDeviceGLES26SetRandomWriteTargetBufferEi15ComputeBufferID
uoj:_GC_split_block
q$h:_Array_Resize_TisUICharInfo_t75501106_m3903846016_gshared
c8h:_ReadOnlyCollection_1_System_Collections_Generic_ICollectionU3CTU3E_get_IsReadOnly_m3887826072_gshared
E$i:__ZNK15dense_hashtableINSt3__24pairIK10KeyWrapperINS1_IPK12PropertyInfoP11Il2CppClassEEEjEES9_17ReflectionMapHashIS8_EN14dense_hash_mapIS9_jSD_NS9_14EqualsComparerINS0_8equal_toIS8_EEEENS0_9allocatorISB_EEE9SelectKeyESI_SK_E8min_sizeEjj
xKb:__ZZ23InitPlayerLoopCallbacksvEN49EarlyUpdateResetFrameStatsAfterPresentRegistrator7ForwardEv
ywj:_poll
e8h:_ReadOnlyCollection_1_System_Collections_IEnumerable_GetEnumerator_m1671097018_gshared
Agg:_UInt64_ToString_m1529093114_AdjustorThunk
tXh:__ZL85Selectable_t3250028441_CustomAttributesCacheGenerator_Selectable_IsPressed_m907486548P21CustomAttributesCache
h5d:_TypeLibImportClassAttribute__ctor_m2302178978
I1e:_Escape_t3294788190_marshal_pinvoke
YQe:_InputField_OnUpdateSelected_m1118869681
Obj:__ZN6il2cpp2vmL36AddNestedTypesToNametoClassHashTableEP40Il2CppNameToTypeDefinitionIndexHashTablePKcRKNSt3__212basic_stringIcNS5_11char_traitsIcEENS5_9allocatorIcEEEEP11Il2CppClass
Ucd:_SerializationException__ctor_m3131447373
yxa:__ZN4crnd12crn_unpacker11unpack_dxt1EPPhjjj
Nbc:__ZNK11ICallString6ToUTF8Ev
b_g:__Z39RuntimeInvoker_MonoResource_t4103430009PFvvEPK10MethodInfoPvPS4_
$Ki:__ZN15dense_hashtableINSt3__24pairIK10KeyWrapperIPK22Il2CppGenericParameterEP11Il2CppClassEES6_N6il2cpp5utils11PointerHashIS4_EEN14dense_hash_mapIS6_S9_SE_NS6_14EqualsComparerINS0_8equal_toIS5_EEEENS0_9allocatorISA_EEE9SelectKeyESJ_SL_E15insert_noresizeERKSA_
lze:_Transform_1_Invoke_m2468053724_gshared
PHg:__Z51RuntimeInvoker_Void_t1185182177_TimeSpan_t881159249PFvvEPK10MethodInfoPvPS4_
IOb:__ZNSt3__211__sift_downIR17ROSorterDepthPassP15RODataDepthPassEEvT0_S5_T_NS_15iterator_traitsIS5_E15difference_typeES5_
X$a:__ZN18UnityPropertySheet11UnityTexEnvC2Ev
lec:__ZNSt3__214__split_bufferIPN9BlobWrite11TypeContextENS_9allocatorIS3_EEE10push_frontERKS3_
imd:_ArgumentException__ctor_m3200406061
zA:__ZN8Animator17ApplyOnAnimatorIKEiRNS_11AnimatorJobE
o1:__ZN12FileAccessor4ReadEyyPvPy
Bsf:_EncoderExceptionFallback__ctor_m3745979420
U6g:_List_1_set_Capacity_m2777925136_gshared
sXb:__ZN13RenderTexture9SetHeightEi
mu:__ZN7mecanim9animation17ClearMotionOutputEPNS0_18AnimationNodeStateE
$ae:_CipherSuiteCollection_get_IsFixedSize_m3127823890
zXa:__ZN16LevelGameManager8TransferI24GenerateTypeTreeTransferEEvRT_
cte:_InternalEnumerator_1_System_Collections_IEnumerator_get_Current_m3537550566_gshared
rWe:_Scrollbar_UpdateVisuals_m2492252165
gmi:_PKCS12_get_Keys_m2165478388
E8i:__ZN6il2cpp6icalls8mscorlib6System2IO6MonoIO17GetFileAttributesEP12Il2CppStringPi
ohd:_HMACMD5__ctor_m3008609295
lvf:_DateTime__ParseAmPm_m3478436123
Rvf:_DateTime_ToString_m2992030064_AdjustorThunk
iEc:_tt_cmap8_char_index
Y_:__Z24scripting_class_get_name17ScriptingClassPtr
SLd:_Stream_WriteByte_m1519852120
xzi:_VerticalLayoutGroup_CalculateLayoutInputHorizontal_m1404590745
eca:__ZN13RuntimeStaticI15GUIEventManagerLb0EE13StaticDestroyEPv
KPd:_ShortComparer_Compare_m1881262465
eqb:__Z29Transfer_Blittable_ArrayFieldI14SafeBinaryReadjEvRT_R9ArrayInfoRK23StaticTransferFieldInfo
GZg:__Z53RuntimeInvoker_Keyframe_t4206410242_Int32_t2950945753PFvvEPK10MethodInfoPvPS4_
ee:_emscripten_set_keydown_callback
c5f:_EncoderReplacementFallback__ctor_m1483565116
Xgf:_Interpreter_IsWordChar_m2858055765
Xwd:_Hashtable_CopyTo_m2905447224
w1:__ZN12FileAccessorC2Ev
aYf:_EqualityComparer_1_System_Collections_IEqualityComparer_Equals_m3855544238_gshared
XBc:_otv_u_O_O_u_O_O
qy:__ZThn152_NK26AnimatorControllerPlayable25GetStateMachineBehavioursEv
Shi:_EventFunction_1_Invoke_m2429482587_gshared
Dbf:_AsnEncodedData_SubjectAltName_m4049949414
hVi:__ZN6il2cpp2vm7Runtime12GetConfigDirEv
wzi:_VerticalLayoutGroup__ctor_m321345421
_q:__ZN4PPtrI13MonoBehaviourE8TransferI18StreamedBinaryReadILb0EEEEvRT_
m0f:_Enumerator_MoveNext_m1177880931_AdjustorThunk
TZe:_Slider_UpdateVisuals_m3662961057
DOh:__ZL82Event_t2956885303_CustomAttributesCacheGenerator_Event_get_commandName_m4275147343P21CustomAttributesCache
uHi:_TextGenerator_Populate_m194003733
BFh:__ZL111ScriptableObject_t2528358522_CustomAttributesCacheGenerator_ScriptableObject_CreateInstanceFromType_m1997111014P21CustomAttributesCache
ZVd:_DerivedType_get_FullName_m1025358827
ufd:_CryptoConfig_MapNameToOID_m2044758263
KVh:__ZL70InputField_t3762917431_CustomAttributesCacheGenerator_m_OnValueChangedP21CustomAttributesCache
rHb:__ZN13RenderManager22OnWindowSizeHasChangedEv
PEb:__Z39WriteQueueForTransferSignatureIntoCacheRK31TransferFunctionScriptingTraitsRK24TransferRequestSignature17ScriptingClassPtrR23CachedSerializationDataRb
_gb:__ZN13RenderManager18UpdateAllRenderersEv
o6f:_Encoding_get_UTF8UnmarkedUnsafe_m320312322
kag:_Thread_Thread_free_internal_m333849022
$qc:__Z35Transfer_Blittable_FixedBufferFieldI9JSONWritexEvRK29SerializationCommandArgumentsR31RuntimeSerializationCommandInfo
ooi:_CostDelegate_BeginInvoke_m2828452701
OSc:__ZN22BaseUnityConnectClient30OnEnteringStatePausedOrStoppedEv
Cgh:_Collection_1_ConvertItem_m1556170494_gshared
Au:__ZN7mecanim5human12HumanPoseAddERNS0_9HumanPoseERKS1_S4_
Ltf:_DateTime_ToUniversalTime_m1945318289
ttd:_ArrayList_ToArray_m3827492363
j_e:_Slider_get_stepSize_m1423227661
vgg:_UInt64_Parse_m819899889
Nkf:_SymmetricAlgorithm_set_IV_m3196220308
pYd:_GenericTypeParameterBuilder_GetHashCode_m852224381
_Bd:_Convert_ToUInt32_m1453583008
LDf:_CompareInfo_Compare_m894311506
YQa:__Z24MergeTransformComponentsR9TransformS0_b
WOi:__ZNK15dense_hashtableI10KeyWrapperIPK19Il2CppGenericMethodES4_N6il2cpp8metadata23Il2CppGenericMethodHashEN14dense_hash_setIS4_S7_NS4_14EqualsComparerINS6_26Il2CppGenericMethodCompareEEENSt3__29allocatorIS4_EEE8IdentityESB_SE_E10test_emptyEj
c_c:_EventSystem_UpdateModules_m3643806022
Cij:__ZN6il2cpp2gc16GarbageCollector10StartWorldEv
wJi:_AnimationOffsetPlayable__cctor_m1029460816
OFh:__ZL86Camera_t4157153871_CustomAttributesCacheGenerator_Camera_get_targetTexture_m2278634983P21CustomAttributesCache
Kmf:_Evidence_get_SyncRoot_m2835084965
xJf:_SetPropertyUtility_SetStruct_TisTouchScreenKeyboardType_t1530597702_m2455393348_gshared
jUf:_DefaultComparer__ctor_m2280347240_gshared
hwh:__ZL59ICryptoTransform_t2733259762_CustomAttributesCacheGeneratorP21CustomAttributesCache
Kkj:__ZN6il2cpp2vm13ComObjectBase19GetRuntimeClassNameEPP15Il2CppHString__
rzd:_Convert_ToBoolean_m2833489984
Rj:_emscripten_glVertexAttribPointer
vyj:__ZNSt11logic_errorD0Ev
OVa:__ZNK20IntermediateRenderer12GetSceneMaskEv
CHb:__ZN14PreloadManager26UpdatePreloadingSingleStepENS_21UpdatePreloadingFlagsEi
xii:_TweenRunner_1__ctor_m340723704_gshared
ZYe:_ScrollRect_SetLayoutHorizontal_m3078869633
x0e:_SimpleCollator__ctor_m1587210019
nic:__Z57Register_UnityEngine_RectTransform_INTERNAL_set_anchorMinv
WBd:_Convert_ToUInt16_m1480956416
Xya:__ZN6prcoreL25inner_stretch_i8_bilinearEPKNS_9InnerInfoE
sib:__ZL30RegisterFilteredObjectCallbackPP12Il2CppObjectiPv
Pai:_ReadOnlyCollection_1_System_Collections_Generic_IListU3CTU3E_RemoveAt_m3317217538_gshared
bOh:__ZL54AudioSource_t3935305588_CustomAttributesCacheGeneratorP21CustomAttributesCache
UHb:__Z19InitializeGfxDevicev
sS:__ZN11UnityEngine15CloudWebService16SessionContainer24GetSessionHeaderJsonDataERKN4core12basic_stringIcNS2_20StringStorageDefaultIcEEEERNS2_13StringBuilderE
CVd:_DerivedType_GetEvent_m4157575360
Sba:__ZN13RuntimeStaticI21AssetReferenceStorageLb0EE13StaticDestroyEPv
xed:_SByte_System_IConvertible_ToType_m4075253447_AdjustorThunk
hwd:_Comparer__ctor_m2831654082
JQf:_Array_InternalArray__set_Item_TisKeyValuePair_2_t2530217319_m258011711_gshared
mTg:__Z72RuntimeInvoker_Bounds_t2266837910_RuntimeObject_Matrix4x4U26_t3606180965PFvvEPK10MethodInfoPvPS4_
xgj:__ZN6il2cpp6icalls8mscorlib6System9AppDomain22InternalGetProcessGuidEP12Il2CppString
gyc:_cf2_builder_moveTo
EAh:__ZL79Convert_t2465617642_CustomAttributesCacheGenerator_Convert_ToUInt32_m3188121845P21CustomAttributesCache
OCg:__Z48RuntimeInvoker_RuntimeObject_Decimal_t2948259380PFvvEPK10MethodInfoPvPS4_
Aag:_ThreadStart_EndInvoke_m3768045394
uNa:__ZNK17FileSystemHandler10IsReadOnlyERK13FileEntryData
$Ti:__ZNSt3__214__split_bufferIP9FieldInfoRNS_9allocatorIS2_EEEC2EjjS5_
zdd:_StreamingContext__ctor_m2604757771_AdjustorThunk
Bub:__Z18Transfer_BlittableI24GenerateTypeTreeTransferLb1EjEvRK29SerializationCommandArgumentsR31RuntimeSerializationCommandInfo
i$i:__ZNK15dense_hashtableINSt3__24pairIK10KeyWrapperINS1_IPK11Il2CppImageP11Il2CppClassEEEjEES9_17ReflectionMapHashIS8_EN14dense_hash_mapIS9_jSD_NS9_14EqualsComparerINS0_8equal_toIS8_EEEENS0_9allocatorISB_EEE9SelectKeyESI_SK_E10test_emptyERK30dense_hashtable_const_iteratorISB_S9_SD_SM_SI_SK_E
ZKi:__ZN6il2cpp2os12FastAutoLockD2Ev
drh:__ZL68AssemblyCopyrightAttribute_t836190902_CustomAttributesCacheGeneratorP21CustomAttributesCache
Z6:__ZN11ColorRGBA328TransferI14SafeBinaryReadEEvRT_
Hch:_Collection_1_Add_m1736908447_gshared
pAc:_cff_vstore_done
aOg:__Z68RuntimeInvoker_Void_t1185182177_UInt16_t2177724958_SByte_t1669577662PFvvEPK10MethodInfoPvPS4_
jfb:__ZN15ResourceManager10Dependency8TransferI24GenerateTypeTreeTransferEEvRT_
Nhd:_MACTripleDES_HashFinal_m3613553534
Rfg:_UInt64_System_IConvertible_ToChar_m2074245892
z8f:_UTF8Encoding_InternalGetBytes_m1965760031
Jf:_emscripten_glClearDepth
U6b:__ZNK8GUILayer22GetTypeVirtualInternalEv
s5a:__ZN14SafeBinaryRead21TransferSTLStyleArrayINSt3__26vectorIN15QualitySettings14QualitySettingENS1_9allocatorIS4_EEEEEEvRT_17TransferMetaFlags
_fi:_UnityAction_1__ctor_m3007623985_gshared
SDi:__ZL25UnresolvedVirtualCall_151P12Il2CppObject39CustomAttributeNamedArgument_t287865710S1_PK10MethodInfo
NVg:__Z56RuntimeInvoker_Boolean_t97287965_ILTokenInfo_t2325775114PFvvEPK10MethodInfoPvPS4_
idb:__ZNSt3__26vectorINS_4pairIPKN5Unity4TypeE7Hash128EENS_9allocatorIS7_EEE8__appendEj
sAc:_cff_font_load
bhj:__GLOBAL__sub_I_LibraryLoader_cpp
Fcc:__Z13IsPathCreatedRKN4core12basic_stringIcNS_20StringStorageDefaultIcEEEE
wUh:__ZL99Dropdown_t2274391225_CustomAttributesCacheGenerator_Dropdown_DelayedDestroyDropdownList_m2082128994P21CustomAttributesCache
Cya:__ZL22stbir__encode_scanlineP11stbir__infoiPvPfiii
t4d:_ExternalException__ctor_m2877839282
kxc:__ZN20QuadTreeNodeRenderer13StaticDestroyEPv
oT:__ZN11UnityEngine15CloudWebService20WebRequestRestClient5AbortEv
ori:_Regex_Matches_m2080913806
Z3b:__ZN9Transform12CleanupClassEv
ywg:_Sprite_get_rect_m2575211689
jpg:_Mathf_Sin_m3411839043
yLc:_UNITY_FT_Set_Pixel_Sizes
$Rd:_OperatingSystem_Clone_m1122165140
r3h:_GameObject_AddComponent_TisRuntimeObject_m3469369570_gshared
dka:__ZNSt3__26vectorIN9ShaderLab19SerializedSubShaderENS_9allocatorIS2_EEE26__swap_out_circular_bufferERNS_14__split_bufferIS2_RS4_EE
dA:__ZN11UnityEngine9Animation33SetGenericTransformPropertyValuesERKNS0_30AnimatorGenericBindingConstantERKN7mecanim10ValueArrayEP9Transformy
kzh:__ZL59AttributeTargets_t1784037988_CustomAttributesCacheGeneratorP21CustomAttributesCache
$dh:_Collection_1_System_Collections_IList_get_Item_m3426129749_gshared
I6i:__ZN6il2cpp2vmL24thread_cleanup_on_cancelEPv
Y2g:_List_1_RemoveAll_m3165362277_gshared
Ucg:_Type_type_is_subtype_of_m1406623598
_8f:_Thread_get_CurrentThread_m4142136012
eWa:__Z30ProcessDynamicBatchGeometryJobP25DynamicVBOGeometryJobDataj
cPb:__ZNSt3__27__sort4IRNS_6__lessI11CulledLightS2_EEPS2_EEjT0_S6_S6_S6_T_
SWi:__ZN6il2cpp2vm14TypeNameParser26ParseArrayModifierOptionalEv
TZ:__Z26scripting_object_get_class18ScriptingObjectPtr
H7i:__ZN6il2cpp6icalls8mscorlib6System10Reflection8Assembly13get_code_baseEP24Il2CppReflectionAssemblyb
Vfb:__ZNSt3__26vectorIN4core12basic_stringIcNS1_20StringStorageDefaultIcEEEE13stl_allocatorIS5_L18MemLabelIdentifier13ELi16EEE7reserveEj
Cgd:_DSASignatureDeformatter__ctor_m2889130126
Lef:_X509ChainElementCollection_Clear_m2271223414
C3b:__ZNK28MonoBehaviourPropertyBinding15GenerateBindingERKN4core12basic_stringIcNS0_20StringStorageDefaultIcEEEEbRN11UnityEngine9Animation14GenericBindingE
dvg:_RectTransform_INTERNAL_set_pivot_m1160676233
U7g:_List_1_set_Item_m35836043_gshared
bXh:__ZL70ScrollRect_t4137855814_CustomAttributesCacheGenerator_m_OnValueChangedP21CustomAttributesCache
Cef:_X509ChainElementCollection__ctor_m3424079155
woi:_LinkStack_Push_m3081279930
Qxe:_Enumerator_MoveNext_m1107569389_gshared
aUi:__ZNSt3__26vectorIP9FieldInfoNS_9allocatorIS2_EEE26__swap_out_circular_bufferERNS_14__split_bufferIS2_RS4_EE
Nhi:_UnityEvent_3_GetDelegate_m1156357290_gshared
Lij:__ZN6il2cpp6icalls8mscorlib6System11Environment15internalGetHomeEv
Doe:_InternalEnumerator_1__ctor_m4200721464_gshared
Kpg:_Matrix4x4_GetHashCode_m4034747639_AdjustorThunk
w3d:_ResourceCacheItem_t51292791_marshal_pinvoke_cleanup
iX:__ZNK5Unity9Component7GetNameEv
EUi:__ZNSt3__214__split_bufferIN6il2cpp6icalls8mscorlib6System12PropertyPairERNS_9allocatorIS5_EEEC2EjjS8_
Qkf:_SymmetricAlgorithm_get_KeySize_m4185004893
X0g:_List_1_GetEnumerator_m232588170_gshared
fTe:_U3CDelayedSetDirtyU3Ec__Iterator0_Reset_m160466733
Ykg:_Native__cctor_m1435623442
j6g:_List_1_System_Collections_IList_Remove_m1070694895_gshared
Lvi:_LayoutCache__ctor_m3885940174
W5a:__ZN13ScreenManagerD0Ev
oJi:_AnimationMotionXToDeltaPlayable_GetHandle_m1319190040_AdjustorThunk
rB:__ZN7mecanim8skeleton26SkeletonPoseComputeGlobalQEPKNS0_8SkeletonEPKNS0_13SkeletonPoseTIN4math4trsXEEEPS7_ii
Qfg:_UInt64_System_IConvertible_ToByte_m1501504925_AdjustorThunk
nHi:_TextGenerator_Invalidate_m1072346986
Nde:_TlsClientHello_ProcessAsTls1_m2549285167
q$g:__Z74RuntimeInvoker_Boolean_t97287965_UIVertex_t4057497605_UIVertex_t4057497605PFvvEPK10MethodInfoPvPS4_
K8h:_ReadOnlyCollection_1_System_Collections_IList_Clear_m3591436538_gshared
GXe:_ScrollRect_set_decelerationRate_m723367336
TA:__ZN9BlobWrite8TransferI22OffsetPtrArrayTransferIiEEEvRT_PKc17TransferMetaFlags
Dsf:_EncoderExceptionFallback_Equals_m2760188920
Psb:__Z18Transfer_BlittableI17RemapPPtrTransferLb1EjEvRK29SerializationCommandArgumentsR31RuntimeSerializationCommandInfo
Zhf:_RIPEMD160Managed_HashCore_m2350629432
VJ:__ZN4FMOD6System7releaseEv
zwb:__Z18Transfer_BlittableI19StreamedBinaryWriteILb0EELb1E8BitFieldEvRK29SerializationCommandArgumentsR31RuntimeSerializationCommandInfo
Xpd:_Boolean_CompareTo_m3665076258
Tpf:_String_Split_m3580120853
L5e:_PrivateKeyInfo__ctor_m2811023496
T0:__Z18PathToAbsolutePathRKN4core12basic_stringIcNS_20StringStorageDefaultIcEEEE
ZZd:_PropertyBuilder_GetCustomAttributes_m2917594003
Gwi:_GUILayoutUtility_LayoutFromEditorWindow_m2914699782
D5d:_BigInteger_SetBit_m1723423691
xUg:__Z78RuntimeInvoker_RuntimeObject_ObjectU26_t2146539884_RuntimeObject_RuntimeObjectPFvvEPK10MethodInfoPvPS4_
coh:__ZL65X509ExtensionCollection_t609554708_CustomAttributesCacheGeneratorP21CustomAttributesCache
eya:__ZL13BlitImageImplR14ImageReferenceiiRKS_NS_10ColorSpaceENS_8BlitModeEb
v8b:__ZN15DirectorManager17AcquireOutputNodeEv
nAa:__ZN6prcoreL17RemapGenericFloatI18TexFormatRGBAFloat17TexFormatRGBFloatEEvPKNS_9InnerInfoE
u3h:_GameObject_GetComponentInChildren_TisRuntimeObject_m1310240902_gshared
yLh:__ZL69PersistentCall_t3407714124_CustomAttributesCacheGenerator_m_ArgumentsP21CustomAttributesCache
aHa:__ZN16GeometryJobTasks20ScheduleGeometryJobsER9GfxDevicePFvP15GeometryJobDataEPK22GeometryJobInstructionjb
$de:_TlsServerCertificateRequest_ProcessAsSsl3_m1084200341
_H:__ZN12AudioManager29ShutdownReinitializeAndReloadEv
hYa:__ZN16ReflectionProbes28GetMinBakedCubemapResolutionEv
M9a:__ZN14BlendShapeData8TransferI14SafeBinaryReadEEvRT_
Mze:_Enumerator__ctor_m1849900510_gshared
Ujj:__GLOBAL__sub_I_String_cpp
YKi:__ZN15dense_hashtableINSt3__24pairIK10KeyWrapperIPK22Il2CppGenericParameterEP11Il2CppClassEES6_N6il2cpp5utils11PointerHashIS4_EEN14dense_hash_mapIS6_S9_SE_NS6_14EqualsComparerINS0_8equal_toIS5_EEEENS0_9allocatorISA_EEE9SelectKeyESJ_SL_E6insertERKSA_
fRe:_InputField_GenerateCaret_m1459647218
ZJh:__ZL101SpriteAtlasManager_t3158462485_CustomAttributesCacheGenerator_SpriteAtlasManager_Register_m2413332465P21CustomAttributesCache
_li:_X509CertificateEnumerator__ctor_m85694331
$ta:__ZN14DataBufferGLES16RecreateWithDataEjPKv
N2:__Z29GetGlobalAllowNameConversionsv
tPf:_Array_InternalArray__Insert_TisTableRange_t3332867892_m558285859_gshared
YYb:__ZN8Material8SetColorEN9ShaderLab16FastPropertyNameERK10ColorRGBAf
dSh:__ZL77ExecuteEvents_t3484638744_CustomAttributesCacheGenerator_U3CU3Ef__mgU24cacheFP21CustomAttributesCache
U1f:_Enumerator_System_Collections_IEnumerator_Reset_m3754523291_gshared
lHj:_glUniform3uiv__wrapper
vzh:__ZL77Convert_t2465617642_CustomAttributesCacheGenerator_Convert_ToByte_m2375887898P21CustomAttributesCache
TL:__ZN11AudioSource23VirtualRedirectTransferER18StreamedBinaryReadILb0EE
ctg:_RangeInt_get_end_m4128831787
Vba:__ZN21AssetReferenceStorageC2Ev
Cfi:_InvokableCall_1_Find_m1741895083_gshared
exb:__ZN10RectOffset8TransferI19StreamedBinaryWriteILb0EEEEvRT_
Ezj:dynCall_iiifiii
a$:__ZL41AssemblyNameMatchesWithOrWithoutExtensionPKcS0_
b5g:_List_1_set_Item_m2082115010_gshared
G5f:_Encoding_GetBytes_m3735967069
Ind:_Array_Initialize_m3004991267
BDa:__ZN14GfxContextGLES43AddRenderSurfaceToDeferredFBOInvalidateListEPK17RenderSurfaceGLES
h8i:__ZN6il2cpp6icalls8mscorlib6System9Threading6Thread15Thread_internalEP12Il2CppThreadP14Il2CppDelegate
roa:__ZN11NamedObject23VirtualRedirectTransferER14SafeBinaryRead
d$e:_Text_get_resizeTextMinSize_m1002355407
nLc:__ZNSt3__26vectorIN20TextRenderingPrivate8FontImpl13CharacterInfoE13stl_allocatorIS3_L18MemLabelIdentifier1ELi16EEE6insertENS_11__wrap_iterIPKS3_EERS9_
mLa:__ZN23PreloadManagerOperation6IsDoneEv
H1g:_List_1_GrowIfNeeded_m3796726_gshared
q_i:__ZNK15dense_hashtableINSt3__24pairIK10KeyWrapperINS1_IPK10MethodInfoP11Il2CppClassEEEjEES9_17ReflectionMapHashIS8_EN14dense_hash_mapIS9_jSD_NS9_14EqualsComparerINS0_8equal_toIS8_EEEENS0_9allocatorISB_EEE9SelectKeyESI_SK_E8min_sizeEjj
kkj:__ZN6il2cpp5utils11StringUtils11Utf16ToUtf8ERKNSt3__212basic_stringIDsNS2_11char_traitsIDsEENS2_9allocatorIDsEEEE
b8d:_MD4Managed_Decode_m4273685594
bKg:__Z50RuntimeInvoker_Int64_t3736567304_Int16_t2552820387PFvvEPK10MethodInfoPvPS4_
Chb:__ZN21LightProbeProxyVolume18HasHardwareSupportEv
bSb:__ZN26LightProbeProxyVolumeCacheC2ER13BatchRendererR15RenderLoopStats
Sya:__ZN6prcoreL31inner_stretch_argb8888_bilinearEPKNS_9InnerInfoE
Byb:__Z18Transfer_BlittableI18StreamedBinaryReadILb1EELb1E8BitFieldEvRK29SerializationCommandArgumentsR31RuntimeSerializationCommandInfo
H5:__ZNK4PPtrI11LightProbesEcvPS0_Ev
REc:_UNITY_FT_Outline_Decompose
$Fd:_Int64_System_IConvertible_ToChar_m1509243576_AdjustorThunk
kli:_GeneralNames_get_IPAddresses_m4242915644
dzf:_Decimal_op_Implicit_m3873897383
Z$f:_Enumerator_Dispose_m3500272053_AdjustorThunk
Moj:_GC_init_size_map
jTa:__Z20scripting_object_new17ScriptingClassPtr
omh:__ZL69RuntimeArray_CustomAttributesCacheGenerator_Array_Reverse_m3714848183P21CustomAttributesCache
Y5e:_KeyGeneratedEventHandler_Invoke_m2527485594
xcf:_X509Extension_set_Critical_m1180944253
sZi:__ZN24dense_hashtable_iteratorINSt3__24pairIK10KeyWrapperINS1_IPK9FieldInfoP11Il2CppClassEEEjEES9_17ReflectionMapHashIS8_EN14dense_hash_mapIS9_jSD_NS9_14EqualsComparerINS0_8equal_toIS8_EEEENS0_9allocatorISB_EEE9SelectKeyESI_SK_E30advance_past_empty_and_deletedEv
nti:_Repetition_get_Expression_m2673886232
lxf:_Decimal__ctor_m1925875020_AdjustorThunk
JNe:_SerializationCallbacks__ctor_m3863304525
tLa:__ZN23PreloadManagerOperation21MustCompleteNextFrameEv
wvh:__ZL59SerializationInfo_t950877179_CustomAttributesCacheGeneratorP21CustomAttributesCache
P:Math_exp
ojg:_Vector3_Min_m1803158933
Do:FUNCTION_TABLE_iiifi
ggj:__ZN6il2cpp2os5posix13PosixAutoLockD2Ev
rki:_TlsServerSettings_set_CertificateTypes_m2047242411
Mxi:_SymmetricTransform_OFB_m3690147804
lse:_InternalEnumerator_1_MoveNext_m3713722659_AdjustorThunk
Pxc:_cff_get_advances
jEb:__ZN13MonoBehaviour9SetScriptERK4PPtrI10MonoScriptE18ScriptingObjectPtr
JWi:_RaycastHit2D_get_collider_m1549426026
Yrb:__Z18Transfer_BlittableI17RemapPPtrTransferLb0E8Vector2fEvRK29SerializationCommandArgumentsR31RuntimeSerializationCommandInfo
hbj:__ZNSt3__218uninitialized_copyIPNS_4pairIK10KeyWrapperIP14Il2CppIUnknownEjEES8_EET0_T_SA_S9_
$Yg:__Z77RuntimeInvoker_Void_t1185182177_Vector2U5BU5DU26_t476646542_Int32_t2950945753PFvvEPK10MethodInfoPvPS4_
m7e:_PKCS12_get_RNG_m2649456600
EMa:__ZNK10FileSystem16LastErrorMessageEv
wQf:_Array_InternalArray__Insert_TisVector3_t3722313464_m3862657277_gshared
jKh:__ZL104NativeClassAttribute_t2601352714_CustomAttributesCacheGenerator_U3CQualifiedNativeNameU3Ek__BackingFieldP21CustomAttributesCache
cnf:_SecurityException__ctor_m1631242336
ZMi:__ZN15dense_hashtableINSt3__24pairIK10KeyWrapperIPK11Il2CppClassEPKcEES6_N6il2cpp5utils11PointerHashIS3_EEN14dense_hash_mapIS6_S9_SE_NS6_14EqualsComparerINS0_8equal_toIS5_EEEENS0_9allocatorISA_EEE9SelectKeyESJ_SL_E14squash_deletedEv
d$c:_EventSystem_Update_m1662072334
LYc:__ZN22UnityWebRequestManager10InitializeEv
ADb:__ZN13MonoBehaviour13AwakeFromLoadE17AwakeFromLoadMode
Tph:__ZL51FileMode_t1183438340_CustomAttributesCacheGeneratorP21CustomAttributesCache
Isb:__ZL26Transfer_SimpleNativeClassI17RemapPPtrTransfer8GradientLb1EEvRK29SerializationCommandArgumentsR31RuntimeSerializationCommandInfo
H_c:_RaycasterManager_RemoveRaycasters_m3057093063
G9b:__ZN12CachedWriter9InitWriteER15CacheWriterBase
k8b:__Z21UnsignedInt64ToStringy
SVe:_GetRaycastNonAllocCallback_BeginInvoke_m3984885848
Tme:_InternalEnumerator_1_MoveNext_m4138204635_AdjustorThunk
ypi:_PatternCompiler_BeginLink_m1295557963
JRa:__ZN14SafeBinaryRead21TransferSTLStyleArrayI13dynamic_arrayI17SortingLayerEntryLj4EEEEvRT_17TransferMetaFlags
lwh:__ZL46MD5_t3177620429_CustomAttributesCacheGeneratorP21CustomAttributesCache
yCd:_GuidParser_ThrowFormatException_m3223388534
Nsi:_Group_GetAnchorInfo_m3730312864
ZUh:__ZL50Graphic_t1660335611_CustomAttributesCacheGeneratorP21CustomAttributesCache
lcg:_TimeSpan_op_LessThanOrEqual_m300470010
rHe:_ContextAttribute_Freeze_m3288175579
Ihf:_Interval_Merge_m3454211016_AdjustorThunk
Qda:__ZZN15DirectorManager15InitializeClassEvEN41FixedUpdateDirectorFixedUpdateRegistrator7ForwardEv
VKd:_MemoryStream_get_Position_m3733941202
rHh:__ZL96TouchScreenKeyboard_t731888065_CustomAttributesCacheGenerator_TouchScreenKeyboard_Open_m43950298P21CustomAttributesCache
Czi:_AudioClipPlayable_Equals_m3705880618
t0b:__ZL10KeyHandleriPK23EmscriptenKeyboardEventPv
Exd:_Slot_t3975888750_marshal_pinvoke
zIj:_glLinkProgram__wrapper
ykb:__ZN18ScriptingArguments8AddInt64Ex
Aza:__ZN6prcoreL12RemapGenericI17TexFormatARGB888815TexFormatBGR888EEvPKNS_9InnerInfoE
dlb:__ZN12HandlerChain4LockER13FileEntryData12FileLockMode
UFf:_TextInfo_get_ListSeparator_m1628160079
WRh:__ZL77ExecuteEvents_t3484638744_CustomAttributesCacheGenerator_U3CU3Ef__mgU24cache6P21CustomAttributesCache
yZe:_Selectable_OnCanvasGroupChanged_m472903475
h9f:_EventWaitHandle_Reset_m3348053200
fAe:_Enumerator_get_Current_m2897627569_gshared
xWc:__ZN28UnityConnectScriptingClasses23CallSessionStateChangedEixxbP21ScriptingExceptionPtr
nbe:_ClientContext_get_SslStream_m1583577309
Baj:__ZN6il2cpp6icalls8mscorlib6System13Globalization11CultureInfo35construct_internal_locale_from_nameEP17Il2CppCultureInfoP12Il2CppString
Qub:__ZL22Transfer_ManagedObjectI24GenerateTypeTreeTransferLb1EEvRK29SerializationCommandArgumentsR31RuntimeSerializationCommandInfo
MBg:__Z100RuntimeInvoker_Boolean_t97287965_RuntimeObject_Int32_t2950945753_RuntimeObject_UInt16U26_t2814738322PFvvEPK10MethodInfoPvPS4_
vZg:__Z56RuntimeInvoker_ILTokenInfo_t2325775114_Int32_t2950945753PFvvEPK10MethodInfoPvPS4_
Ygd:_HMAC_get_BlockSizeValue_m455678067
IMb:__ZN15RenderNodeQueueC2E10MemLabelId
s3d:_ResourceEnumerator_FillCache_m1661715061
M8h:_ReadOnlyCollection_1_System_Collections_IList_IndexOf_m3664838805_gshared
xxh:__ZL72SecuritySafeCriticalAttribute_t3505979402_CustomAttributesCacheGeneratorP21CustomAttributesCache
Zj:_emscripten_set_main_loop_timing
cjg:_Bounds_get_min_m3755135869
PBd:_Convert_ToUInt16_m3523269149
Qig:_Bounds_get_center_m1418449258
vva:__ZN14DataBufferGLES12RecordRenderEv
c0c:_ExecuteEvents_get_endDragHandler_m2879610446
FYb:__ZN14ImageReference10FlipImageYEv
HVi:_UsedByNativeCodeAttribute__ctor_m2647015777
ASa:__Z32TransferEnumWithNameForceIntSizeI14SafeBinaryRead13TargetEyeMaskEvRT_RT0_PKc17TransferMetaFlags
nnc:__Z14GetDefaultSkini
kF:__ZN4FMOD3DSP9setBypassEb
l0b:__Z19NormalizeWheelInputf
kad:_Graphic_DoMeshGeneration_m3548487693
i$b:__Z29StdTemplateConversionFunctionIsaEbPvR14SafeBinaryRead
sy:__ZNK4PPtrI13MonoBehaviourEcvPS0_Ev
Mqi:_Repetition__ctor_m1672362629
mwc:__Z29Transfer_Blittable_ArrayFieldI8JSONReadhEvRT_R9ArrayInfoRK23StaticTransferFieldInfo
fof:_SecurityFrame_ToString_m339310712_AdjustorThunk
q_d:_TypeBuilder_create_runtime_class_m2581270900
Xke:_InternalEnumerator_1_get_Current_m3008260692_gshared
ktj:__ZN6il2cpp2os20ThreadLocalValueImpl8SetValueEPv
NTa:__ZN22RenderingCommandBuffer20CleanupCommandBufferEv
fzf:_Decimal_op_Implicit_m2299919277
brc:__Z18Transfer_BlittableI9JSONWriteLb1EtEvRK29SerializationCommandArgumentsR31RuntimeSerializationCommandInfo
RNd:_UnexceptionalStreamReader_ReadToEnd_m920589220
Htf:_DateTime_System_IConvertible_ToType_m1242864300
qqf:_String_IndexOf_m1298810678
rk:___syscall85
LOh:__ZL85GUI_t1624858472_CustomAttributesCacheGenerator_GUI_set_nextScrollStepTime_m1026410471P21CustomAttributesCache
L3h:_Mesh_GetAllocArrayFromChannel_TisVector3_t3722313464_m2332439905_gshared
LEi:__ZL25UnresolvedVirtualCall_198P12Il2CppObjectfPK10MethodInfo
NMb:__ZNSt3__26__sortIRPFbP10GUIElementS2_EPS2_EEvT0_S7_T_
_6b:__ZN16GraphicsSettings12CleanupClassEv
mVd:_ConstructorBuilder_GetILGenerator_m1750792206
e5f:_EncoderFallback_get_ReplacementFallback_m818398284
Zgj:__ZN6il2cpp2os6Thread19DetachCurrentThreadEv
y$c:_EventTrigger_OnBeginDrag_m4203438710
sLi:__ZN6il2cpp2vmL21SetupInterfacesLockedEP11Il2CppClassRKNS_2os12FastAutoLockE
A5e:_PKCS1_Sign_v15_m2719206817
Z0h:_Dictionary_2_Do_CopyTo_TisRuntimeObject_TisRuntimeObject_m2344529027_gshared
rz:__ZN23AnimationPlayableOutput17SetSourcePlayableEP8Playable
Aij:__ZN6il2cpp2gc16GarbageCollector22MakeDescriptorForArrayEv
s_g:__Z37RuntimeInvoker_UILineInfo_t4195266810PFvvEPK10MethodInfoPvPS4_
clg:_CullingGroup_Dispose_m782801025
$Sf:_Dictionary_2_System_Collections_IDictionary_GetEnumerator_m529247385_gshared
oS:__ZN11UnityEngine15CloudWebService14DataDispatcher15SetupWebRequestEv
ZTc:__ZN11UnityEngine15PlatformWrapper13GetShaderCapsEv
nUb:__ZNSt3__211__sift_downIR26RenderDeferredObjectSorterP16RenderObjectDataEEvT0_S5_T_NS_15iterator_traitsIS5_E15difference_typeES5_
ZXd:_GenericTypeParameterBuilder_IsDefined_m98179866
V4e:_KeyPairPersistence_get_MachinePath_m3812267291
Xyd:_Stack_Peek_m2216191248
cji:_ListPool_1_U3Cs_ListPoolU3Em__0_m657844629_gshared
utf:_DateTime_System_IConvertible_ToDecimal_m1044850612_AdjustorThunk
I7b:__ZN21FixedBehaviourManager6UpdateEv
tcc:__ZN9Transform9SetParentEPS_NS_15SetParentOptionE
L4:__ZN19ShaderPropertySheet8SetFloatEN9ShaderLab16FastPropertyNameEfNS_8SetFlagsE
tgb:__ZN19RuntimeSceneManager24BeginIntegrateMainThreadEP10UnityScene
Tde:_TlsServerCertificate_ProcessAsSsl3_m1306583193
Jhj:__ZNSt3__2plIcNS_11char_traitsIcEENS_9allocatorIcEEEENS_12basic_stringIT_T0_T1_EERKS9_S6_
SMd:_StringReader_CheckObjectDisposedException_m3796163530
Gja:__ZN9ShaderLab20SerializedSubProgramaSERKS0_
ezj:_roundf
rDe:_Dictionary_2_pick_value_m4268517353_gshared
Pqd:_Byte_System_IConvertible_ToSingle_m324484566_AdjustorThunk
Syf:_Decimal_op_Explicit_m2848387298
D_f:_KeyValuePair_2_ToString_m1238786018_gshared
Xs:__ZN8Animator15SetPrepareStageEv
LE:__ZN8AnimatorC2E10MemLabelId18ObjectCreationMode
tLi:__ZN6il2cpp2vmL24SetupTypeHierarchyLockedEP11Il2CppClassRKNS_2os12FastAutoLockE
u0b:__ZL11TextHandleriPK23EmscriptenKeyboardEventPv
PKe:_SoapFieldAttribute_get_XmlElementName_m2203304026
KKc:_destroy_face
MEj:_glBlendEquationSeparate__wrapper
Awc:__ZN5physx19PxAllocatorCallbackD2Ev
gqj:__ZN6il2cpp6icalls8mscorlib6System8Security12Cryptography24RNGCryptoServiceProvider13RngInitializeEP11Il2CppArray
VEh:__ZL68UsedByNativeCodeAttribute_t1703770351_CustomAttributesCacheGeneratorP21CustomAttributesCache
aM:__ZN20SoundChannelInstance7setMuteEb
TBg:__Z81RuntimeInvoker_Void_t1185182177_RuntimeObject_Int32_t2950945753_Int32_t2950945753PFvvEPK10MethodInfoPvPS4_
fYa:__ZN4PPtrI5LightE8TransferI19StreamedBinaryWriteILb0EEEEvRT_
q1g:_List_1__cctor_m972674764_gshared
BRd:_NumberFormatter_NumberToString_m3906556024
Azb:__Z19TransferField_ArrayI18StreamedBinaryReadILb1EE27Converter_SimpleNativeClassI17AnimationCurveTplIfEEEvRK23StaticTransferFieldInfoR31RuntimeSerializationCommandInfoRT0_
_va:__ZN18GfxFramebufferGLES22MakeCurrentFramebufferENS_7BuiltinE
ulj:__ZN6il2cpp2vm12MarshalAlloc4FreeEPv
j7:__ZN12CachedReader4ReadEPvj
W2d:_TypeFilter_EndInvoke_m998903841
N2c:_StandaloneInputModule_ProcessMouseEvent_m2923582521
hTf:_KeyValuePair_2__ctor_m1794021352_gshared
D1e:_SimpleCollator_MatchesForwardCore_m850743967
bRb:__Z24CalculateLightShadowFadeRK6CamerafffR8Vector4f
yaa:__ZN19RuntimeSceneManagerD2Ev
PLh:__ZL77DeallocateOnJobCompletionAttribute_t3131681843_CustomAttributesCacheGeneratorP21CustomAttributesCache
nma:__ZN13dynamic_arrayIPN9ShaderLab4PassELj4EE9push_backERKS2_
kDf:_CCGregorianCalendar_GetMonth_m1547203696
ET:__ZN11UnityEngine15CloudWebService25WebRequestDownloadHandler17OnCompleteContentEv
Rya:__ZN6prcore17GetIntegerBlitterE13TextureFormatS0_N14ImageReference8BlitModeE
loj:_GC_print_block_descr
J_i:__ZN6il2cpp2gc19AppendOnlyGCHashMapINSt3__24pairIPK11Il2CppImageP11Il2CppClassEEP22Il2CppReflectionModule17ReflectionMapHashIS9_ENS2_8equal_toIS9_EEE11TryGetValueERKS9_PSB_
Lph:__ZL51Directory_t828876208_CustomAttributesCacheGeneratorP21CustomAttributesCache
kod:_SimpleEnumerator_Reset_m2182001888
qWg:__Z86RuntimeInvoker_Int32_t2950945753_Vector2_t2156229523_Vector2_t2156229523_RuntimeObjectPFvvEPK10MethodInfoPvPS4_
pec:__ZN9BlobWrite14ReduceCopyImplERK14ReduceCopyDataj
_8:__ZNSt3__26__treeI19RepeatingLogMessageNS_4lessIS1_EE13stl_allocatorIS1_L18MemLabelIdentifier73ELi16EEE12__find_equalIS1_EERPNS_16__tree_node_baseIPvEESD_RKT_
MP:__ZN11AudioSource18IsPlayingScriptingEv
N4e:_KeyBuilder_IV_m2230195376
CDj:_glShaderSource__wrapper
wOa:__ZN25MultiBlocksMemoryFileData17AdjustBlocksCountEj
T7i:__ZNSt3__214__split_bufferIN6il2cpp2vm22EmbeddedResourceRecordERNS_9allocatorIS3_EEED2Ev
dJc:__ZN13TextRendering4Font8TransferI24GenerateTypeTreeTransferEEvRT_
Xra:__ZN9GfxDevice15EndProfileEventEPN9profiling6MarkerE
Ifc:__Z27CullingGroup_CUSTOM_DisposeP12Il2CppObject
B7i:__ZN6il2cpp6icalls8mscorlib6SystemL23CheckWideningConversionEjjj
XWc:__ZNSt3__26vectorIP19BaseConnectSettings13stl_allocatorIS2_L18MemLabelIdentifier6ELi16EEE21__push_back_slow_pathIKS2_EEvRT_
sMb:__ZN13ComputeShader15SetTextureParamEjRKN9ShaderLab16FastPropertyNameE9TextureID16TextureDimension
Bue:_Comparer_1__ctor_m319670016_gshared
zm:_glStencilMask
xhj:__ZN6il2cpp2os10ThreadImpl16GetCurrentThreadEv
a1d:_MonoMethod_GetBaseDefinition_m2844667474
n0b:__ZN15GUIEventManager10QueueEventERK10InputEvent
Zbh:_Collection_1_Clear_m1300437781_gshared
uih:_Collection_1_Contains_m1707523067_gshared
b4d:_DecimalConstantAttribute__ctor_m3583301917
Ieh:_Collection_1_System_Collections_ICollection_get_IsSynchronized_m1640823718_gshared
Nnj:_GC_push_conditional_with_exclusions
lwe:_Enumerator_System_Collections_IDictionaryEnumerator_get_Entry_m2772123357_AdjustorThunk
BJe:_MethodCallDictionary__ctor_m2167303393
SB:__ZN12_GLOBAL__N_121ProcessAnimationBeginER35AnimationPlayableEvaluationConstantR32AnimationPlayableEvaluationInputR33AnimationPlayableEvaluationOutput
Hzh:__ZL80Convert_t2465617642_CustomAttributesCacheGenerator_Convert_ToDecimal_m2858622624P21CustomAttributesCache
rnj:_GC_make_disappearing_links_disappear
jwj:_strrchr
Gkg:_Component_GetComponentInParent_m779177818
zFe:__ZN21InterfaceFuncInvoker1IP8String_tS1_E6InvokeEjP11Il2CppClassP12Il2CppObjectS1_
fRf:_Dictionary_2_System_Collections_ICollection_get_SyncRoot_m2069913662_gshared
n3c:_UIBehaviour_IsDestroyed_m3033055982
MMg:__Z109RuntimeInvoker_Void_t1185182177_RuntimeObject_RuntimeObject_SByte_t1669577662_Int32_t2950945753_RuntimeObjectPFvvEPK10MethodInfoPvPS4_
vyg:_Enumerator_Reset_m39541243
GPe:_InputField_get_readOnly_m3111985574
sYa:__ZN14RenderSettings27UpdateIndirectSpecularColorEv
Kog:_Logger_get_logHandler_m1335645353
jeb:__ZN14PlayerSettings8TransferI18StreamedBinaryReadILb0EEEEvRT_
kUi:__ZN6il2cpp6icalls8mscorlib6System8MonoType16GetMethodsByNameEP20Il2CppReflectionTypeP12Il2CppStringibS5_
Nuh:__ZL73ObjRef_t2141158884_CustomAttributesCacheGenerator_U3CU3Ef__switchU24map26P21CustomAttributesCache
USh:__ZL102PointerEventData_t3807901092_CustomAttributesCacheGenerator_PointerEventData_set_pointerId_m1888344330P21CustomAttributesCache
UNh:__ZL88AudioClip_t3680889665_CustomAttributesCacheGenerator_AudioClip_get_ambisonic_m3815052287P21CustomAttributesCache
aTe:_U3CDelayedSetDirtyU3Ec__Iterator0__ctor_m3936335621
P5:__ZN4PPtrI10GameObjectE8TransferI14SafeBinaryReadEEvRT_
dMh:__ZL106PlayableAsset_t3219022681_CustomAttributesCacheGenerator_PlayableAsset_Internal_CreatePlayable_m2550417712P21CustomAttributesCache
A9f:_Monitor_Monitor_wait_m3706677354
Jid:_RijndaelTransform__cctor_m2439033240
KIb:__ZNSt3__27__sort3IRNS_4lessIN22BuiltinResourceManager8ResourceEEEPS3_EEjT0_S7_S7_T_
Rmh:__ZL175U3CGetEnumeratorU3Ec__Iterator0_t1202911786_CustomAttributesCacheGenerator_U3CGetEnumeratorU3Ec__Iterator0_System_Collections_Generic_IEnumeratorU3CTU3E_get_Current_m322251035P21CustomAttributesCache
pBi:__ZL24UnresolvedVirtualCall_14P12Il2CppObject25RSAParameters_t1728406613PK10MethodInfo
AHc:_ps_hints_t2mask
c2h:_LayoutGroup_SetProperty_TisVector2_t2156229523_m2721164497_gshared
CIf:_Array_InternalArray__ICollection_Remove_TisMonoResource_t4103430009_m238733686_gshared
nHd:_IntPtr_ToString_m1831665121
t_e:_Slider_Set_m1476104429
Ybd:_Image_set_fillClockwise_m2210525152
Uab:__ZN10BlendShape8TransferI19StreamedBinaryWriteILb0EEEEvRT_
QF:__Z32TransferEnumWithNameForceIntSizeI14SafeBinaryReadN10SampleClip8LoadTypeEEvRT_RT0_PKc17TransferMetaFlags
eHd:__Z21il2cpp_codegen_sizeofP11Il2CppClass
KCa:__Z19GetTimeSinceStartupv
wcd:_Image_AddQuad_m2161647989
t_c:_BaseInputModule_DeactivateModule_m856719157
nhj:__ZN6il2cpp2os10ThreadImpl11SetPriorityENS0_14ThreadPriorityE
I1f:_Enumerator_System_Collections_IEnumerator_Reset_m2953002685_gshared
KDg:__Z50RuntimeInvoker_Int64_t3736567304_Int32_t2950945753PFvvEPK10MethodInfoPvPS4_
WGc:_TT_Load_Composite_Glyph
_ra:__ZN9GfxDevice16DeleteTimerQueryEP13GfxTimerQuery
D8g:_List_1_Insert_m1695211546_gshared
FRg:__Z49RuntimeInvoker_Void_t1185182177_Color_t2555686324PFvvEPK10MethodInfoPvPS4_
f$a:__ZN9ShaderLab11shaderprops9GetTexEnvEPK19ShaderPropertySheetS3_NS_16FastPropertyNameE16TextureDimensionb
$2g:_List_1_Sort_m3232912161_gshared
vPb:__ZN29RenderNodeQueuePrepareContextC2Ev
g4i:_il2cpp_gc_disable
Ska:__ZN9ShaderLab20SerializedSubProgram16TextureParameter8TransferI24GenerateTypeTreeTransferEEvRT_
Egd:_DSASignatureDeformatter_SetKey_m2999549245
Gqj:__ZN6il2cpp2os11MutexHandle4WaitEb
jpa:__ZN9GfxDevice19SaveStereoConstantsEv
Fqj:__ZN6il2cpp2os11MutexHandle4WaitEj
fdc:__ZL34GetComponentsImplementationRecurseILb1ELi1ELi1EEbR10GameObjectbRK17CompareParametersRK39GetComponentsImplementation_ReturnValue
UEg:__Z114RuntimeInvoker_Boolean_t97287965_RuntimeObject_RuntimeObject_Int32_t2950945753_Int32_t2950945753_Int32_t2950945753PFvvEPK10MethodInfoPvPS4_
EUd:_AssemblyBuilder_GetTypes_m3415680380
KAa:__ZN6prcoreL17RemapGenericFloatI15TexFormatRGHalf18TexFormatARGBFloatEEvPKNS_9InnerInfoE
Uzf:_StackFrame_GetMethod_m1395840764
FZa:__ZNK13RenderTexture13GetDataHeightEv
PGb:__Z18SimulateMouseInputi
JLb:__ZN13RenderManager23AddRemoveCamerasDelayedEv
gsc:__ZN9JSONWrite8TransferI13dynamic_arrayIdLj8EEEEvRT_PKc17TransferMetaFlags
oLa:__ZN23PreloadManagerOperation11GetPriorityEv
sSe:_LayoutElement_OnEnable_m1760066426
Ipc:__ZN5Unity9rapidjson6WriterI16TempBufferWriterNS0_4UTF8IcEES4_13JSONAllocatorE11WriteUint64Ey
Ood:_BitConverter__cctor_m3841343255
fyf:_Decimal_Compare_m3062820418
Phf:_IntervalCollection_GetMetaCollection_m4029522214
t$c:_EventTrigger_OnDeselect_m1919608102
fHi:_TextGenerator_get_characterCount_m864136654
sig:_AsyncOperation_t1445031843_marshal_pinvoke_cleanup
nbg:_TimeSpan__ctor_m2047388489_AdjustorThunk
rXb:__ZN13RenderTexture8SetWidthEi
N3b:__ZNK28RectTransformPropertyBinding12SetPPtrValueERKN11UnityEngine9Animation10BoundCurveEi
_Ib:__ZN18FrameTimingManager18GetVSyncsPerSecondEv
GAb:__Z18Transfer_BlittableI18StreamedBinaryReadILb0EELb0EfEvRK29SerializationCommandArgumentsR31RuntimeSerializationCommandInfo
ebb:__ZN10MeshFilterD0Ev
YGc:_UNITY_FT_GlyphLoader_CheckSubGlyphs
qke:_InternalEnumerator_1__ctor_m1341209356_AdjustorThunk
GRb:__Z25SetupObjectBakedOcclusionbRK15SharedLightDataRK26SharedLightmapSettingsDataRK15LightmapIndicesR17ShaderPassContext
ddh:_Collection_1_System_Collections_ICollection_CopyTo_m1516601228_gshared
geh:_Collection_1_CopyTo_m4278237485_gshared
kgh:_Collection_1_Add_m3860636938_gshared
gBi:__ZL23UnresolvedVirtualCall_5P12Il2CppObjectsPK10MethodInfo
zD:__ZN4PPtrI6AvatarE8TransferI19StreamedBinaryWriteILb0EEEEvRT_
L2f:_List_1_Insert_m4050947056_gshared
T4:__ZN9ShaderLab16FastPropertyName4InitEPKc
aoe:_InternalEnumerator_1__ctor_m39232262_AdjustorThunk
nOg:__Z48RuntimeInvoker_OperatingSystemFamily_t1868066375PFvvEPK10MethodInfoPvPS4_
Dyh:__ZL61Thread_t2300836069_CustomAttributesCacheGenerator_local_slotsP21CustomAttributesCache
X2b:__Z13RegisterClassIN2UI13RectTransformEEvv
W3h:_Collection_1_System_Collections_IEnumerable_GetEnumerator_m3596816767_gshared
s6b:__ZL31MeshRendererTransformChangedJobP13BoundsJobDatajPK23TransformAccessReadOnlyPKyj
Buc:__ZN8JSONRead21TransferSTLStyleArrayI31ArrayOfManagedObjectsTransfererEEvRT_17TransferMetaFlags
yrd:_Char_System_IConvertible_ToByte_m2347554595_AdjustorThunk
RKh:__ZL59TooltipAttribute_t3957072629_CustomAttributesCacheGeneratorP21CustomAttributesCache
k7a:__ZN10VertexData8TransferI17RemapPPtrTransferEEvRT_
gZa:__ZN13RenderTexture9SetMipMapEb
oNi:__ZN15dense_hashtableINSt3__24pairIK10KeyWrapperIPK11Il2CppClassEPKcEES6_N6il2cpp5utils11PointerHashIS3_EEN14dense_hash_mapIS6_S9_SE_NS6_14EqualsComparerINS0_8equal_toIS5_EEEENS0_9allocatorISA_EEE9SelectKeyESJ_SL_E13set_empty_keyERKSA_
srf:_String_CreateString_m860434552
kea:__Z18GetDirectorManagerv
bAe:_Enumerator_System_Collections_IEnumerator_Reset_m278261807_AdjustorThunk
Mch:_Collection_1_GetEnumerator_m1824095167_gshared
ush:__ZL107CriticalFinalizerObject_t701527852_CustomAttributesCacheGenerator_CriticalFinalizerObject__ctor_m3245424448P21CustomAttributesCache
HFd:_Int32_Equals_m2976157357_AdjustorThunk
Mjc:__Z38Transform_CUSTOM_INTERNAL_get_rotationP12Il2CppObjectP11Quaternionf
NKe:_SoapAttribute_get_XmlNamespace_m859394681
y_i:__ZNK15dense_hashtableINSt3__24pairIK10KeyWrapperINS1_IPK10MethodInfoP11Il2CppClassEEEjEES9_17ReflectionMapHashIS8_EN14dense_hash_mapIS9_jSD_NS9_14EqualsComparerINS0_8equal_toIS8_EEEENS0_9allocatorISB_EEE9SelectKeyESI_SK_E5beginEv
eoi:_X509ExtensionCollection_System_Collections_IEnumerable_GetEnumerator_m1475785462
aua:__ZN7ApiGLES19UploadBufferSubDataEjN2gl12BufferTargetEllPKv
SJi:_SkeletonBone_t4134054672_marshal_pinvoke_cleanup
wga:__ZNSt3__216__rotate_forwardINS_11__wrap_iterIPN4core12basic_stringIcNS2_20StringStorageDefaultIcEEEEEEEET_S9_S9_S9_
Tyg:_Vector2_GetHashCode_m3916089713
hca:__ZdaPv
gwg:_SendMouseEvents_HitTestLegacyGUI_m579942228
IQd:_MulticastDelegate_Equals_m2502840627
Rkf:_SymmetricAlgorithm_set_KeySize_m3805756466
Vqd:_Byte_System_IConvertible_ToUInt32_m1049546902_AdjustorThunk
Q3c:_U3CDelayUpdateU3Ec__Iterator0_System_Collections_IEnumerator_get_Current_m2906633870
QNg:__Z53RuntimeInvoker_Double_t594665363_Interval_t1802865632PFvvEPK10MethodInfoPvPS4_
VIb:__Z21InitializeBatchedJobsv
fIi:_CanvasGroup_get_blocksRaycasts_m1805542303
zjf:_SHA1Internal_ProcessBlock_m1991889327
Kpb:__Z19TransferField_ArrayI14SafeBinaryRead27Converter_SimpleNativeClassI8GUIStyleEEvRK23StaticTransferFieldInfoR31RuntimeSerializationCommandInfoRT0_
QKh:__ZL60PropertyAttribute_t3677895545_CustomAttributesCacheGeneratorP21CustomAttributesCache
Oaj:__ZN15dense_hashtableINSt3__24pairIK10KeyWrapperIP14Il2CppIUnknownEjEES5_N6il2cpp5utils11PointerHashIS3_EEN14dense_hash_mapIS5_jSB_NS5_14EqualsComparerINS0_8equal_toIS4_EEEENS0_9allocatorIS7_EEE9SelectKeyESG_SI_ED2Ev
E$h:_Array_Sort_TisRuntimeObject_TisRuntimeObject_m1685639929_gshared
pqj:__ZN6il2cpp5utils10MemoryPoolC2Ev
PXa:__ZN14RenderSettings5ResetEv
S1b:__ZN6Sprite9BindAtlasERK4PPtrI11SpriteAtlasE
Qoc:__ZN5Unity9rapidjson12GenericValueINS0_4UTF8IcEE13JSONAllocatorE10FindMemberIS4_EENS0_21GenericMemberIteratorILb0ES3_S4_EERKNS1_IS3_T_EE
Ioe:_InternalEnumerator_1_System_Collections_IEnumerator_get_Current_m3892960115_AdjustorThunk
A9i:__ZNSt3__212basic_stringIDsNS_11char_traitsIDsEENS_9allocatorIDsEEE6appendEPKDsj
Gxi:_SymmetricTransform_Finalize_m4129642865
vtd:_ArrayList_Clone_m2682741233
ihd:_HMAC_HashCore_m3684104066
opc:__ZN5Unity9rapidjson13GenericReaderINS0_4UTF8IcEES3_13JSONAllocatorE11ParseNumberILj1ENS0_25GenericInsituStringStreamIS3_EENS0_15GenericDocumentIS3_S4_S4_EEEEvRT0_RT1_
Wlh:__ZL88RuntimeArray_CustomAttributesCacheGenerator_Array_CreateInstance_m1027597705____lengths1P21CustomAttributesCache
Mfh:_Collection_1_RemoveItem_m2911050674_gshared
KBg:__Z79RuntimeInvoker_UInt16_t2177724958_RuntimeObject_Int32_t2950945753_RuntimeObjectPFvvEPK10MethodInfoPvPS4_
hhj:__ZN6il2cpp2os10ThreadImplD2Ev
TFf:_TextInfo_System_Runtime_Serialization_IDeserializationCallback_OnDeserialization_m1492046432
jqc:__ZN8Gradient8TransferI9JSONWriteEEvRT_
bhb:__ZN21RendererUpdateManager18OncePerFrameUpdateER13RendererScene
WAi:_AudioSource_set_clip_m31653938
mQh:__ZL81TextEditor_t2759855366_CustomAttributesCacheGenerator_TextEditor__ctor_m242049450P21CustomAttributesCache
szd:_Convert_ToBoolean_m2833621053
WKa:__ZNK12TLSAllocatorI14StackAllocatorE22GetAllocatedMemorySizeEv
ODh:__ZL62WebHeaderCollection_t1942268960_CustomAttributesCacheGeneratorP21CustomAttributesCache
b3:__ZN17RemapPPtrTransfer12PushMetaFlagE17TransferMetaFlags
dXf:_EqualityComparer_1_System_Collections_IEqualityComparer_GetHashCode_m2138064395_gshared
$M:__ZNK7WeakPtrI20SoundChannelInstanceE10SharedData9GetRawPtrEv
Qkb:__ZN12HandlerChain4NameEv
J6c:_FloatTween_t1274330004_marshal_pinvoke
eDd:_Int16_System_IConvertible_ToType_m3672347013_AdjustorThunk
Dqf:_String_LastIndexOf_m578673845
xrb:__Z29Transfer_Blittable_ArrayFieldI14SafeBinaryReadN4math12int3_storageEEvRT_R9ArrayInfoRK23StaticTransferFieldInfo
Rnf:_SecurityException_ToString_m3228070608
QEd:_Int16_ToString_m2013897809
ZWg:__Z60RuntimeInvoker_Int32_t2950945753_ResourceCacheItem_t51292791PFvvEPK10MethodInfoPvPS4_
Tnf:_String_Substring_m2848979100
DRc:__Z44Register_UnityEngine_CanvasRenderer_get_cullv
uKi:__ZN15dense_hashtableINSt3__24pairIK10KeyWrapperIPK22Il2CppGenericParameterEP11Il2CppClassEES6_N6il2cpp5utils11PointerHashIS4_EEN14dense_hash_mapIS6_S9_SE_NS6_14EqualsComparerINS0_8equal_toIS5_EEEENS0_9allocatorISA_EEE9SelectKeyESJ_SL_ED2Ev
x3h:_ScriptableObject_CreateInstance_TisRuntimeObject_m1552711675_gshared
Onf:_SecurityException_get_PermissionType_m2237538728
HCi:__ZL24UnresolvedVirtualCall_86P12Il2CppObjectxS0_xPK10MethodInfo
K$b:__Z29StdTemplateConversionFunctionIbbEbPvR14SafeBinaryRead
gTc:__ZN11UnityEngine7Connect17XRDeviceInfoEvent12XRDeviceInfoD2Ev
Mnb:__Z44InitializeTransferFunctionScriptingTraitsForI17RemapPPtrTransferEvR31TransferFunctionScriptingTraits
E3b:__ZNSt3__26vectorI16MessageForwarder13stl_allocatorIS1_L18MemLabelIdentifier7ELi8EEE6resizeEj
Zdf:_X509Chain_SelectBestFromCollection_m1068759221
Pxi:_SymmetricTransform_TransformBlock_m851059707
dlh:__ZL68IntPtr_t_CustomAttributesCacheGenerator_IntPtr_ToPointer_m4157623054P21CustomAttributesCache
e4h:_Collection_1_System_Collections_IList_get_IsReadOnly_m2978442176_gshared
$9g:_Enumerator_System_Collections_IEnumerator_Reset_m2261065994_AdjustorThunk
jYe:_ScrollRect_get_verticalNormalizedPosition_m3693218937
rgb:__ZN18LoadSceneOperation21MustCompleteNextFrameEv
v_e:_Slider_UpdateDrag_m1102107039
E1d:_MonoMethodInfo_get_method_info_m88651774
bM:__ZNK12AudioManager16GetAudioListenerEv
bFd:_Int32_System_IConvertible_ToDateTime_m1824716955
lRf:_Dictionary_2_System_Collections_Generic_ICollectionU3CSystem_Collections_Generic_KeyValuePairU3CTKeyU2CTValueU3EU3E_CopyTo_m331407443_gshared
Ydd:_RuntimeTypeHandle__ctor_m3315980708_AdjustorThunk
axh:__ZL69IIdentityPermissionFactory_t3268650966_CustomAttributesCacheGeneratorP21CustomAttributesCache
MHi:_Canvas_set_overrideSorting_m4088794420
YWb:__ZNSt3__26vectorI11CameraStackNS_9allocatorIS1_EEE8__appendEj
SUf:_DefaultComparer_Equals_m2585095694_gshared
Jog:_Logger_set_filterLogType_m3622751173
shi:_UnityEvent_1_GetDelegate_m25714567_gshared
su:__ZN7mecanim9animation12GetHumanPoseERKNS0_18ClipMuscleConstantEPKNS0_10ValueDeltaERNS_5human9HumanPoseE
iw:__ZN22AnimationMixerPlayable17ProcessRootMotionEP35AnimationPlayableEvaluationConstantP32AnimationPlayableEvaluationInputP33AnimationPlayableEvaluationOutput
jxb:__Z29Transfer_Blittable_ArrayFieldI19StreamedBinaryWriteILb0EEjEvRT_R9ArrayInfoRK23StaticTransferFieldInfo
Z0:__Z13GetFileSystemv
kba:__ZNK5Unity4Type21FindAllDerivedClassesER13dynamic_arrayIPKS0_Lj4EENS0_17TypeFilterOptionsE
dca:__ZN13RuntimeStaticI15GUIEventManagerLb0EE16StaticInitializeEPv
QBb:__ZL12InvokeMethodI18StreamedBinaryReadILb0EEEvRK29SerializationCommandArgumentsR31RuntimeSerializationCommandInfo
shg:_Version_CompareTo_m3146217210
wde:_TlsClientCertificate_FindParentCertificate_m3844441401
Dti:_Uri_ParseAsUnixAbsoluteFilePath_m1476768041
vOf:_Array_InternalArray__ICollection_CopyTo_TisKeyValuePair_2_t71524366_m1056941380_gshared
Hcg:_Type_get_IsClass_m589177581
Tcg:_Type_get_IsSystemType_m624798880
Qzb:__Z29Transfer_Blittable_ArrayFieldI18StreamedBinaryReadILb1EE5RectTIfEEvRT_R9ArrayInfoRK23StaticTransferFieldInfo
enb:__ZN19ShaderPropertySheet9SetMatrixEN9ShaderLab16FastPropertyNameERK10Matrix4x4fNS_8SetFlagsE
p3a:__Z29GetTextureSizeAllowedMultiple13TextureFormat
Zxf:_Decimal_Subtract_m835601464
qKb:__ZZ23InitPlayerLoopCallbacksvEN52InitializationAsyncUploadTimeSlicedUpdateRegistrator7ForwardEv
_Mg:__Z73RuntimeInvoker_Boolean_t97287965_RuntimeObject_IPv6AddressU26_t3285609463PFvvEPK10MethodInfoPvPS4_
Xfb:__ZNSt3__26vectorIN4core12basic_stringIcNS1_20StringStorageDefaultIcEEEE13stl_allocatorIS5_L18MemLabelIdentifier13ELi16EEE8__appendEj
Y7b:__ZN21IntermediateRenderers3AddEP20IntermediateRenderer
r3i:_il2cpp_array_element_size
JOd:_MissingMemberException__ctor_m2571045846
Mjh:__ZL62ComVisibleAttribute_t1362837655_CustomAttributesCacheGeneratorP21CustomAttributesCache
n3g:_List_1_System_Collections_IEnumerable_GetEnumerator_m1824431956_gshared
$ug:_RectTransform_INTERNAL_set_sizeDelta_m188783163
Wf:_glCheckFramebufferStatus
Mpj:__ZN6il2cpp2os11EventHandle4WaitEv
mhe:_U3CGetEnumeratorU3Ec__Iterator0_System_Collections_Generic_IEnumeratorU3CTU3E_get_Current_m9057020_gshared
SU:__ZN19CloudServiceHandler20StartEventDispatcherERKN11UnityEngine15CloudWebService18CloudServiceConfigERNS1_23WebRequestRestHeaderMapE
Kad:_GraphicRaycaster__ctor_m646559428
_9d:_CipherSuite_get_CipherAlgorithmType_m137858741
qvd:_BitArrayEnumerator_get_Current_m4220391712
XSd:__Z37il2cpp_codegen_get_executing_assemblyPK10MethodInfo
Avg:_Transform_get_parent_m835071599
Qbh:_Collection_1_System_Collections_IList_Remove_m3686118478_gshared
okb:__ZN9Transform23VirtualRedirectTransferER17RemapPPtrTransfer
daf:_IPAddress_get_ScopeId_m4237202723
vr:__ZN4core8hash_mapIN11UnityEngine9Animation14GenericBindingENS2_10BoundIndexENS2_25GenericBindingHashFunctorENS2_30GenericBindingValueArrayUniqueEE4growEi
Ft:__ZN21AnimationClipPlayable7SetTimeEd
Qqi:_ExpressionCollection_get_Item_m3510736379
RUh:__ZL62FontData_t746620069_CustomAttributesCacheGenerator_m_AlignmentP21CustomAttributesCache
m2c:_StandaloneInputModule_get_inputActionsPerSecond_m3946624274
E8f:_UTF8Encoding_InternalGetCharCount_m82458470
gzg:_Vector2__cctor_m2108982652
AQg:__Z72RuntimeInvoker_Boolean_t97287965_Vector4_t3319028937_Vector4_t3319028937PFvvEPK10MethodInfoPvPS4_
ur:__ZN4core8hash_mapIN11UnityEngine9Animation14GenericBindingENS2_10BoundIndexENS2_25GenericBindingHashFunctorENS2_30GenericBindingValueArrayUniqueEE4growEv
Jre:_InternalEnumerator_1_MoveNext_m2734554195_AdjustorThunk
Raj:__ZN14dense_hash_mapI10KeyWrapperIP14Il2CppIUnknownEjN6il2cpp5utils11PointerHashIS1_EENS3_14EqualsComparerINSt3__28equal_toIS2_EEEENS9_9allocatorINS9_4pairIKS3_jEEEEE15set_deleted_keyERSF_
xba:__ZN22BuiltinResourceManager16StaticInitializeEPv
N6i:__ZN6il2cpp2gc9AllocatorIP12Il2CppThreadE10deallocateEPvj
c1i:__ZN13Il2CppHashMapIPK14Il2CppAssemblyPK22Il2CppMonoAssemblyNameN6il2cpp5utils11PointerHashIS1_EENSt3__28equal_toIS2_EENSA_9allocatorINSA_4pairIK10KeyWrapperIS2_ES5_EEEEEC2EjRKS9_RKSC_
Vld:_DelegatePInvokeWrapper_AppDomainInitializer_t682969308
e0:__ZN8Remapper6RemoveEi
Ugi:_UnityEvent_1__ctor_m3777630589_gshared
YOa:__ZN10MemoryFile4ReadEyPvPy
F5f:_Encoding_GetBytes_m3148649984
uLc:__ZL36CleanupTextRenderingScriptingClassesv
oXb:__ZN15ReflectionProbe17UseRendererResultEP13ProbeRenderer
$kc:__Z34Mesh_CUSTOM_SetArrayForChannelImplP12Il2CppObject30InternalScriptingShaderChannel34InternalScriptingVertexChannelTypeiP11Il2CppArrayi
X_:__Z32scripting_class_get_nested_types17ScriptingClassPtrRNSt3__26vectorIS_13stl_allocatorIS_L18MemLabelIdentifier1ELi16EEEE
nIi:_CanvasRenderer_INTERNAL_CALL_EnableRectClipping_m3318097918
Wfg:_UInt64_System_IConvertible_ToDecimal_m806594027_AdjustorThunk
gwe:_Enumerator_System_Collections_IEnumerator_get_Current_m361750367_AdjustorThunk
zhi:_UnityEvent_1_GetDelegate_m274387680_gshared
NLe:_RealProxy_InternalGetTransparentProxy_m1765012608
s0g:_List_1__ctor_m3395838871_gshared
D4h:_Collection_1_IsFixedSize_m3698021882_gshared
UUf:_DefaultComparer_GetHashCode_m2651362016_gshared
Ali:_PKCS12__ctor_m1854440921
g$h:_Array_Resize_TisCustomAttributeNamedArgument_t287865710_m885566878_gshared
SKg:__Z85RuntimeInvoker_RuntimeObject_RuntimeObject_SByte_t1669577662_ExceptionU26_t3600731591PFvvEPK10MethodInfoPvPS4_
BTf:_DefaultComparer__ctor_m2556554241_gshared
VD:__ZN11UnityEngine9Animation28GenericAnimationBindingCache25RegisterIAnimationBindingEPKN5Unity4TypeEiP17IAnimationBinding
Fmh:__ZL66RuntimeArray_CustomAttributesCacheGenerator_Array_Sort_m2537416106P21CustomAttributesCache
HRc:__Z70RectTransformUtility_CUSTOM_INTERNAL_CALL_RectangleContainsScreenPointP12Il2CppObjectRK13Vector2fIcallS0_
TId:_DirectoryInfo__ctor_m481305441
mff:_X509ExtensionCollection_get_SyncRoot_m2667861032
kLi:__ZN6il2cpp2vm5Class15GetElementClassEP11Il2CppClass
t9:__ZN10MemoryPoolC2E10MemLabelIdbPKciii
Agh:_Collection_1_SetItem_m941095285_gshared
QVb:__Z40ProcessCameraIndexListIsNodeVisibleInOutRK22SceneCullingParametersPK9SceneNodePK4AABBR9IndexList
Kwi:_GUIScrollGroup_SetHorizontal_m291416666
vVa:__ZN16GraphicsSettings8TransferI17RemapPPtrTransferEEvRT_
hPc:__ZN2UI6Canvas13UpdateBatchesEb
Vbf:_X509BasicConstraintsExtension_Decode_m120598446
oz:__ZNK23AnimationPlayableOutput11DerivesFromE17ScriptingClassPtr
p2a:__ZN7Texture19SupportsAsyncUploadI19StreamedBinaryWriteILb0EEEEbRT_
mQg:__Z49RuntimeInvoker_Boolean_t97287965_Rect_t2360479859PFvvEPK10MethodInfoPvPS4_
tJh:__ZL101Transform_t3600365921_CustomAttributesCacheGenerator_Transform_INTERNAL_get_localRotation_m1111330565P21CustomAttributesCache
xKg:__Z51RuntimeInvoker_UInt32_t2560061978_Int16_t2552820387PFvvEPK10MethodInfoPvPS4_
Yoa:__ZNK13GfxDeviceGLES12GetWireframeEv
Xxi:_DelegatePInvokeWrapper_Action_t1264377477
DPh:__ZL64EventType_t3528516131_CustomAttributesCacheGenerator_dragUpdatedP21CustomAttributesCache
yUc:__ZN11UnityEngine7Connect13ConfigHandler12GetListenersERKN4core12basic_stringIcNS2_20StringStorageDefaultIcEEEE
Gqa:__ZN9GfxDevice18AllocRenderSurfaceEb
qrd:_Char__cctor_m2787437263
L1b:__ZN10TagManager32GetSortingLayerUniqueIDFromValueEi
B3c:_AspectRatioFitter_get_rectTransform_m2996235303
K_:__ZL27CleanupCoreScriptingClassesv
QEf:_DateTimeFormatInfo_get_IsReadOnly_m1173781646
lFf:_NumberFormatInfo_get_PercentPositivePattern_m1800841633
Had:_Graphic_UnregisterDirtyMaterialCallback_m2707090617
lve:_Comparer_1_System_Collections_IComparer_Compare_m1313384821_gshared
uTe:_LayoutRebuilder_GetHashCode_m1943075341
rYd:_GenericTypeParameterBuilder_MakeGenericType_m3048165991
Qhc:__Z26AnimationCurve_CUSTOM_InitP12Il2CppObjectP11Il2CppArray
fHj:_glUniform1uiv__wrapper
P0i:__ZN6il2cpp2vm10Reflection7IsEventEP12Il2CppObject
$sj:__ZNSt3__26__treeINS_12__value_typeIPFvvEPK10MethodInfoEENS_19__map_value_compareIS3_S7_NS_4lessIS3_EELb1EEENS_9allocatorIS7_EEE16__insert_node_atEPNS_16__tree_node_baseIPvEERSI_SI_
xZ:__ZN17PersistentManager26GetStreamNameSpaceInternalEi
ZF:__ZN4FMOD6System11createSoundEPKcjP22FMOD_CREATESOUNDEXINFOPPNS_5SoundE
Xn:FUNCTION_TABLE_iiifiiii
Nre:_InternalEnumerator_1_System_Collections_IEnumerator_Reset_m1451164462_AdjustorThunk
rxc:__ZN13SpeedTreeWind20AdvanceWithoutUpdateEd
ttf:_DateTime_System_IConvertible_ToDecimal_m1044850612
B4f:_List_1_IndexOf_m2206067159_gshared
Pje:_InternalEnumerator_1_System_Collections_IEnumerator_Reset_m1318888374_AdjustorThunk
Y9:__ZN9ShaderLab19CommonPropertyNames13StaticCleanupEPv
y$:__Z31scripting_method_get_returntype18ScriptingMethodPtr
xCi:__ZL24UnresolvedVirtualCall_76P12Il2CppObjectPK10MethodInfo
K4a:__ZN15SerializeTraitsI12LightmapDataE8TransferI24GenerateTypeTreeTransferEEvRS0_RT_
mmf:_SecurityElement_AddAttribute_m311510562
EDj:_glStencilOpSeparate__wrapper
Iac:__ZN4Mesh5SetUvEiPKfjj
L5a:__ZN7Texture13SetAnisoLimitENS_20AnisotropicFilteringE
ZN:__ZN11AudioModule16SetListenerPauseEb
Eod:_Attribute_IsDefined_m4069052474
Qh:_emscripten_glCompressedTexSubImage2D
qDa:__ZN13GfxDeviceGLES22MemoryBarrierImmediateEyN2gl17MemoryBarrierTypeE
NRe:_U3CCaretBlinkU3Ec__Iterator0_Dispose_m860898205
YAa:__ZN6prcoreL26RemapGenericFloatToIntegerI18TexFormatARGBFloat17TexFormatARGB8888EEvPKNS_9InnerInfoE
O8g:_List_1_set_Capacity_m1977188119_gshared
$cc:__Z46GetShaderModelNumericValueFromRequirementsMask18ShaderRequirements
dBc:_cff_ps_has_glyph_names
v8c:_DropdownItem_get_rectTransform_m3147806615
kTf:_Dictionary_2_Resize_m3287623642_gshared
pmj:_GC_write
Tlh:__ZL69RuntimeArray_CustomAttributesCacheGenerator_Array_SetValue_m394135409P21CustomAttributesCache
did:_RC2_Create_m2516417038
rad:_Graphic_OnPopulateMesh_m767318148
Bhd:_HMACSHA512_set_ProduceLegacyHmacValues_m3961135292
LCe:_Dictionary_2_Remove_m4193450060_gshared
F3e:_ASN1_get_Tag_m1032367219
MGd:_Int64_TryParse_m3606398488
g_h:_Array_InternalArray__set_Item_TisMark_t3471605523_m1299772331_gshared
Coc:__Z44Register_UnityEngine_GUIStyle_SetDefaultFontv
Jxb:__Z18Transfer_BlittableI18StreamedBinaryReadILb1EELb1EiEvRK29SerializationCommandArgumentsR31RuntimeSerializationCommandInfo
RA:__ZN9BlobWrite8TransferI22OffsetPtrArrayTransferIKN4math7_float3EEEEvRT_PKc17TransferMetaFlags
_Eg:__Z173RuntimeInvoker_Int32_t2950945753_RuntimeObject_Int32_t2950945753_Int32_t2950945753_Int32_t2950945753_RuntimeObject_Int32_t2950945753_SByte_t1669577662_ContextU26_t3937453398PFvvEPK10MethodInfoPvPS4_
m2g:_List_1__ctor_m2576108087_gshared
D$i:__ZN15dense_hashtableINSt3__24pairIK10KeyWrapperINS1_IPK12PropertyInfoP11Il2CppClassEEEjEES9_17ReflectionMapHashIS8_EN14dense_hash_mapIS9_jSD_NS9_14EqualsComparerINS0_8equal_toIS8_EEEENS0_9allocatorISB_EEE9SelectKeyESI_SK_E12maybe_shrinkEv
Xli:_X509Certificate_get_DSA_m565099499
iyb:__Z18Transfer_BlittableI18StreamedBinaryReadILb1EELb1EsEvRK29SerializationCommandArgumentsR31RuntimeSerializationCommandInfo
W6f:_StringBuilder_Remove_m940064945
Zfd:_DESCryptoServiceProvider_GenerateIV_m683687014
UYf:_GenericComparer_1__ctor_m1900257738_gshared
hse:_InternalEnumerator_1_get_Current_m3792939945_gshared
LSc:__ZN22BaseUnityConnectClient17OnEnterStateReadyEv
l$e:_Text_get_fontSize_m1677872538
sgd:_DSACryptoServiceProvider_get_PublicOnly_m3933928860
eEh:__ZL63X509ChainStatusFlags_t1026973125_CustomAttributesCacheGeneratorP21CustomAttributesCache
KTa:__ZN14GrowableBufferD2Ev
ehc:__Z29Input_CUSTOM_GetMouseButtonUpi
vDd:_Int16_Parse_m138525169
KUi:__ZN6il2cpp6icalls8mscorlib6System8MonoType16InternalGetEventEP20Il2CppReflectionTypeP12Il2CppStringi
vui:_UriScheme_t722425697_marshal_pinvoke_back
XCc:_UNITY_tt_face_load_maxp
thc:__Z46Input_CUSTOM_INTERNAL_set_compositionCursorPosRK13Vector2fIcall
yt:__ZN7mecanim5human12FullBodyMaskEv
KZh:__ZL62Shadow_t773074319_CustomAttributesCacheGenerator_m_EffectColorP21CustomAttributesCache
k2e:_BigInteger_ToString_m3475000413
Ybb:__ZN19ShaderPropertySheet11ComputeHashEv
XOi:__ZN30dense_hashtable_const_iteratorI10KeyWrapperIPK19Il2CppGenericMethodES4_N6il2cpp8metadata23Il2CppGenericMethodHashEN14dense_hash_setIS4_S7_NS4_14EqualsComparerINS6_26Il2CppGenericMethodCompareEEENSt3__29allocatorIS4_EEE8IdentityESB_SE_EppEv
H7c:_Resources_t1597885468_marshal_pinvoke_cleanup
ezb:__ZN4PPtrI6ObjectE8TransferI18StreamedBinaryReadILb1EEEEvRT_
nT:__ZN11UnityEngine15CloudWebService20WebRequestRestClient6IsDoneEv
jsi:_Group__ctor_m2980794822
uki:_X509CertificateCollection_get_Item_m1033426577
Vei:_CachedInvokableCall_1_Invoke_m502907382_gshared
Ni:_llvm_fabs_f32
SS:__ZN11UnityEngine15CloudWebService16SessionContainer16GetJsonDataBlockEjRKN4core12basic_stringIcNS2_20StringStorageDefaultIcEEEERS6_PjSA_
B3e:_ASN1_Decode_m1695284166
A1i:__ZN15dense_hashtableINSt3__24pairIK10KeyWrapperIPK14Il2CppAssemblyEPK22Il2CppMonoAssemblyNameEES6_N6il2cpp5utils11PointerHashIS4_EEN14dense_hash_mapIS6_SA_SF_NS6_14EqualsComparerINS0_8equal_toIS5_EEEENS0_9allocatorISB_EEE9SelectKeyESK_SM_E13set_empty_keyERKSB_
Lfh:_Collection_1_RemoveAt_m2240641437_gshared
EBf:_Enum_ToString_m3248653065
NZ:__ZN14SafeBinaryReadD2Ev
BJf:_SetPropertyUtility_SetStruct_TisFillMethod_t1167457570_m4164776730_gshared
Q2b:__Z13RegisterClassI7TextureEvv
P1f:_Enumerator_MoveNext_m3859993671_gshared
yzb:__ZN8Gradient8TransferI18StreamedBinaryReadILb1EEEEvRT_
L6d:_SequentialSearchPrimeGeneratorBase_IsPrimeAcceptable_m1127740833
Gff:_Capture__ctor_m3103117740
N7a:__ZN4core8hash_mapINS_12basic_stringIcNS_20StringStorageDefaultIcEEEE13dynamic_arrayI4PPtrI6SpriteELj4EENS_4hashIS4_EENSt3__28equal_toIS4_EEEixERKS4_
YDg:__Z113RuntimeInvoker_Void_t1185182177_RuntimeObject_Int64_t3736567304_RuntimeObject_Int64_t3736567304_Int64_t3736567304PFvvEPK10MethodInfoPvPS4_
dtg:_RangeInt_get_end_m4128831787_AdjustorThunk
naj:__ZN6il2cpp6icalls8mscorlib6System4Type15MakeGenericTypeEP20Il2CppReflectionTypeP11Il2CppArray
nj:_SDL_PauseAudio
exd:_Hashtable_Clone_m3078962909
O3i:_il2cpp_class_from_type
MVi:__ZN6il2cpp2os4File11GetStdErrorEv
iAh:__ZL77Convert_t2465617642_CustomAttributesCacheGenerator_Convert_ToSByte_m516918950P21CustomAttributesCache
X9:__ZN9ShaderLab19CommonPropertyNames16StaticInitializeEPv
wib:__ZN13MemoryManager31DisallowAllocationsOnThisThreadEv
WC:__ZN7mecanim9animation18CreateAvatarOutputEPKNS0_14AvatarConstantEbbRNS_6memory9AllocatorE
Smd:_Array_GetLongLength_m561139708
Rzi:_DelegatePInvokeWrapper_PCMSetPositionCallback_t1059417452
b_e:_Slider_set_maxValue_m2251404465
M_e:_SpriteState_get_pressedSprite_m3868967445_AdjustorThunk
VL:__ZN11AudioSource23VirtualRedirectTransferER24GenerateTypeTreeTransfer
sac:__ZN7Texture11SetWrapModeE15TextureWrapMode
i8a:__ZN14Texture2DArray23VirtualRedirectTransferER14SafeBinaryRead
MOd:_MissingMemberException__ctor_m1220732369
YQb:__ZNK6Camera21CalculateCanDoShadowsEv
SSg:__Z52RuntimeInvoker_Void_t1185182177_Int32U26_t1369213839PFvvEPK10MethodInfoPvPS4_
$hg:_Application_InvokeOnBeforeRender_m2875673833
Sgj:__ZN6il2cpp2os6Thread12SetStackSizeEj
NUe:_MaskableGraphic_RecalculateMasking_m183336762
C2h:_Array_InternalArray__get_Item_TisRuntimeObject_m3347010206_gshared
G_d:_TypeBuilder_IsSubclassOf_m3458909121
nac:__ZNK8Renderer16IsVisibleInSceneEv
lZ:__Z13VFormatBufferPciPKcz
EAb:__Z18Transfer_BlittableI18StreamedBinaryReadILb0EELb1EhEvRK29SerializationCommandArgumentsR31RuntimeSerializationCommandInfo
Cjd:_X509Certificate__cctor_m198658613
SGg:__Z43RuntimeInvoker_MethodAttributes_t2366443849PFvvEPK10MethodInfoPvPS4_
bsg:_PlayableHandle_Equals_m1666612586_AdjustorThunk
aBa:__ZN6prcoreL27StretchGenericFloatBilinearI15TexFormatRFloatEEvPKNS_9InnerInfoE
NDh:__ZL139ServicePointManager_t170559685_CustomAttributesCacheGenerator_ServicePointManager_t170559685____CheckCertificateRevocationList_PropertyInfoP21CustomAttributesCache
QBf:_Enum_ToObject_m1628250250
lw:__Z24ProcessAnimationMixBeginP35AnimationPlayableEvaluationConstantP32AnimationPlayableEvaluationInputP33AnimationPlayableEvaluationOutput
X6g:_List_1_set_Item_m2057272351_gshared
dya:__Z14PadImageBorderR14ImageReferenceii
d_i:__ZN15dense_hashtableINSt3__24pairIK10KeyWrapperINS1_IPK10MethodInfoP11Il2CppClassEEEjEES9_17ReflectionMapHashIS8_EN14dense_hash_mapIS9_jSD_NS9_14EqualsComparerINS0_8equal_toIS8_EEEENS0_9allocatorISB_EEE9SelectKeyESI_SK_E4findERSA_
fSi:__ZN6il2cpp2vm13MetadataCache28GetFieldDefaultValueForFieldEPK9FieldInfo
QLf:_Array_IndexOf_TisUIVertex_t4057497605_m3336763564_gshared
aeh:__ZN21InterfaceFuncInvoker1I22OrderBlock_t1585977831iE6InvokeEjP11Il2CppClassP12Il2CppObjecti
Pw:__ZN27AnimationLayerMixerPlayableD2Ev
U5c:_ColorBlock_Equals_m518833916_AdjustorThunk
vLh:__ZL66PersistentCall_t3407714124_CustomAttributesCacheGenerator_m_TargetP21CustomAttributesCache
eI:__ZN12AudioManager39HandlePendingAudioConfigurationCallbackEv
kk:_emscripten_glIsFramebuffer
b6e:_RSAManaged_EncryptValue_m799827583
T1:__ZN12_GLOBAL__N_16qAtan2Eff
mBg:__Z61RuntimeInvoker_UInt32_t2560061978_RuntimeObject_RuntimeObjectPFvvEPK10MethodInfoPvPS4_
rag:_ThreadAbortException__ctor_m1955533141
ok:_JS_Sound_SetLoopPoints
Jca:__ZN15dense_hashtableINSt3__24pairIKyP17VertexDeclarationEEy14GfxGenericHashIyEN14GfxDoubleCacheIyS4_S7_NS0_8equal_toIyEEN31GfxDoubleCacheConcurrencyPolicy11LocklessGetE42GfxDoubleCacheDefaultEmptyDeletedGeneratorIyEE9SelectKeyESA_13stl_allocatorIS5_L18MemLabelIdentifier24ELi16EEE14squash_deletedEv
hN:__ZN12AudioManager17ShouldSourcePauseEb
Qqj:__ZN6il2cpp2vm26MetadataAllocGenericMethodEv
NIf:_Array_InternalArray__ICollection_Remove_TisUInt16_t2177724958_m1766181761_gshared
bHa:__ZN19ConstantBuffersGLES12RecordRenderEv
Bhi:_UnityEvent_1__ctor_m3675246889_gshared
$rc:__ZN9JSONWrite8TransferI10RectOffsetEEvRT_PKc17TransferMetaFlags
Kxa:__ZN4crnd12symbol_codec11decode_bitsEj
EVg:__Z59RuntimeInvoker_Boolean_t97287965_KeyValuePair_2_t3842366416PFvvEPK10MethodInfoPvPS4_
E8d:_EncryptedPrivateKeyInfo__ctor_m3415744930
Zyc:_cf2_doFlex
nbf:_AsnEncodedData__ctor_m3792312694
gyi:_AesManaged_GenerateIV_m1368817386
H7b:__ZN21FixedBehaviourManagerD0Ev
LRa:__ZN13dynamic_arrayI17SortingLayerEntryLj4EE6insertEPS0_jRKS0_
iI:__ZN4FMOD6System12createReverbEPPNS_6ReverbE
Vjj:__ZN6il2cpp2vm6String21InitializeEmptyStringEP11Il2CppClass
Gw:__ZN7mecanim19ValueArrayBlendNodeILb1EEEvRKNS_10ValueArrayERKNS_14ValueArrayMaskERS1_RS4_RNS_16ValueArrayWeightEf
$ed:_CodeAccessPermission_GetHashCode_m880096813
yib:__Z16MarkDependenciesR27GarbageCollectorThreadStatej
ZSd:_AssemblyConfigurationAttribute__ctor_m3236176989
lji:_ObjectPool_1_get_countInactive_m526975942_gshared
ELe:_RemotingServices_DisposeIdentity_m2605848806
d2:__ZNK9Transform11GetPositionEv
pKd:_WriteDelegate_EndInvoke_m952736984
_ig:_Bounds_set_size_m4127623202
wCd:_GuidParser_Reset_m2640004655
yWa:__ZN23SharedMeshRenderingData18UnloadVertexStreamEi
X7b:__ZN31CanvasBatchIntermediateRenderer11AddSubBatchERK16DrawBuffersRangePK19ShaderPropertySheet
F6b:__ZN19RenderEventsContextC2Ei
cR:__Z6simd4fRKf
iJh:__ZL67SceneManager_t2787271929_CustomAttributesCacheGenerator_sceneLoadedP21CustomAttributesCache
XEf:_GregorianCalendar_GetEra_m2369958449
Sk:_emscripten_glEnable
Eme:_InternalEnumerator_1_System_Collections_IEnumerator_get_Current_m2982675020_gshared
ERa:__ZN10TagManager23VirtualRedirectTransferER14SafeBinaryRead
vWh:__ZL51RawImage_t3182918964_CustomAttributesCacheGeneratorP21CustomAttributesCache
f4h:_Collection_1_System_Collections_IList_get_Item_m2931804586_gshared
pLe:_ObjRef_get_EnvoyInfo_m1782007847
x2g:_List_1_System_Collections_ICollection_get_IsSynchronized_m3331050698_gshared
HTb:__Z15InitLightMeshesv
n0d:_MonoCMethod_ToString_m3992577062
xWi:_RaycastHit_get_collider_m1464180279
An:FUNCTION_TABLE_iifiii
KKi:__ZNK15dense_hashtableINSt3__24pairIK10KeyWrapperIPK22Il2CppGenericParameterEP11Il2CppClassEES6_N6il2cpp5utils11PointerHashIS4_EEN14dense_hash_mapIS6_S9_SE_NS6_14EqualsComparerINS0_8equal_toIS5_EEEENS0_9allocatorISA_EEE9SelectKeyESJ_SL_E10test_emptyEj
tai:_ReadOnlyCollection_1_System_Collections_IList_Contains_m2904046095_gshared
G5a:__ZN15QualitySettings8TransferI19StreamedBinaryWriteILb0EEEEvRT_
OPh:__ZL56GUISkin_t1244372282_CustomAttributesCacheGenerator_m_boxP21CustomAttributesCache
WTe:_LayoutUtility_U3CGetFlexibleHeightU3Em__7_m2991026842
Wvb:__Z18Transfer_BlittableI19StreamedBinaryWriteILb0EELb1E8Vector2fEvRK29SerializationCommandArgumentsR31RuntimeSerializationCommandInfo
Byc:_cf2_arrstack_init
L2h:_Array_InternalArray__get_Item_TisResourceCacheItem_t51292791_m1306056717_gshared
KRg:__Z157RuntimeInvoker_Void_t1185182177_RuntimeObject_RuntimeObject_RuntimeObject_RuntimeObject_RuntimeObject_RuntimeObject_RuntimeObject_RuntimeObject_RuntimeObjectPFvvEPK10MethodInfoPvPS4_
N_c:_EventSystem_get_pixelDragThreshold_m1103650852
bX:__Z15CleanLogHandler7LogTypePKcz
oRd:_NumberFormatter_NumberToString_m2481532188
zla:__ZN9ShaderLab19SerializedSubShader8TransferI19StreamedBinaryWriteILb0EEEEvRT_
mYe:_ScrollRect_InternalGetBounds_m599803667
EH:__ZN14AudioBehaviour15ThreadedCleanupEv
WDb:__ZN6Camera17RemoveImageFilterERK11ImageFilter
ena:__ZNSt3__218__insertion_sort_3IR25ValueParameterArraySorterPN20GpuProgramParameters14ValueParameterEEEvT0_S6_T_
AGh:__ZL90Display_t1387065949_CustomAttributesCacheGenerator_Display_GetRenderingExtImpl_m2069813991P21CustomAttributesCache
BDh:__ZL67EditorBrowsableAttribute_t1475454531_CustomAttributesCacheGeneratorP21CustomAttributesCache
jwd:_Comparer__cctor_m3311686689
$Pc:__ZZN2UI11CanvasGroup15InitializeClassEvEN38FunctorImpl_117kTransformParentChanged4CallEPviR11MessageData
k3c:_UIBehaviour_OnDidApplyAnimationProperties_m2143584361
sFh:__ZL102SystemInfo_t3561985952_CustomAttributesCacheGenerator_SystemInfo_get_operatingSystemFamily_m4256884728P21CustomAttributesCache
D9e:_HttpWebRequest_get_Address_m2672661563
ncg:_TimeZone__ctor_m1831364098
g0i:__ZNK10KeyWrapperINSt3__24pairIPK9EventInfoP11Il2CppClassEEE14EqualsComparerINS0_8equal_toIS7_EEEclERKS8_SE_
gme:_InternalEnumerator_1_get_Current_m3500427238_AdjustorThunk
PPc:__ZN2UI26InitializeDeviceForOverlayEi
Y8:__Z27LogRepeatingStringWithFlagsRKN4core12basic_stringIcNS_20StringStorageDefaultIcEEEE15LogMessageFlagsi
fgg:_UInt64_System_IConvertible_ToSingle_m925613075
RBf:_Enum_IsDefined_m1442314461
S9f:_Thread__cctor_m817723615
Zzi:_AudioExtensionManager_RegisterBuiltinDefinitions_m2742744104
Zt:__ZN17AnimationPlayable28ComputeNeedsBindingRebuildedEv
et:__ZN17AnimationPlayable23RequestAllocateBindingsEv
Wdi:_Predicate_1_EndInvoke_m3884403745_gshared
ysf:_DecoderReplacementFallbackBuffer_Fallback_m1261056214
QMb:__ZNSt3__227__insertion_sort_incompleteIRPFbP10GUIElementS2_EPS2_EEbT0_S7_T_
zTd:_Binder_get_DefaultBinder_m950908649
jJd:_StreamReader__ctor_m1616861391
ezh:__ZL59ArgumentException_t132251570_CustomAttributesCacheGeneratorP21CustomAttributesCache
qVc:__ZN18UnityConnectClient33OnPlayerSessionStateChangedStaticEPS_jyy
Iif:_RSA_ToXmlString_m2922661427
ZT:__ZNK11UnityEngine15CloudWebService23WebRequestUploadHandler11GetProgressEv
Kua:__ZN7ApiGLES4LoadE16GfxDeviceLevelGL
X4a:__ZN18StreamedBinaryReadILb0EE21TransferSTLStyleArrayI13dynamic_arrayI31EnlightenSystemAtlasInformationLj8EEEEvRT_17TransferMetaFlags
JPh:__ZL61GUIContent_t3050628031_CustomAttributesCacheGenerator_m_ImageP21CustomAttributesCache
Ewc:__ZN5physx15PxErrorCallbackD2Ev
Fdj:__ZN15dense_hashtableI10KeyWrapperIP18Il2CppGenericClassES3_N6il2cpp8metadata22Il2CppGenericClassHashEN14dense_hash_setIS3_S6_NS3_14EqualsComparerINS5_25Il2CppGenericClassCompareEEENSt3__29allocatorIS3_EEE8IdentityESA_SD_E15insert_noresizeERKS3_
M5b:__ZZL31RegisterOtherRendererPropertiesR22GenericPropertyBindingEN30Wrapper_RendererReceiveShadows13GetFloatValueEPv
jHf:_Array_InternalArray__ICollection_Contains_TisSlot_t384495010_m688761886_gshared
o3a:__ZN17SharedTextureDataC2E10MemLabelIdii13TextureFormatjiibb
ATg:__Z114RuntimeInvoker_RuntimeObject_RuntimeObject_Int32_t2950945753_Int32_t2950945753_Int32_t2950945753_Int32_t2950945753PFvvEPK10MethodInfoPvPS4_
bHb:__ZN8Material11SetPassFastEPN9ShaderLab4PassER17ShaderPassContextP6Shaderib
d6a:__ZNK13ScreenManager13GetLockCursorEv
oVc:__ZN11UnityEngine7Connect20BasePersistentValues10SaveValuesER9JSONWrite
phh:_Collection_1_IsFixedSize_m3748602684_gshared
vtf:_DateTime_System_IConvertible_ToDouble_m2116720007
Plg:_Display_GetSystemExtImpl_m2808197389
ebg:_WaitHandle_WaitOne_m2577152516
pjd:_X509Certificate_PEM_m1177570576
Vvh:__ZL46DSA_t2386879874_CustomAttributesCacheGeneratorP21CustomAttributesCache
Nhe:_ArrayReadOnlyList_1_GetEnumerator_m1835926958_gshared
vbc:__Z14ScaleCurveTimeR17AnimationCurveTplIfEf
jca:__ZN22VirtualJoystickManagerC2Ev
Lba:__ZN20GlobalCachingManager7DisposeEv
WNb:__Z12SetupLODFadeR9GfxDeviceR17ShaderPassContextf
g1a:__ZNK14PlayableOutput7GetTypeEv
cnh:__ZL69Type_t_CustomAttributesCacheGenerator_Type_GetConstructors_m576905011P21CustomAttributesCache
uTb:__ZL24CollectForwardObjectsJobP27CollectForwardObjectsHeader
yRi:__ZNK15dense_hashtableINSt3__24pairIK10KeyWrapperIPK11Il2CppClassEPKcEES6_N6il2cpp5utils11PointerHashIS3_EEN14dense_hash_mapIS6_S9_SE_NS6_14EqualsComparerINS0_8equal_toIS5_EEEENS0_9allocatorISA_EEE9SelectKeyESJ_SL_E12test_deletedERK24dense_hashtable_iteratorISA_S6_SE_SN_SJ_SL_E
pVb:__Z13IsNodeVisibleRK9SceneNodeRK4AABBRK22SceneCullingParameters
sMf:_Array_InternalArray__IndexOf_TisLabelFixup_t858502054_m1491765395_gshared
jEg:__Z44RuntimeInvoker_RuntimeTypeHandle_t3027515415PFvvEPK10MethodInfoPvPS4_
qki:_TlsServerSettings_set_CertificateRequest_m1039729760
Z0e:_SortKeyBuffer_AppendCJKExtension_m2591091991
JRc:__Z57RectTransformUtility_CUSTOM_INTERNAL_CALL_PixelAdjustRectP12Il2CppObjectS0_R5RectTIfE
y8f:_UTF8Encoding_GetByteCount_m4153686982
pWb:__Z24ScheduleCullingAllGroupsR8JobFenceRK22SceneCullingParametersiRK13CullingOutputRK13dynamic_arrayIP12CullingGroupLj4EERKS_
bJj:_emscripten_glStencilMask__wrapper
NCg:__Z49RuntimeInvoker_Void_t1185182177_Double_t594665363PFvvEPK10MethodInfoPvPS4_
NOi:__ZN15dense_hashtableI10KeyWrapperIPK19Il2CppGenericMethodES4_N6il2cpp8metadata23Il2CppGenericMethodHashEN14dense_hash_setIS4_S7_NS4_14EqualsComparerINS6_26Il2CppGenericMethodCompareEEENSt3__29allocatorIS4_EEE8IdentityESB_SE_EC2ERKSH_j
ETa:__ZN15RenderNodeQueue7CleanupEv
RJf:_Array_InternalArray__IEnumerable_GetEnumerator_TisByte_t1134296376_m1979205379_gshared
Z1d:_MonoProperty_CreateGetterDelegate_m2478402519
Cwc:__ZN16NovodexAllocator8allocateEjPKcS1_i
_$a:__ZN39DeprecatedFastPropertyNameSerialization8TransferI14SafeBinaryReadEEvRT_
Oli:_DeriveBytes_DeriveIV_m973925711
mFd:_Int32_System_IConvertible_ToSByte_m3133688512
oBi:__ZL24UnresolvedVirtualCall_13P12Il2CppObjectaPK10MethodInfo
uai:_ReadOnlyCollection_1_System_Collections_IList_IndexOf_m848971554_gshared
rTb:__ZN9ShaderLab10GrabPassesD2Ev
vYe:_ScrollRect_CalculateOffset_m927043599
t8a:__ZN14Texture2DArray13UploadTextureEv
xUe:_MaskableGraphic_UpdateCull_m2805101913
EDc:_tt_cmap14_done
ugb:__ZN18AwakeFromLoadQueue25RegisterObjectInstanceIDsEv
Uw:__ZNK27AnimationLayerMixerPlayable11DerivesFromE17ScriptingClassPtr
QJc:__ZN20TextRenderingPrivate19NativeTextGenerator15InsertCharacterEiPj
yFg:__Z77RuntimeInvoker_Void_t1185182177_RuntimeObject_SByte_t1669577662_RuntimeObjectPFvvEPK10MethodInfoPvPS4_
eGg:__Z81RuntimeInvoker_Void_t1185182177_RuntimeObject_SByte_t1669577662_SByte_t1669577662PFvvEPK10MethodInfoPvPS4_
NPd:_MonoType_get_attributes_m1332507727
Zvi:_GUIContent_ClearStaticCache_m1205116045
t4g:_List_1_System_Collections_IList_get_IsFixedSize_m203251153_gshared
Bv:__ZN17AnimationPlayableD0Ev
Owb:__Z18Transfer_BlittableI19StreamedBinaryWriteILb0EELb0EyEvRK29SerializationCommandArgumentsR31RuntimeSerializationCommandInfo
LMe:_BinaryCommon__cctor_m2978407547
wrd:_Char_System_IConvertible_ToByte_m2347554595
cai:_ReadOnlyCollection_1_GetEnumerator_m1017886827_gshared
doh:__ZL47ASN1_t2114160832_CustomAttributesCacheGeneratorP21CustomAttributesCache
xLc:__ZN20TextRenderingPrivate15DynamicFontData21GetFontMetricsForFaceERK13dynamic_arrayIN4core17string_with_labelILi35EEELj4EEiRKS1_I4PPtrIN13TextRendering4FontEELj4EEPfSF_
Vhi:_IndexedSet_1__ctor_m2250384602_gshared
jVf:_DefaultComparer__ctor_m1306123661_gshared
Jeg:_UInt16_TryParse_m4139137016
Hgj:__ZN6il2cpp5utils13dynamic_arrayIPNS_2os6ThreadELj4EE9push_backEv
Eij:__ZN6il2cpp2gc16GarbageCollector9FreeFixedEPv
s5f:_Encoding__ctor_m2997749867
Vog:_ManagedStreamHelpers_ManagedStreamSeek_m3158782053
Hsi:_ExpressionAssertion_Compile_m2166597834
nDb:__ZN16ScriptingManagerD0Ev
Gof:_Single_System_IConvertible_ToSByte_m1208276900_AdjustorThunk
klj:__ZN6il2cpp6icalls8mscorlib6System7Convert24InternalFromBase64StringEP12Il2CppStringb
EWf:_EqualityComparer_1__ctor_m2241711498_gshared
Dth:__ZL58ChannelServices_t3942013484_CustomAttributesCacheGeneratorP21CustomAttributesCache
jcj:__ZN30dense_hashtable_const_iteratorINSt3__24pairIK10KeyWrapperINS1_IPKcS4_EEEiEES6_24NamespaceAndNamePairHashN14dense_hash_mapIS6_iS9_NS6_14EqualsComparerI26NamespaceAndNamePairEqualsEENS0_9allocatorIS8_EEE9SelectKeyESD_SF_EppEv
Ffc:__Z44Register_UnityEngine_Component_get_transformv
tXg:__Z48RuntimeInvoker_Void_t1185182177_Link_t3209266973PFvvEPK10MethodInfoPvPS4_
VB:__ZN12_GLOBAL__N_120ProcessPlayableGraphERN8Animator11AnimatorJobER35AnimationPlayableEvaluationConstantR32AnimationPlayableEvaluationInputR33AnimationPlayableEvaluationOutputPFvS4_R17AnimationPlayableEPFvS4_S6_S8_EPFvS8_S4_S6_S8_fESE_MS9_FvPS3_PS5_PS7_E
IIi:_CanvasRenderer_get_absoluteDepth_m2703237819
YFf:_TextInfo_ToLower_m2744057472
_Jb:__ZN17ArchiveFileSystem12MountArchiveEPKcS1_
zYf:_EqualityComparer_1_System_Collections_IEqualityComparer_Equals_m3977314386_gshared
erc:__Z18Transfer_BlittableI9JSONWriteLb1E8Vector4fEvRK29SerializationCommandArgumentsR31RuntimeSerializationCommandInfo
wn:FUNCTION_TABLE_viififiii
dDf:_CCGregorianCalendar_year_from_fixed_m463929682
VNc:__ZN2UI13CanvasManagerD0Ev
HX:__ZThn32_NK8Renderer14GetSubsetIndexEi
olg:_Debug_get_unityLogger_m2239795986
S7d:_MD2Managed_Initialize_m2341076836
rai:_ReadOnlyCollection_1_System_Collections_IList_Add_m4240023232_gshared
zra:__ZN9GfxDevice15ImmediateVertexEfff
z2b:__Z13RegisterClassI8MaterialEvv
g4a:__ZNK16LightmapSettings22GetTypeVirtualInternalEv
gUa:__ZN16GraphicsSettings13AwakeFromLoadE17AwakeFromLoadMode
Vp:__ZN6Object13AwakeFromLoadE17AwakeFromLoadMode
Roa:__ZN13GfxDeviceGLES15SetStencilStateEPK18DeviceStencilStatei
kqd:_Buffer_BlockCopyInternal_m418318694
mvj:_cycle
kig:_AssetBundleCreateRequest_t3119663542_marshal_pinvoke
alj:__ZN6il2cpp2vm8Profiler7GCEventE13Il2CppGCEvent
yEg:__Z76RuntimeInvoker_Void_t1185182177_RuntimeObject_RuntimeFieldHandle_t1871169219PFvvEPK10MethodInfoPvPS4_
dmi:_PKCS12_Finalize_m507756088
Dd:_emscripten_glUniform1iv
oag:_Thread_get_ManagedThreadId_m1068113671
kmb:__ZN16MemoryFileSystemD2Ev
PEg:__Z150RuntimeInvoker_Int32_t2950945753_RuntimeObject_Int32_t2950945753_Int32_t2950945753_RuntimeObject_Int32_t2950945753_Int32_t2950945753_Int32_t2950945753PFvvEPK10MethodInfoPvPS4_
Rod:_BitConverter_DoubleToInt64Bits_m3574395137
Zuf:_DateTime_Parse_m3729096069
r2g:_List_1_System_Collections_IList_Add_m1540114404_gshared
zie:_InternalEnumerator_1_System_Collections_IEnumerator_Reset_m81420524_AdjustorThunk
nfc:__Z37Register_UnityEngine_Camera_get_depthv
TMd:_StringReader_Read_m3322058819
QEe:_CrossAppDomainChannel_get_ChannelPriority_m3418073750
IVf:_EqualityComparer_1__ctor_m1860346363_gshared
tRe:_Selectable_StartColorTween_m3618813981
k_c:_BaseInputModule_HandlePointerExitAndEnter_m1705532066
Q_d:_EventInfo__ctor_m3033129999
b2b:__ZN15ApplicationInfo16GetInstallerNameEv
M$b:__Z23ConvertIntegerToTypePtrItEbPvR14SafeBinaryRead
Dzf:_Delegate_CombineImpl_m3572135514
YDd:_NumberFormatter_IntegerToString_m1679294587
Ujf:_SHA256Managed_AddLength_m1060552216
J7h:_ReadOnlyCollection_1_System_Collections_IList_RemoveAt_m422909114_gshared
AC:__ZN7mecanim5human29HumanGetGoalOrientationOffsetENS0_4GoalE
Ud:_emscripten_glStencilFunc
YYh:__ZL78LayoutRebuilder_t541313304_CustomAttributesCacheGenerator_U3CU3Ef__amU24cache2P21CustomAttributesCache
c1h:_Dictionary_2_Do_CopyTo_TisKeyValuePair_2_t3699644050_TisRuntimeObject_m2224738096_gshared
hBi:__ZL23UnresolvedVirtualCall_6P12Il2CppObjectiPK10MethodInfo
Y1c:__Z46il2cpp_codegen_get_marshal_directive_exceptionPKc
YOe:_InputField_get_isFocused_m709836844
$d:_glGetActiveUniformBlockName
tSh:__ZL90PointerEventData_t3807901092_CustomAttributesCacheGenerator_U3CpointerIdU3Ek__BackingFieldP21CustomAttributesCache
Kf:_emscripten_glUniform1fv
Lhc:__Z39Quaternion_CUSTOM_INTERNAL_CALL_InverseRK11QuaternionfRS_
UTa:__ZNK4PPtrI5FlareEcvPS0_Ev
dJ:__ZN4FMOD7Channel20set3DConeOrientationEP11FMOD_VECTOR
nn:FUNCTION_TABLE_iiifii
DUd:_AssemblyBuilder_not_supported_m1735277432
Xqe:_InternalEnumerator_1_MoveNext_m1344185775_AdjustorThunk
Lfj:__ZN6il2cpp2vm12GenericClass11SetupEventsEP11Il2CppClass
CGc:_tt_delta_interpolate
aEc:_tt_cmap12_get_info
tbj:__ZN6il2cpp2vm15ReboxIReferenceEP14Il2CppIUnknownP11Il2CppClass
j1f:_Enumerator__ctor_m2029608698_AdjustorThunk
bKi:__ZN6il2cpp6icalls8mscorlib6System7Decimal14decimalCompareEP19il2cpp_decimal_reprS5_
KCe:_Dictionary_2_OnDeserialization_m4209543208_gshared
Hlj:__ZThn4_N6il2cpp2vm13CachedCCWBaseINS0_13ManagedObjectEE7ReleaseEv
Mng:_GameObject_AddComponent_m136524825
xuh:__ZL62SoapMethodAttribute_t1935009310_CustomAttributesCacheGeneratorP21CustomAttributesCache
dOg:__Z100RuntimeInvoker_Void_t1185182177_RuntimeObject_Int32_t2950945753_Int32_t2950945753_UInt16_t2177724958PFvvEPK10MethodInfoPvPS4_
a1a:__ZNSt3__26__treeINS_12__value_typeIN9ShaderLab16FastPropertyNameE10ColorRGBAfEENS_19__map_value_compareIS3_S5_NS_4lessIS3_EELb1EEENS_9allocatorIS5_EEE12__find_equalIS3_EERPNS_16__tree_node_baseIPvEENS_21__tree_const_iteratorIS5_PNS_11__tree_nodeIS5_SF_EEiEESI_RKT_
fGj:_glCopyTexImage2D__wrapper
JAf:_Double_System_IConvertible_ToUInt32_m271206838
N7:__GLOBAL__sub_I_runtime_graphics_billboard_0_cpp
mHb:__Z18ClearByDrawingQuad13GfxClearFlagsRK10ColorRGBAffjR17ShaderPassContext
zAa:__ZN6prcoreL17RemapGenericFloatI14TexFormatRHalf15TexFormatRFloatEEvPKNS_9InnerInfoE
Izc:_cf2_getBlueValues
LNb:__Z16ShouldUseShadowsb
gea:__ZN15DirectorManager21RebuildStageCallbacksEv
zHb:__ZN19RuntimeSceneManager9LoadSceneERKN4core12basic_stringIcNS0_20StringStorageDefaultIcEEEES6_S6_RK9UnityGUIDiNS_11LoadingModeE
GBi:__ZL24UnresolvedVirtualCall_31P12Il2CppObjectiS0_S0_PK10MethodInfo
Rta:__ZN7ApiGLES10DrawArraysE16GfxPrimitiveTypejjj
AG:__ZN10SampleClip13LoadBaseSoundEv
Ekd:_SmallXmlParser_SkipWhitespaces_m4243606597
TDf:_CompareInfo_IndexOf_m2631915198
jVd:_ConstructorBuilder_GetCustomAttributes_m2495332786
wIe:_MethodCall__ctor_m3669645
Zqd:_Byte_CompareTo_m4285128861
D$c:_TriggerEvent__ctor_m87299207
uMg:__Z48RuntimeInvoker_ExchangeAlgorithmType_t1320888206PFvvEPK10MethodInfoPvPS4_
jQ:__Z57AudioSource_CUSTOM_INTERNAL_CALL_ClearExtensionPropertiesP12Il2CppObjectRK12PropertyName
Zej:__ZN15dense_hashtableINSt3__24pairIK10KeyWrapperIP12Il2CppObjectEN6il2cpp2gc9CachedCCWEEES5_NS7_5utils11PointerHashIS3_EEN14dense_hash_mapIS5_S9_SD_NS5_14EqualsComparerINS0_8equal_toIS4_EEEENS0_9allocatorISA_EEE9SelectKeyESI_SK_E15insert_noresizeERKSA_
P9d:_CertificateValidationCallback2__ctor_m1685875113
Tca:__ZL50StaticRegisterSceneLoadedCallback_LightmapSettingsPv
c1a:__ZN22DeviceMVPMatricesStateC2ER9GfxDevice
Gkh:__ZL48Double_t594665363_CustomAttributesCacheGeneratorP21CustomAttributesCache
Zm:FUNCTION_TABLE_iifii
Iog:_Logger_set_logEnabled_m1180597166
zvd:_Comparer_Compare_m3984347512
n4a:__ZN21EnlightenSceneMapping8TransferI14SafeBinaryReadEEvRT_
c3i:__ZN6il2cpp2vm10Reflection12HasAttributeEP9FieldInfoP11Il2CppClass
Mm:FUNCTION_TABLE_iiffi
hc:invoke_viiifi
Y1d:_MonoProperty_GetCustomAttributes_m3619796755
UUi:__ZNSt3__214__split_bufferIP11Il2CppClassRNS_9allocatorIS2_EEEC2EjjS5_
GJe:_MethodDictionary_System_Collections_IEnumerable_GetEnumerator_m4169036899
Jkd:__ZN23InterfaceActionInvoker2IP8String_tP12Il2CppObjectE6InvokeEjP11Il2CppClassS3_S1_S3_
ZLa:__ZNK11AssetBundle14GetPreloadDataEiR13dynamic_arrayIiLj4EE
iif:_RIPEMD160Managed_JJJ_m4161373884
JEe:_CrossContextChannel__ctor_m3755842292
MTf:_DefaultComparer_Equals_m3257444875_gshared
jf:_JS_Sound_SetPosition
YYa:__ZN19RenderBufferManager13GetTempBufferEii17DepthBufferFormat19RenderTextureFormatj22RenderTextureReadWrite14VRTextureUsagei23RenderTextureMemoryless
HRi:__ZL13GetSharedInstPK17Il2CppGenericInst
XSh:__ZL98PointerEventData_t3807901092_CustomAttributesCacheGenerator_PointerEventData_get_delta_m1062010255P21CustomAttributesCache
l1g:_List_1_get_Count_m634446588_gshared
TSc:__ZN22BaseUnityConnectClient17SaveSessionValuesEv
jke:_InternalEnumerator_1_get_Current_m476140818_gshared
Y3g:_List_1_Sort_m4240158523_gshared
Xzg:_WaitForEndOfFrame__ctor_m1381314187
xTb:__Z24SetupActiveLightsContextR21ActiveLightingContextRK12ActiveLightsRK11CullResultsP14ShadowMapCacheRK10MinMaxAABB
w3c:_AnimationTriggers_set_disabledTrigger_m933056574
Uic:__Z38Sprite_CUSTOM_INTERNAL_get_textureRectP12Il2CppObjectP5RectTIfE
Q1i:__ZNK15dense_hashtableINSt3__24pairIK10KeyWrapperIPK22Il2CppGenericParameterEPK24MonoGenericParameterInfoEES6_N6il2cpp5utils11PointerHashIS4_EEN14dense_hash_mapIS6_SA_SF_NS6_14EqualsComparerINS0_8equal_toIS5_EEEENS0_9allocatorISB_EEE9SelectKeyESK_SM_E3endEv
J0g:_List_1_Add_m238442097_gshared
Ycc:__ZN9TextAsset7SetTextERKN4core12basic_stringIcNS0_20StringStorageDefaultIcEEEE
BSa:__ZN6Camera8TransferI24GenerateTypeTreeTransferEEvRT_
Ha:invoke_iiiiiiif
Ea:invoke_iiiiiiii
BQf:_Array_InternalArray__set_Item_TisByte_t1134296376_m3104140039_gshared
pug:_Rect_ToString_m447614148
qmi:_PKCS12_GetBytes_m415958948
Vbe:_Context_get_HandshakeState_m2425796590
PWb:__ZN8Renderer17PendingAddToSceneEv
qih:_Collection_1_System_Collections_IList_set_Item_m2625856224_gshared
$Jj:b122
cKj:b125
bKj:b124
jKj:b127
eKj:b126
oKj:b129
lic:__Z52Register_UnityEngine_RectTransform_INTERNAL_get_rectv
gqg:_Mesh_SetSizedArrayForChannel_m2565120436
w_:__Z21PostprocessStacktracePKcRN4core12basic_stringIcNS1_20StringStorageDefaultIcEEEE
Wog:_ManagedStreamHelpers_ManagedStreamLength_m2930872960
peb:__ZN18StreamedBinaryReadILb0EE21TransferSTLStyleArrayI13dynamic_arrayI16SplashScreenLogoLj4EEEEvRT_17TransferMetaFlags
ali:_BasicConstraintsExtension_Encode_m2009213240
yfc:__Z47Register_UnityEngine_Camera_get_allCamerasCountv
d5c:___clang_call_terminate
WSc:__ZN22BaseUnityConnectClient20StartEventDispatcherEv
Nac:__ZNSt3__26vectorIj13stl_allocatorIjL18MemLabelIdentifier1ELi16EEE6assignIPKtEENS_9enable_ifIXaasr21__is_forward_iteratorIT_EE5valuesr16is_constructibleIjNS_15iterator_traitsIS9_E9referenceEEE5valueEvE4typeES9_S9_
lB:__ZN7mecanim9animation16EvaluateAvatarIKEPKNS0_14AvatarConstantEPKNS0_11AvatarInputEPNS0_12AvatarOutputEPNS0_12AvatarMemoryEPNS0_15AvatarWorkspaceEb
fCa:__ZL25ProgramUniformMatrix4x3fvPK7ApiGLESjiihPKv
d$b:__Z29StdTemplateConversionFunctionIsiEbPvR14SafeBinaryRead
kLb:__ZN12InputManager13InputEndFrameEv
fUi:__ZNSt3__26__treeIP11Il2CppClassNS_4lessIS2_EENS_9allocatorIS2_EEE25__emplace_unique_key_argsIS2_JRKS2_EEENS_4pairINS_15__tree_iteratorIS2_PNS_11__tree_nodeIS2_PvEEiEEbEERKT_DpOT0_
vqg:_Object_get_name_m4211327027
Q6i:__ZN6il2cpp2vm6Thread5SetupEP12Il2CppThread
B5h:_ReadOnlyCollection_1_System_Collections_IList_get_IsReadOnly_m1248651675_gshared
Kxe:_Enumerator_System_Collections_IDictionaryEnumerator_get_Key_m2500634048_gshared
VGi:_TextGenerator_t3211863866_marshal_pinvoke_back
rwj:___munmap
ag:_localtime_r
qMb:__ZN22RenderingCommandBuffer13GetAndCheckRTE24BuiltinRenderTextureTypeRKN9ShaderLab16FastPropertyNameEPKcPP13RenderTexture
Ica:__ZN14GfxDoubleCacheIyP17VertexDeclaration14GfxGenericHashIyENSt3__28equal_toIyEEN31GfxDoubleCacheConcurrencyPolicy11LocklessGetE42GfxDoubleCacheDefaultEmptyDeletedGeneratorIyEEC2Ev
fne:_InternalEnumerator_1_System_Collections_IEnumerator_Reset_m3619766341_AdjustorThunk
SW:__Z19free_alloc_internalPv10MemLabelId
uuh:__ZL56ReturnMessage_t1376985608_CustomAttributesCacheGeneratorP21CustomAttributesCache
_7f:_UTF32Decoder_GetChars_m1925558948
dg:_strftime
YEa:__ZN7Texture33SetStoredColorSpaceNoDirtyNoApplyE17TextureColorSpace
L3d:_ResourceSet__ctor_m3618395942
Fxf:_Decimal_System_IConvertible_ToDouble_m3125524987_AdjustorThunk
x1:__ZN12FileAccessorD2Ev
h7:__ZN10ColorRGBAf8TransferI18StreamedBinaryReadILb0EEEEvRT_
LWa:__ZN14VertexDataInfoC2Ev
oij:__ZN6il2cpp2gc16GarbageCollector14CollectALittleEv
yIh:__ZL87Sprite_t280657092_CustomAttributesCacheGenerator_Sprite_INTERNAL_get_border_m3728071101P21CustomAttributesCache
w8b:__ZNK9HPlayable15GetPlayableTypeEv
OYg:__Z117RuntimeInvoker_Void_t1185182177_CustomAttributeTypedArgumentU5BU5DU26_t2503877664_Int32_t2950945753_Int32_t2950945753PFvvEPK10MethodInfoPvPS4_
Xyb:__ZL17Transfer_GUIStyleI18StreamedBinaryReadILb1EELb1EEvRK29SerializationCommandArgumentsR31RuntimeSerializationCommandInfo
JVe:_RectMask2D_IsRaycastLocationValid_m1652308696
AUi:__ZN6il2cpp6icalls8mscorlib6SystemL9IsPrivateEPK12PropertyInfo
zmi:_X501_ToString_m1148552872
evg:_RectTransform_add_reapplyDrivenProperties_m1374850920
V9:__ZN9shadertag10InitializeEv
uVg:__Z69RuntimeInvoker_Void_t1185182177_Int32_t2950945753_Color32_t2600501292PFvvEPK10MethodInfoPvPS4_
YNb:__ZN13BatchRenderer20RenderSingleWithPassER17ShaderPassContextPK18SharedMaterialDataP6ShaderPN9ShaderLab4PassEiPKNS7_10GrabPassesEjib15BatchBreakCause
QNi:__ZN15dense_hashtableINSt3__24pairIK10KeyWrapperIPK19Il2CppGenericMethodEPK26Il2CppGenericMethodIndicesEES6_N6il2cpp8metadata23Il2CppGenericMethodHashEN14dense_hash_mapIS6_SA_SE_NS6_14EqualsComparerINSD_26Il2CppGenericMethodCompareEEENS0_9allocatorISB_EEE9SelectKeyESI_SK_ED2Ev
D5a:__ZN15QualitySettings14QualitySetting8TransferI24GenerateTypeTreeTransferEEvRT_
Jrj:__ZN6il2cpp5utils6Memory11AlignedFreeEPv
Bae:_Context_get_ClientWriteKey_m3174706656
XRh:__ZL77ExecuteEvents_t3484638744_CustomAttributesCacheGenerator_U3CU3Ef__mgU24cache7P21CustomAttributesCache
bPe:_InputField_get_textComponent_m948764648
Bkc:__Z44Register_UnityEngine_Object_DestroyImmediatev
CBd:_Convert_ToSingle_m835189399
O9b:__ZN22BlockMemoryCacheWriter14LockCacheBlockEjPPhS1_
Vmc:__ZNSt3__218__insertion_sort_3IRPFbPKN5IMGUI9GUIWindowES4_EPPS2_EEvT0_SA_T_
Dfd:_CryptographicUnexpectedOperationException__ctor_m69881930
Pwh:__ZL73TripleDESCryptoServiceProvider_t3595206342_CustomAttributesCacheGeneratorP21CustomAttributesCache
Cbh:_Collection_1_SetItem_m1218178236_gshared
Quc:__Z22TransferField_NonArrayI8JSONRead27Converter_SimpleNativeClassI8GUIStyleEEvRK23StaticTransferFieldInfoR31RuntimeSerializationCommandInfoRT0_
POi:__ZN15dense_hashtableI10KeyWrapperIPK19Il2CppGenericMethodES4_N6il2cpp8metadata23Il2CppGenericMethodHashEN14dense_hash_setIS4_S7_NS4_14EqualsComparerINS6_26Il2CppGenericMethodCompareEEENSt3__29allocatorIS4_EEE8IdentityESB_SE_E16reset_thresholdsEv
Kg:_llvm_eh_typeid_for
q2b:__Z13RegisterClassI10GameObjectEvv
_vd:_CollectionBase_OnClear_m883003723
oJe:_RemotingServices_FindInterfaceMethod_m2125212568
nz:__ZNK23AnimationPlayableOutput7GetTypeEv
AMd:_StreamWriter__cctor_m1229272693
ABf:_Enum_System_IConvertible_ToSByte_m779472798
Icg:_Type_get_IsInterface_m3284996719
Uje:_InternalEnumerator_1_MoveNext_m1543390728_gshared
jBb:__Z18Transfer_BlittableI18StreamedBinaryReadILb0EELb1E8Vector4fEvRK29SerializationCommandArgumentsR31RuntimeSerializationCommandInfo
MFf:_SortKey_get_OriginalString_m1428586816
yVg:__Z51RuntimeInvoker_Void_t1185182177_Vector4_t3319028937PFvvEPK10MethodInfoPvPS4_
xTf:_Dictionary_2_U3CCopyToU3Em__0_m2023886030_gshared
PVg:__Z64RuntimeInvoker_Boolean_t97287965_RefEmitPermissionSet_t484390987PFvvEPK10MethodInfoPvPS4_
DIj:_glBindVertexArray__wrapper
Vcd:_SerializationInfo__ctor_m2923079689
F$a:__ZN8Material8TransferI14SafeBinaryReadEEvRT_
Q1a:__ZN12CubemapArray17UploadToGfxDeviceEv
cdi:_Func_2__ctor_m1150804732_gshared
BDd:_Int32_JumpOverWhite_m208298144
A6i:__ZN24dense_hashtable_iteratorINSt3__24pairIK10KeyWrapperIP11Il2CppClassES4_EES5_N6il2cpp8metadata16SZArrayClassHashEN14dense_hash_mapIS5_S4_SA_NS5_14EqualsComparerINS9_19SZArrayClassCompareEEENS0_9allocatorIS7_EEE9SelectKeyESE_SG_E30advance_past_empty_and_deletedEv
nXg:__Z53RuntimeInvoker_Int32_t2950945753_UIVertex_t4057497605PFvvEPK10MethodInfoPvPS4_
EHj:_emscripten_glGetUniformiv__wrapper
Alj:__ZN6il2cpp2vm13ManagedObject14QueryInterfaceERK10Il2CppGuidPPv
YG:__ZN11AudioSource4StopEb
Rqb:__ZN14SafeBinaryRead21TransferSTLStyleArrayI13dynamic_arrayI10Matrix4x4fLj4EEEEvRT_17TransferMetaFlags
oTa:__ZN15LODGroupManager26CollectAllLODGroupManagersERK16CoreCameraValuesR13dynamic_arrayIPS_Lj4EEb
jqj:__ZN6il2cpp2os14WindowsRuntime13DeleteHStringEP15Il2CppHString__
sfg:_UInt32_System_IConvertible_ToUInt32_m1744564280_AdjustorThunk
yHa:__ZN18GlslGpuProgramGLESD2Ev
cZb:__ZN13RenderTexture14SetVolumeDepthEi
uS:__ZN11UnityEngine15CloudWebService14DataErrorEvent12ToJsonStringERN4core12basic_stringIcNS2_20StringStorageDefaultIcEEEEjPKc
vNg:__Z86RuntimeInvoker_Void_t1185182177_UInt16_t2177724958_SByte_t1669577662_SByte_t1669577662PFvvEPK10MethodInfoPvPS4_
Uma:__Z22LoadGpuProgramFromDataPKhS0_Rj
uvc:__ZN10Matrix4x4f8TransferI8JSONReadEEvRT_
MIc:__ZN14SafeBinaryRead21TransferSTLStyleArrayI13dynamic_arrayIN4core17string_with_labelILi35EEELj4EEEEvRT_17TransferMetaFlags
tVe:_PositionAsUV1_ModifyMesh_m4231919476
Ewd:_Hashtable__ctor_m1941859523
Nvi:_WindowFunction__ctor_m2544237635
Yue:_Comparer_1_get_Default_m1947376189_gshared
WXe:_ScrollRect_set_horizontalScrollbarSpacing_m2209919081
PY:__ZN17PersistentManager18ReadObjectThreadedEi
nEa:__ZN25TransformFeedbackSkinning31CleanupTransformFeedbackShadersEv
cTa:__Z22scripting_object_unbox18ScriptingObjectPtr
lIe:_AsyncResult_get_NextSink_m1844209137
SJc:__ZNK20TextRenderingPrivate8FontImpl19GetCharacterAdvanceEjijfPj
ZNf:_Array_InternalArray__ICollection_Add_TisUriScheme_t722425697_m3142345403_gshared
Puj:_fmt_u
W0h:_Dictionary_2_Do_CopyTo_TisDictionaryEntry_t3123975638_TisDictionaryEntry_t3123975638_m1126292988_gshared
q7a:__ZN10VertexData8TransferI18StreamedBinaryReadILb0EEEEvRT_
Qtj:__ZN6il2cpp8metadata25Il2CppGenericClassCompare7CompareEPK18Il2CppGenericClassS4_
oQd:_MonoType_get_Assembly_m4290914179
Rlh:__ZL70RuntimeArray_CustomAttributesCacheGenerator_Array_GetValue_m1062368071P21CustomAttributesCache
Ona:__ZN9ShaderLab7ProgramC2E10MemLabelIdi10ShaderType
oZb:__ZN14PreloadManager16UpdatePreloadingEv
j2:__ZN12BaseRendererD2Ev
Gqf:_String_LastIndexOf_m95398196
w_h:_Array_InternalArray__set_Item_TisUILineInfo_t4195266810_m2313892078_gshared
xqe:_InternalEnumerator_1_System_Collections_IEnumerator_Reset_m3355902602_AdjustorThunk
Rrg:_PlayableAsset__ctor_m2395156306
vTh:__ZL79StandaloneInputModule_t2760469101_CustomAttributesCacheGenerator_m_SubmitButtonP21CustomAttributesCache
RV:__ZNK21UnityDefaultAllocatorI17LowLevelAllocatorE8ContainsEPKv
RSi:__ZNSt3__213__vector_baseI6pollfdNS_9allocatorIS1_EEED2Ev
_dd:_RuntimeTypeHandle_Equals_m2857439487
Uh:_emscripten_get_main_loop_timing
g5d:_SafeHandle_Finalize_m3866180675
C5a:__ZN24GenerateTypeTreeTransfer21TransferSTLStyleArrayINSt3__26vectorIN15QualitySettings14QualitySettingENS1_9allocatorIS4_EEEEEEvRT_17TransferMetaFlags
dLd:_MemoryStream_ToArray_m3911744835
jxe:_Enumerator_System_Collections_IDictionaryEnumerator_get_Entry_m859540448_AdjustorThunk
YTg:__Z72RuntimeInvoker_Boolean_t97287965_RaycastHitU26_t2429360258_RuntimeObjectPFvvEPK10MethodInfoPvPS4_
Etj:__ZN6il2cpp2os5Event4WaitEjb
jdg:_Type_GetHashCode_m1947148725
FIg:__Z91RuntimeInvoker_Void_t1185182177_RuntimeObject_RuntimeObject_RuntimeObject_SByte_t1669577662PFvvEPK10MethodInfoPvPS4_
zjb:__ZNK2UI13RectTransform22GetTypeVirtualInternalEv
ep:getTempRet0
knf:_StrongName_get_Version_m4243032012
une:_InternalEnumerator_1_MoveNext_m2234422530_gshared
lYi:__ZN6il2cpp2gc19AppendOnlyGCHashMapINSt3__24pairIPK14Il2CppAssemblyP11Il2CppClassEEP24Il2CppReflectionAssembly17ReflectionMapHashIS9_ENS2_8equal_toIS9_EEE10CopyValuesEPv
E_c:_BaseRaycaster_OnEnable_m2678466030
vwe:_Enumerator_get_CurrentKey_m627428048_AdjustorThunk
_mg:_UnityEventBase__ctor_m1851535676
u0h:_Array_Sort_TisVector4_t3319028937_m2797285308_gshared
sde:_HandshakeMessage_Update_m2417837686
oih:_Collection_1_System_Collections_IList_get_Item_m3314684800_gshared
m8i:__ZN6il2cpp6icalls8mscorlib6System9ThreadingL21lookup_cached_cultureEP12Il2CppThreadi
Kpj:__ZN6il2cpp2os11EventHandleD2Ev
vmg:_NetFxCoreExtensions_CreateDelegate_m751211712
oUb:__ZN18DeferredRenderLoopD2Ev
kJi:_AnimationLayerMixerPlayable__cctor_m4086299972
J2:__ZNK16TypeTreeIterator4NameEv
ogh:_Collection_1_CopyTo_m756458445_gshared
X0:__ZN15FileSystemEntry3SetEPKc
cVd:_ConstructorBuilder_Invoke_m3010446651
y3c:_AspectRatioFitter_get_aspectMode_m3735191157
zec:__Z52Register_UnityEngine_Application_set_targetFrameRatev
iaf:_IPv6Address_set_ScopeId_m3907190992
H4h:_ReadOnlyCollection_1_System_Collections_Generic_IListU3CTU3E_Insert_m568455025_gshared
OI:__ZN20SoundChannelInstance15ParameterBuffer5ApplyEPN4FMOD7ChannelE
Y9e:_IPv6Address__ctor_m4117281080
QGh:__ZL88GameObject_t1113636619_CustomAttributesCacheGenerator_GameObject_SendMessage_m3720186693P21CustomAttributesCache
PJc:__ZN20TextRenderingPrivate19NativeTextGenerator9InsertTabEv
gzj:_sbrk
ERg:__Z66RuntimeInvoker_Boolean_t97287965_Vector2_t2156229523_RuntimeObjectPFvvEPK10MethodInfoPvPS4_
Odh:_Collection_1_System_Collections_Generic_ICollectionU3CTU3E_get_IsReadOnly_m1032650589_gshared
_1f:_Enumerator_VerifyState_m3474272061_AdjustorThunk
zTc:__ZN11UnityEngine15PlatformWrapper24GetRuntimePlatformStringEv
Ei:_glIsEnabled
Zib:__ZN15CacheWriterBaseD2Ev
IUd:_DerivedType__ctor_m1853298054
Gpb:__Z25scripting_class_get_image17ScriptingClassPtr
Inf:_SecurityException__ctor_m836898292
L3f:_List_1_RemoveAt_m2730968292_gshared
Yfb:__ZNSt3__26vectorIN4core12basic_stringIcNS1_20StringStorageDefaultIcEEEE13stl_allocatorIS5_L18MemLabelIdentifier13ELi16EEEC2INS_11__wrap_iterIPS5_EEEET_SE_RKS8_PNS_9enable_ifIXaasr21__is_forward_iteratorISE_EE5valuesr16is_constructibleIS5_NS_15iterator_traitsISE_E9referenceEEE5valueEvE4typeE
Ii:_emscripten_glDrawElementsInstanced
ay:__ZN26AnimatorControllerPlayable27SetupStateMachineBehavioursEv
$Jf:_Array_InternalArray__IEnumerable_GetEnumerator_TisSlot_t3975888750_m1869932007_gshared
HSe:_LayoutGroup_get_preferredWidth_m3816902260
SUa:__ZN18JobBatchDispatcherD2Ev
ujb:__ZN9Transform17MainThreadCleanupEv
roj:_GC_clear_hdr_marks
zJj:_emscripten_glCreateShader__wrapper
Zxc:_cff_fd_select_get
c$e:_Text_set_resizeTextForBestFit_m4095249125
fcf:_OidEnumerator_MoveNext_m3138911739
_Vg:__Z53RuntimeInvoker_Boolean_t97287965_Keyframe_t4206410242PFvvEPK10MethodInfoPvPS4_
Ti:_emscripten_glGetShaderiv
OJ:__ZN4FMOD6System10getVersionEPj
_Mc:__ZN2UI6Canvas23VirtualRedirectTransferER24GenerateTypeTreeTransfer
lZe:_Selectable_set_animationTriggers_m2970345687
_gh:_Collection_1_CopyTo_m4271769704_gshared
Ysc:__ZN9JSONWrite8TransferIN4math12int2_storageEEEvRT_PKc17TransferMetaFlags
yIc:__ZN13TextRendering4Font13AwakeFromLoadE17AwakeFromLoadMode
ZDf:_CompareInfo_LastIndexOf_m2688553706
oBf:_Enum__ctor_m3602080049
dqa:__ZN9GfxDevice21ReleaseSharedMeshDataEP14SharedMeshData
u1c:_MouseState__ctor_m1467839005
Tti:_Uri_IsDomainAddress_m2867513594
fdb:__ZNSt3__27__sort5IRNS_6__lessINS_4pairIPKN5Unity4TypeE7Hash128EES8_EEPS8_EEjT0_SC_SC_SC_SC_T_
Izh:__ZL79Convert_t2465617642_CustomAttributesCacheGenerator_Convert_ToDouble_m2949593046P21CustomAttributesCache
C8c:_Dropdown_CreateItem_m2954407740
ynj:_GC_unreachable_finalize_mark_proc
Cdf:_X509Chain_ProcessCrlExtensions_m236234529
Woj:_maybe_finalize
JMi:__ZN6il2cpp2vm5Class40GetInterfaceInvokeDataFromVTableSlowPathEPK12Il2CppObjectPK11Il2CppClassj
rMf:_Array_InternalArray__IndexOf_TisLabelData_t360167391_m1826525656_gshared
dic:__Z43RectTransform_CUSTOM_INTERNAL_get_anchorMaxP12Il2CppObjectP13Vector2fIcall
aHi:_TextGenerator_INTERNAL_CALL_Populate_Internal_cpp_m4171649399
GGe:_RealProxy_get_ObjectIdentity_m2790771985
TFe:_RemotingConfiguration_RegisterChannelTemplate_m3105688054
exf:_Decimal_Parse_m942471224
Z3a:__ZN8Material28UpdateHashesOnPropertyChangeEN9ShaderLab16FastPropertyNameE
Fch:_Collection_1_System_Collections_IList_get_Item_m1368877441_gshared
Dqh:__ZL56MethodBuilder_t2807316753_CustomAttributesCacheGeneratorP21CustomAttributesCache
p5d:_Locale_GetText_m3520169047
Nic:__Z53Register_UnityEngine_SortingLayer_GetLayerValueFromIDv
hHh:__ZL85RectOffset_t1369453676_CustomAttributesCacheGenerator_RectOffset_set_right_m807318764P21CustomAttributesCache
yob:__Z18Transfer_BlittableI14SafeBinaryReadLb1E8Vector4fEvRK29SerializationCommandArgumentsR31RuntimeSerializationCommandInfo
hWi:_SessionStateChanged_EndInvoke_m3128001178
E3c:_AspectRatioFitter_SetDirty_m2910185270
ZL:__ZN11AudioSource12AddToManagerEv
Os:__ZN8Animator23VirtualRedirectTransferER19StreamedBinaryWriteILb0EE
Jz:__ZN11UnityEngine9Animation32CreateAnimatorGenericBindingsOptERKNS0_20AnimationSetBindingsER9TransformPKN7mecanim9animation14AvatarConstantEPKNS0_21AvatarBindingConstantEbRNS6_6memory9AllocatorER8Animator
ocj:__ZN6il2cpp2vm5Image13ClassFromNameEPK11Il2CppImagePKcS6_
Lzj:dynCall_vdddddd
Dka:__ZN24GenerateTypeTreeTransfer21TransferSTLStyleArrayINSt3__26vectorIN9ShaderLab14SerializedPassENS1_9allocatorIS4_EEEEEEvRT_17TransferMetaFlags
taa:__ZL32MarkLevelGameManagerDependenciesR27GarbageCollectorThreadState
Bsa:__ZNK13GfxDeviceGLES26HasActiveRandomWriteTargetEv
G6i:__GLOBAL__sub_I_Thread_cpp
gnh:__ZL54_MemberInfo_t3922476713_CustomAttributesCacheGeneratorP21CustomAttributesCache
tEj:_glGetActiveUniformsiv__wrapper
Kic:__Z43Register_UnityEngine_Material_EnableKeywordv
zqg:_Mesh_GetIndices_m2873123901
h_:__ZN13MonoBehaviour19SetupScriptingCacheE17ScriptingClassPtrP10MonoScript
iTi:__ZNSt3__214__split_bufferIP12Il2CppThreadRNS_9allocatorIS2_EEED2Ev
cs:__Z20AnimationEventToMonoRK14AnimationEventR18MonoAnimationEvent
RTg:__Z106RuntimeInvoker_Void_t1185182177_Single_t1397266774_Single_t1397266774_Single_t1397266774_Int32_t2950945753PFvvEPK10MethodInfoPvPS4_
P6c:_FloatTween_set_targetValue_m3604919944_AdjustorThunk
wZ:__ZN17PersistentManager29ReadAndActivateObjectThreadedEiRK26SerializedObjectIdentifierP14SerializedFilebb
Xsd:_ArrayList_get_IsReadOnly_m913775115
i1c:_PointerEventData_get_dragging_m746831934
Xcg:_Type_get_TypeHandle_m160082026
qai:_ReadOnlyCollection_1_System_Collections_IEnumerable_GetEnumerator_m2781605075_gshared
Wda:__ZZN15DirectorManager15InitializeClassEvEN52PreLateUpdateDirectorUpdateAnimationBeginRegistrator7ForwardEv
LGf:_Array_get_swapper_TisCustomAttributeNamedArgument_t287865710_m4254011335_gshared
Gad:_Graphic_RegisterDirtyMaterialCallback_m106898453
cwi:_GUILayoutEntry_get_margin_m3174861737
mKa:__ZN4PPtrI6SpriteE8TransferI14SafeBinaryReadEEvRT_
_Vf:_EqualityComparer_1_System_Collections_IEqualityComparer_Equals_m1672604045_gshared
E5i:__ZN15dense_hashtableINSt3__24pairIK10KeyWrapperIP11Il2CppClassES4_EES5_N6il2cpp8metadata16SZArrayClassHashEN14dense_hash_mapIS5_S4_SA_NS5_14EqualsComparerINS9_19SZArrayClassCompareEEENS0_9allocatorIS7_EEE9SelectKeyESE_SG_E16reset_thresholdsEv
I5g:_List_1_GetEnumerator_m2095602005_gshared
Vja:__ZNSt3__26vectorIN9ShaderLab14SerializedPassENS_9allocatorIS2_EEE8__appendEj
eja:__ZNSt3__26vectorIN9ShaderLab20SerializedSubProgram13BufferBindingENS_9allocatorIS3_EEEC2INS_11__wrap_iterIPS3_EEEET_SB_RKS5_PNS_9enable_ifIXaasr21__is_forward_iteratorISB_EE5valuesr16is_constructibleIS3_NS_15iterator_traitsISB_E9referenceEEE5valueEvE4typeE
C$g:__Z37RuntimeInvoker_Enumerator_t3436819725PFvvEPK10MethodInfoPvPS4_
nsg:_PlayableOutputHandle_op_Equality_m388301694
X5f:_Encoding_get_ISOLatin1_m2107621369
w6d:_BigInteger_op_Inequality_m2697143438
WHh:__ZL89Mathf_t3464937446_CustomAttributesCacheGenerator_Mathf_SmoothDamp_m394423605____maxSpeed4P21CustomAttributesCache
flh:__ZL72IntPtr_t_CustomAttributesCacheGenerator_IntPtr_op_Inequality_m3063970704P21CustomAttributesCache
imi:_SafeBag_get_ASN1_m2293701606
G3a:__ZN9Texture2D23VirtualRedirectTransferER18StreamedBinaryReadILb0EE
wtf:_DateTime_System_IConvertible_ToDouble_m2116720007_AdjustorThunk
ovd:_BitArrayEnumerator__ctor_m2359341397
l0f:_Enumerator_MoveNext_m1177880931_gshared
J1a:__ZNK12CubemapArray12GetDataWidthEv
wte:_DefaultComparer__ctor_m3288720761_gshared
DWg:__Z102RuntimeInvoker_Int32_t2950945753_RuntimeObject_Vector2_t2156229523_Int32_t2950945753_Int32_t2950945753PFvvEPK10MethodInfoPvPS4_
JNi:__ZN30dense_hashtable_const_iteratorINSt3__24pairIK10KeyWrapperIPKcEP11Il2CppClassEES5_N6il2cpp5utils11StringUtils12StringHasherIS4_EEN14dense_hash_mapIS5_S8_SE_NS5_14EqualsComparerINSB_13VmStringUtils21CaseSensitiveComparerEEENS0_9allocatorIS9_EEE9SelectKeyESJ_SL_E30advance_past_empty_and_deletedEv
UMh:__ZL73g_UnityEngine_TextRenderingModule_Assembly_CustomAttributesCacheGeneratorP21CustomAttributesCache
F$:__ZN16ScriptingManager27NativeTypeForScriptingClassE17ScriptingClassPtr
Tfg:_UInt64_System_IConvertible_ToDateTime_m3434604642
Scg:_Type_get_IsSerializable_m1040556850
NCc:_get_sfnt_table
t$h:_Array_Resize_TisUIVertex_t4057497605_m1219201596_gshared
fqh:__ZL55StreamWriter_t1266378904_CustomAttributesCacheGeneratorP21CustomAttributesCache
$Ce:_Dictionary_2_System_Collections_ICollection_get_IsSynchronized_m256515291_gshared
tX:__ZN8Renderer20RendererAddedToSceneEv
JVb:__ZL22ScheduleSceneNodesJobsP25ScheduleSceneNodesJobDataj
Jk:_emscripten_set_canvas_size
K9c:_Graphic_SetVerticesDirty_m2124914069
aEf:_CultureInfo__ctor_m3285927757
wUe:_MaskableGraphic_get_rootCanvasRect_m3492154629
o$h:_Array_Resize_TisRaycastResult_t3360306849_m1811054291_gshared
o5h:_ReadOnlyCollection_1_System_Collections_Generic_ICollectionU3CTU3E_get_IsReadOnly_m3152485890_gshared
zja:__ZNSt3__26vectorIN9ShaderLab20SerializedSubProgramENS_9allocatorIS2_EEE8__appendEj
zW:__ZN20DynamicHeapAllocatorI17LowLevelAllocatorE8AllocateEji
Axi:_Locale_GetText_m2427493201
DOb:__ZN20DynamicPropertySheet15SetVectorQueuedERKN9ShaderLab16FastPropertyNameERK8Vector4fN19ShaderPropertySheet8SetFlagsE
wA:__ZN7mecanim9animation22EvaluateAvatarRetargetEPKNS0_14AvatarConstantEPKNS0_11AvatarInputEPNS0_12AvatarOutputEPNS0_12AvatarMemoryEPNS0_15AvatarWorkspaceEb
Hqe:_InternalEnumerator_1_System_Collections_IEnumerator_Reset_m996811230_AdjustorThunk
RXa:__ZN14RenderSettings23VirtualRedirectTransferER19StreamedBinaryWriteILb0EE
UUd:_ConstructorBuilder_get_TypeBuilder_m2755629087
vrc:__ZL26Transfer_SimpleNativeClassI9JSONWrite10RectOffsetLb0EEvRK29SerializationCommandArgumentsR31RuntimeSerializationCommandInfo
Snj:_GC_push_conditional
Ewa:__ZN17GenericDynamicVBO10AllocateVBEjR21DynamicVBOChunkHandle
Vwf:_DBNull_ToString_m3638608738
rdj:__ZN30dense_hashtable_const_iteratorI10KeyWrapperIP18Il2CppGenericClassES3_N6il2cpp8metadata22Il2CppGenericClassHashEN14dense_hash_setIS3_S6_NS3_14EqualsComparerINS5_25Il2CppGenericClassCompareEEENSt3__29allocatorIS3_EEE8IdentityESA_SD_EppEv
lvd:_BitArray_Clone_m3537018332
hNe:_ObjectRecord_UnchainFixup_m3191243952
xki:_TlsStream_get_CanWrite_m16389328
GOg:__Z65RuntimeInvoker_RuntimeObject_RuntimeObject_Vector3U26_t3464235976PFvvEPK10MethodInfoPvPS4_
hl:_glMapBufferRange
y3a:__ZN9Texture2D8TransferI18StreamedBinaryReadILb0EEEEvRT_
dhc:__Z31Input_CUSTOM_GetMouseButtonDowni
E8b:__ZN13PlayableGraph4PlayEv
Z7b:__Z29AddCanvasIntermediateRendererPN2UI6CanvasEPNS_13CanvasBuffersEP17VertexDeclarationjRK10Matrix4x4ftRK4AABB4PPtrI8MaterialEi17ShadowCastingModebP6Camerab
Yqf:_String_Format_m3339413201
V4f:_EncoderExceptionFallbackBuffer_get_Remaining_m1573636148
rQd:_MonoType_get_BaseType_m1098640416
rLa:__ZN13LoadOperation19IntegrateTimeSlicedEi
Qki:_TlsStream_Read_m3392972801
zDi:__ZL25UnresolvedVirtualCall_132P12Il2CppObject17Color_t2555686324faaaPK10MethodInfo
Msa:__ZN13GfxDeviceGLES22DispatchComputeProgramE12ObjectHandleI18ComputeProgram_TagPvE15ComputeBufferIDj
LJb:__ZN20DefaultGfxDeviceImpl32InitStereoGlobalsBuffersPlatformEiijPKv
E6f:_Latin1Encoding_GetString_m254210343
Bhb:__Z17TransformAABBSlowRK4AABBRK10Matrix4x4fRS_
Rnd:_Array_combsort_m4052486289
_6a:__ZN15SerializeTraitsI13dynamic_arrayI12SpriteVertexLj4EEE19ResizeSTLStyleArrayERS2_i
h4f:_List_1_System_Collections_ICollection_get_SyncRoot_m314215814_gshared
Wha:__ZN9ShaderLab21SerializedShaderState8TransferI14SafeBinaryReadEEvRT_
qCf:_Environment_GetWindowsFolderPath_m1738399646
xah:_Queue_1_System_Collections_Generic_IEnumerableU3CTU3E_GetEnumerator_m2263220760_gshared
N7g:_List_1_Sort_m378918663_gshared
_yc:_cf2_stack_pushInt
HD:__ZN7mecanim9animation20DestroyLayerConstantEPNS0_13LayerConstantERNS_6memory9AllocatorE
nA:__ZN8Animator19FireAnimationEventsERNS_11AnimatorJobE
N$d:_Module_GetCustomAttributes_m76573271
vfd:_CryptoConfig_EncodeOID_m2635914623
Fka:__ZN15SerializeTraitsINSt3__24pairIN4core12basic_stringIcNS2_20StringStorageDefaultIcEEEES6_EEE8TransferI24GenerateTypeTreeTransferEEvRS7_RT_
UGj:b89
TGj:b88
tGj:b81
sGj:b80
iFa:__ZN7ApiGLES19CreateSparseTextureEjj14GraphicsFormatiiiiRiS1_S1_
n0:__ZN18ResourceImageGroup7CleanupEv
MGj:b85
LGj:b84
OGj:b87
NGj:b86
Ap:__ZN11Quaternionf8TransferI24GenerateTypeTreeTransferEEvRT_
tKe:_RemotingSurrogateSelector_GetSurrogate_m3900875713
sNg:__Z69RuntimeInvoker_Boolean_t97287965_UInt16_t2177724958_Int16_t2552820387PFvvEPK10MethodInfoPvPS4_
N7h:_ReadOnlyCollection_1_System_Collections_IList_get_IsReadOnly_m3626439112_gshared
M9d:_CertificateValidationCallback_Invoke_m1014111289
PYa:__ZN8Playable19SetOutputConnectionEPS_i
Aih:__ZN23InterfaceActionInvoker2Ii19Vector2_t2156229523E6InvokeEjP11Il2CppClassP12Il2CppObjectiS0_
_Mi:__ZN15dense_hashtableINSt3__24pairIK10KeyWrapperIPK11Il2CppClassEPKcEES6_N6il2cpp5utils11PointerHashIS3_EEN14dense_hash_mapIS6_S9_SE_NS6_14EqualsComparerINS0_8equal_toIS5_EEEENS0_9allocatorISA_EEE9SelectKeyESJ_SL_EC2ERKSO_j
Wl:_glDeleteShader
HAa:__ZN6prcoreL17RemapGenericFloatI15TexFormatRGHalf16TexFormatRGFloatEEvPKNS_9InnerInfoE
f0h:_Array_Sort_TisUICharInfo_t75501106_m128665067_gshared
rBc:_otv_GSUB_validate
jjf:_RSAPKCS1SignatureDeformatter_SetHashAlgorithm_m1602190713
sBf:_Enum_System_IConvertible_ToByte_m1219166845
BCe:_Dictionary_2_CopyToCheck_m45332585_gshared
o5g:_List_1_System_Collections_ICollection_get_IsSynchronized_m3630704857_gshared
rke:_InternalEnumerator_1_System_Collections_IEnumerator_Reset_m4239728915_AdjustorThunk
cdc:__Z27scripting_add_internal_callPKcPKv
whh:__ZN21InterfaceFuncInvoker1Ib20UIVertex_t4057497605E6InvokeEjP11Il2CppClassP12Il2CppObjectS0_
w2i:__ZN13Il2CppHashMapINSt3__24pairIPK9EventInfoP11Il2CppClassEEj17ReflectionMapHashIS7_ENS0_8equal_toIS7_EENS0_9allocatorINS1_IK10KeyWrapperIS7_EjEEEEEC2EjRKS9_RKSB_
hej:__GLOBAL__sub_I_GarbageCollector_cpp
d5:__Z17GetPlayerSettingsv
WA:__ZN34BlobWriteTransferSTLStyleArrayImplI22OffsetPtrArrayTransferIiEEclERS1_17TransferMetaFlagsR9BlobWrite
_Xh:__ZL156U3CDelayUpdateU3Ec__Iterator0_t299064644_CustomAttributesCacheGenerator_U3CDelayUpdateU3Ec__Iterator0_System_Collections_IEnumerator_get_Current_m2906633870P21CustomAttributesCache
nog:_Input_get_inputString_m1307069105
F0d:_MonoField_get_FieldHandle_m3729647377
tXe:_ScrollRect_get_content_m2477524320
rxe:_Enumerator_MoveNext_m1556953412_AdjustorThunk
jt:__ZN26AnimatorControllerPlayable18SetLayerAutoWeightEv
oSc:__Z44Register_UnityEngine_Canvas_get_pixelPerfectv
Rsi:_Literal_GetAnchorInfo_m810577400
UJh:__ZL101RectTransform_t3704657025_CustomAttributesCacheGenerator_RectTransform_INTERNAL_set_pivot_m1160676233P21CustomAttributesCache
zPc:__ZN2UI14CanvasRenderer12SyncMaterialENS0_8SyncFlagE
MMd:_StreamWriter_Write_m1660535366
_Xg:__Z66RuntimeInvoker_Void_t1185182177_Int32_t2950945753_Link_t3209266973PFvvEPK10MethodInfoPvPS4_
Prj:__ZN6il2cpp2vm9Parameter30GetDefaultParameterValueObjectEPK10MethodInfoPK13ParameterInfoPb
x8f:_UTF8Encoding_GetByteCount_m4152118078
CXg:__Z71RuntimeInvoker_Void_t1185182177_CustomAttributeNamedArgument_t287865710PFvvEPK10MethodInfoPvPS4_
j5e:_KeyPairPersistence__CanSecure_m3516574278
qDe:_Dictionary_2_make_pair_m3116882385_gshared
oJg:__Z95RuntimeInvoker_Void_t1185182177_RuntimeObject_RuntimeObject_Int32_t2950945753_SByte_t1669577662PFvvEPK10MethodInfoPvPS4_
Vhd:_MD5CryptoServiceProvider_Dispose_m3502499818
Meh:_Collection_1_System_Collections_IList_get_Item_m2422562729_gshared
pQg:__Z87RuntimeInvoker_Void_t1185182177_RuntimeObject_StringU26_t181565287_StringU26_t181565287PFvvEPK10MethodInfoPvPS4_
mve:_Comparer_1_get_Default_m1596450988_gshared
bmh:__ZL74RuntimeArray_CustomAttributesCacheGenerator_Array_BinarySearch_m3171087170P21CustomAttributesCache
Clh:__ZL72Enum_t4135868527_CustomAttributesCacheGenerator_Enum_ToObject_m122225012P21CustomAttributesCache
ADc:_UNITY_tt_face_done_kern
Gae:_SecurityParameters_get_ServerWriteMAC_m3430427271
dPh:__ZL90GUIStyle_t3956901511_CustomAttributesCacheGenerator_GUIStyle_get_stretchHeight_m4172805773P21CustomAttributesCache
Rhe:_ArrayReadOnlyList_1_RemoveAt_m2104218585_gshared
qab:__ZN12BoneWeights48TransferI24GenerateTypeTreeTransferEEvRT_
qKf:_Array_InternalArray__IEnumerable_GetEnumerator_TisParameterModifier_t1461694466_m3675077728_gshared
QFi:_InputBuffer_GetCurrentInputLine_m3377313537
xWh:__ZL60RawImage_t3182918964_CustomAttributesCacheGenerator_m_UVRectP21CustomAttributesCache
pGb:__Z19scripting_gc_enablev
bre:_InternalEnumerator_1_get_Current_m2907722321_gshared
rKb:__ZZ23InitPlayerLoopCallbacksvEN41InitializationPlayerUpdateTimeRegistrator7ForwardEv
Occ:__ZN11UTF16StringC2ERKS_10MemLabelId
I_b:__Z29StdTemplateConversionFunctionIihEbPvR14SafeBinaryRead
mse:_InternalEnumerator_1_get_Current_m3792939945_AdjustorThunk
pRc:__Z55Register_UnityEngine_CanvasRenderer_DisableRectClippingv
R9a:__ZN14SafeBinaryRead21TransferSTLStyleArrayI13dynamic_arrayI11ColorRGBA32Lj4EEEEvRT_17TransferMetaFlags
tub:__ZL26Transfer_SimpleNativeClassI24GenerateTypeTreeTransfer8GradientLb0EEvRK29SerializationCommandArgumentsR31RuntimeSerializationCommandInfo
bWh:__ZL118U3CCaretBlinkU3Ec__Iterator0_t2589889038_CustomAttributesCacheGenerator_U3CCaretBlinkU3Ec__Iterator0_Reset_m1547565867P21CustomAttributesCache
LIa:__ZN9GfxDevice22UploadTextureCubeArrayE9TextureIDPKhjii14GraphicsFormati18TextureUploadFlags
Sle:_InternalEnumerator_1_System_Collections_IEnumerator_get_Current_m888718134_gshared
iFg:__Z175RuntimeInvoker_Void_t1185182177_SByte_t1669577662_SByte_t1669577662_SByte_t1669577662_SByte_t1669577662_SByte_t1669577662_SByte_t1669577662_SByte_t1669577662_SByte_t1669577662PFvvEPK10MethodInfoPvPS4_
mrg:_Object_Destroy_m3118546832
muf:_DateTime_FromTicks_m4059645178_AdjustorThunk
h2h:_Array_InternalArray__get_Item_TisClientCertificateType_t1004704908_m2297379651_gshared
UFe:_ConfigHandler_ParseTime_m1787834288
Fma:__ZN9ShaderLab7Program27CreateFromSerializedProgramERKNS_17SerializedProgramE10ShaderTypeiP16PropertyNamesSetPK6Shader
VSd:_Assembly_Load_m3487507613
gXa:__ZNSt3__27__sort4IRNS_6__lessIN4core12basic_stringIcNS2_20StringStorageDefaultIcEEEES6_EEPS6_EEjT0_SA_SA_SA_T_
pAj:dynCall_viiiifii
_0i:__ZN6il2cpp2gc19AppendOnlyGCHashMapINSt3__24pairIPK11Il2CppImageP11Il2CppClassEEP22Il2CppReflectionModule17ReflectionMapHashIS9_ENS2_8equal_toIS9_EEEC2Ev
MY:__Z20GetPersistentManagerv
QGc:_UNITY_TT_Set_Var_Design
j8:__ZN21SystemInfoStringCache16StaticInitializeEPv
Gzh:__ZL80Convert_t2465617642_CustomAttributesCacheGenerator_Convert_ToDecimal_m1695757674P21CustomAttributesCache
mZe:_Selectable_get_targetGraphic_m559777690
I4h:_ReadOnlyCollection_1_System_Collections_Generic_ICollectionU3CTU3E_Remove_m1100818788_gshared
oej:__ZNK10KeyWrapperIP12Il2CppObjectE14EqualsComparerINSt3__28equal_toIS1_EEEclERKS2_S9_
_ia:__ZNSt3__26vectorIN9ShaderLab20SerializedSubProgram15StructParameterENS_9allocatorIS3_EEE6assignIPS3_EENS_9enable_ifIXaasr21__is_forward_iteratorIT_EE5valuesr16is_constructibleIS3_NS_15iterator_traitsISA_E9referenceEEE5valueEvE4typeESA_SA_
wjh:_Collection_1_IsSynchronized_m2291009199_gshared
EDb:__ZNK13MonoBehaviour7GetNameEv
Eib:__ZN19ScriptingInvocation28AdjustArgumentsToMatchMethodEv
aii:_IndexedSet_1_Contains_m1525966688_gshared
zG:__Z15_CheckFMODError11FMOD_RESULTPKciS1_
y7i:__ZN6il2cpp6icalls8mscorlib6SystemL16ThrowInvalidCastEPK11Il2CppClassS5_
RVa:__Z20RenderMultipleMeshesRK15RenderNodeQueueRK18RenderMultipleData17ShaderChannelMask
zXf:_EqualityComparer_1_get_Default_m79107703_gshared
LWc:__ZN11UnityEngine15PlatformWrapper20GetPlayerPrefsStringERKN4core12basic_stringIcNS1_20StringStorageDefaultIcEEEES5_
sUe:_MaskableGraphic_get_maskable_m1260382606
_5f:_Latin1Encoding__ctor_m498920120
OXi:__ZN6il2cpp2vm4Type19GetGenericParameterEPK10Il2CppType
kMd:_StreamReader_Peek_m2272511193
gvf:_DateTimeFormatInfo_FillAllDateTimePatterns_m2683124783
QQc:__Z51Register_UnityEngine_CanvasGroup_get_blocksRaycastsv
kRd:_NumberFormatter_get_IsFloatingSource_m3714711779
_fh:_Collection_1_System_Collections_IList_Add_m1403891193_gshared
xle:_InternalEnumerator_1_System_Collections_IEnumerator_Reset_m169899350_AdjustorThunk
ydg:_Type_GetConstructor_m1195697116
sd:_glBeginQuery
wph:__ZL104RegionInfo_t1090270226_CustomAttributesCacheGenerator_RegionInfo_t1090270226____DisplayName_PropertyInfoP21CustomAttributesCache
FHi:_Canvas_get_scaleFactor_m3314757802
SLb:__ZN6Camera12RenderStereoENS_10RenderFlagE8CullFlagPNS_24PerformEyeRenderFunctionE
Hlb:__ZN20LocalFileSystemPosix10ToAbsoluteEPKc
GVa:__ZN20TierGraphicsSettings8TransferI19StreamedBinaryWriteILb0EEEEvRT_
QJj:b111
Q7:__GLOBAL__sub_I_runtime_input_0_cpp
Skj:__ZN6il2cpp2vm13ComObjectBase16DisconnectObjectEj
_Yf:_GenericComparer_1__ctor_m3652072706_gshared
Bm:f0
aKa:__ZN9BehaviourD0Ev
gVa:__Z32TransferEnumWithNameForceIntSizeI14SafeBinaryRead7HDRModeEvRT_RT0_PKc17TransferMetaFlags
Pvj:_getcwd
DKa:__ZN25ThreadsafeLinearAllocatorD2Ev
Sgb:__Z21SendMessageToEveryoneRK17MessageIdentifier11MessageData
Cca:__ZN21BillboardBatchManager16StaticInitializeEPv
dtf:_DateTime_AbsoluteDays_m4235097773
w9:__ZN12_GLOBAL__N_138ArchiveRedirectFileSystemStaticDestroyEPv
Tmh:__ZL126U3CGetEnumeratorU3Ec__Iterator0_t1202911786_CustomAttributesCacheGenerator_U3CGetEnumeratorU3Ec__Iterator0_Dispose_m2078994225P21CustomAttributesCache
uAg:__Z74RuntimeInvoker_RuntimeObject_RuntimeObject_RuntimeObject_SByte_t1669577662PFvvEPK10MethodInfoPvPS4_
bnh:__ZL69Type_t_CustomAttributesCacheGenerator_Type_GetConstructor_m1195697116P21CustomAttributesCache
D7c:_DefaultControls_CreateScrollView_m3842770629
N1a:__ZN12CubemapArray34UpdateFileTextureUploadInstructionEP26FileAssetUploadInstructionj
qqh:__ZL94EnumBuilder_t2400448213_CustomAttributesCacheGenerator_EnumBuilder_GetConstructors_m3294436155P21CustomAttributesCache
fZg:__Z55RuntimeInvoker_TableRange_t3332867892_Int32_t2950945753PFvvEPK10MethodInfoPvPS4_
Koe:_InternalEnumerator_1_MoveNext_m1020308708_gshared
hFa:__Z23CreateSparseTextureGLES9TextureIDii14GraphicsFormati
ZBc:_otv_Anchor_validate
oGf:_Guid_CompareTo_m243656946_AdjustorThunk
$Cf:_CCMath_mod_m3631663509
acg:_TimeSpan_Negate_m1889505500_AdjustorThunk
d8h:_ReadOnlyCollection_1_System_Collections_ICollection_CopyTo_m2715087453_gshared
AQh:__ZL84Canvas_t3310196443_CustomAttributesCacheGenerator_Canvas_get_scaleFactor_m3314757802P21CustomAttributesCache
Kye:_Transform_1__ctor_m2810088858_gshared
xKc:__ZNSt3__23mapIN20TextRenderingPrivate7FontRefEP11FT_FaceRec_NS_4lessIS2_EENS_9allocatorINS_4pairIKS2_S4_EEEEEixERS9_
WMa:__ZN17ArchiveFileSystem10AddStorageEP20ArchiveStorageReader
ZCi:__ZL25UnresolvedVirtualCall_104P12Il2CppObjectS0_S0_S0_iPK10MethodInfo
hSi:__ZN6il2cpp2vm13MetadataCache37GetParameterDefaultValueDataFromIndexEi
T3i:_il2cpp_class_get_assemblyname
eKg:__Z50RuntimeInvoker_SByte_t1669577662_SByte_t1669577662PFvvEPK10MethodInfoPvPS4_
pad:_Graphic_OnFillVBO_m1026749972
lLi:__ZN6il2cpp2vm5Class15GetEnumBaseTypeEP11Il2CppClass
Nce:_Context_set_WriteSequenceNumber_m942577065
Xd:_glVertexAttrib4fv
jlj:__ZNK6il2cpp5utils13VmStringUtils23CaseInsensitiveComparerclERKNSt3__212basic_stringIcNS3_11char_traitsIcEENS3_9allocatorIcEEEEPKc
L4c:_CanvasScaler_SetScaleFactor_m3006968999
l$g:__Z78RuntimeInvoker_Boolean_t97287965_Navigation_t3049316579_Navigation_t3049316579PFvvEPK10MethodInfoPvPS4_
P2a:__ZNK9Texture2D16GetNpotTexelSizeEv
gRd:_NumberFormatter_Init_m3576155222
sMa:__ZL33FileEntryInfoListToFolderContentsRKN4core12basic_stringIcNS_20StringStorageDefaultIcEEEERK19dynamic_block_arrayI13FileEntryInfoLj32EERNSt3__23setIS3_NSB_4lessIS3_EENSB_9allocatorIS3_EEEE
HTe:_LayoutUtility_GetLayoutProperty_m714717302
yGi:_Terminal_NotifyCommandHandlers_m909296863
M_c:_EventSystem_set_sendNavigationEvents_m983981895
Tpa:__ZN9GfxDevice22GetDefaultVertexBufferE26GfxDefaultVertexBufferTypej
pHf:_Array_InternalArray__ICollection_Contains_TisInt64_t3736567304_m2911357929_gshared
NLb:__ZNK6Camera16GetTargetDisplayEv
Zeh:_Collection_1_Remove_m3022471627_gshared
fwj:___fseeko_unlocked
QRd:_Object_ToString_m1740002499
Zvj:_sscanf
j0c:_ExecuteEvents_GetEventChain_m2404658789
oHb:__Z17BeginSplashScreenv
s$h:_Array_Resize_TisUILineInfo_t4195266810_m3763058392_gshared
Red:_SByte_ToString_m3584531119_AdjustorThunk
wla:__ZN9ShaderLab16SerializedShader8TransferI19StreamedBinaryWriteILb0EEEEvRT_
TC:__ZN7mecanim9animation18CreateAvatarMemoryEPKNS0_14AvatarConstantERNS_6memory9AllocatorE
Krd:_Convert_ToInt32_m1876369743
W5d:_ModulusRing__ctor_m2420310199
_zd:_Convert_ToDateTime_m626620011
Mxe:_Enumerator_System_Collections_IDictionaryEnumerator_get_Key_m2500634048_AdjustorThunk
FB:__ZN7mecanim8skeleton16SkeletonPoseCopyIN4math4trsXENS2_7affineXEEEvPKNS0_13SkeletonPoseTIT_EEPNS5_IT0_EE
Iwb:__Z18Transfer_BlittableI19StreamedBinaryWriteILb0EELb0EaEvRK29SerializationCommandArgumentsR31RuntimeSerializationCommandInfo
N2f:_List_1_Remove_m3037048099_gshared
mwa:__ZN18GfxFramebufferGLES18GetFramebufferNameERK20GfxRenderTargetSetup
bXi:__ZN6il2cpp2vm14TypeNameParser12ParseVersionERKNSt3__212basic_stringIcNS2_11char_traitsIcEENS2_9allocatorIcEEEERtSB_SB_SB_
VQe:_InputField_MoveDown_m1455948167
Jnc:__Z30Event_Get_Custom_PropCharacterP12Il2CppObject
pea:__ZN13PlayableGraph27SchedulePlayableDestructionERK9HPlayable
iBc:_cff_get_mm_var
vDj:_glGetFramebufferAttachmentParameteriv__wrapper
GEe:_ChannelServices_GetCurrentChannelInfo_m3041604116
bXc:__Z13RegisterClassI20UnityConnectSettingsEvv
Cre:_InternalEnumerator_1__ctor_m2635640285_AdjustorThunk
Dpb:__Z22scripting_array_length17ScriptingArrayPtr
YMd:_SynchronizedReader_Peek_m148942882
cEg:__Z95RuntimeInvoker_Void_t1185182177_RuntimeObject_Int32_t2950945753_Int32_t2950945753_RuntimeObjectPFvvEPK10MethodInfoPvPS4_
_1a:__ZN14SafeBinaryRead20TransferTypelessDataEjPvi
gIc:_Horizontal_Sweep_Init
qN:__ZN13dynamic_arrayI12SoundChannelLj4EE9push_backERKS0_
a5:__Z19GetActiveColorSpacev
aDc:_UNITY_tt_face_load_kern
h0d:_MonoMethodInfo_GetDeclaringType_m2924452727
BIb:__ZN13sorted_vectorINSt3__24pairIiN17InstancingBatcher12PropertyTypeEEEN10vector_mapIiS3_NS0_4lessIiEE13stl_allocatorIS4_L18MemLabelIdentifier1ELi16EEE13value_compareESA_E21sort_clear_duplicatesEv
vQc:__ZZN2UI14CanvasRenderer15InitializeClassEvEN38FunctorImpl_909kCanvasHierarchyChanged4CallEPviR11MessageData
C$:__Z6StrCmpPKcS0_
JEd:_NumberFormatter_AppendIntegerString_m2257376141
Nna:__Z21CheckGpuProgramUsable20ShaderGpuProgramType
$3b:__ZN13ProduceHelperI14Texture2DArrayLb0EE7ProduceE10MemLabelId18ObjectCreationMode
Ghj:__ZN6il2cpp2os9Directory20GetFileSystemEntriesERKNSt3__212basic_stringIcNS2_11char_traitsIcEENS2_9allocatorIcEEEESA_iiPi
Bmd:_Array_System_Collections_IList_Add_m1063688101
qWh:__ZL66Navigation_t3049316579_CustomAttributesCacheGenerator_m_SelectOnUpP21CustomAttributesCache
HJc:__ZN20TextRenderingPrivate19NativeTextGenerator5SetupEv
YSb:__ZNK15SharedLightData24GetFinalShadowResolutionEv
Upi:_PatternCompiler_EmitAlternationEnd_m2444359097
OGh:__ZL91GameObject_t1113636619_CustomAttributesCacheGenerator_GameObject_get_activeSelf_m1767405923P21CustomAttributesCache
meb:__ZN12AspectRatios8TransferI18StreamedBinaryReadILb0EEEEvRT_
S7b:__ZN10GameObject14CopyPropertiesERS_
xoc:__Z44Register_UnityEngine_GUIStyle_get_fixedWidthv
mIf:_Array_InternalArray__ICollection_Remove_TisLink_t544317964_m1280781374_gshared
qhj:__ZNSt3__214__split_bufferIN6il2cpp2os10ThreadImpl10APCRequestERNS_9allocatorIS4_EEEC2EjjS7_
Pod:_BitConverter_DoubleWordsAreSwapped_m1474345095
q6a:__ZNK13ScreenManager12IsFullScreenEv
fud:_FixedSizeArrayListWrapper_set_Capacity_m4221053039
Awj:_rand
ZDj:_emscripten_glFramebufferRenderbuffer__wrapper
Zac:__ZN13MeshScripting10CreateMeshE21ScriptingObjectOfTypeI4MeshE
Zii:_ListPool_1__cctor_m3480273184_gshared
fQg:__Z56RuntimeInvoker_Void_t1185182177_PropertyName_t3749835189PFvvEPK10MethodInfoPvPS4_
R$c:__ZN23InterfaceActionInvoker1IP25BaseEventData_t3903027533E6InvokeEjP11Il2CppClassP12Il2CppObjectS1_
zqb:__ZN14SafeBinaryRead21TransferSTLStyleArrayINSt3__26vectorI17AnimationCurveTplIfE13stl_allocatorIS4_L18MemLabelIdentifier1ELi16EEEEEEvRT_17TransferMetaFlags
Kud:_SynchronizedArrayListWrapper_Contains_m3809499313
zIf:_Array_InternalArray__ICollection_Remove_TisLabelData_t360167391_m3556246844_gshared
d$i:__ZN15dense_hashtableINSt3__24pairIK10KeyWrapperINS1_IPK11Il2CppImageP11Il2CppClassEEEjEES9_17ReflectionMapHashIS8_EN14dense_hash_mapIS9_jSD_NS9_14EqualsComparerINS0_8equal_toIS8_EEEENS0_9allocatorISB_EEE9SelectKeyESI_SK_E12expand_arrayEjN21dense_hash_map_traits17integral_constantIbLb0EEE
thd:_HMACSHA256__ctor_m346174875
jkg:_Color_op_Multiply_m2887457390
sVb:__Z22PrepareOptimizedPlanesPK5PlaneiPKN4math7_float4E
Fle:_InternalEnumerator_1__ctor_m1559487635_gshared
nV:__ZN11UnityEngine15CloudWebService17WebFileDownloaderINS0_20WebRequestRestClientENS0_23WebRequestRestHeaderMapEE10InitializeERKN4core12basic_stringIcNS5_20StringStorageDefaultIcEEEE
Aca:__ZN17UniqueIDGenerator15CreatePureIndexEv
zr:__ZN11UnityEngine9Animation28GenericAnimationBindingCache15DidReloadDomainEv
cfb:__ZNSt3__26vectorIN15ResourceManager10DependencyE13stl_allocatorIS2_L18MemLabelIdentifier52ELi16EEE6assignINS_11__wrap_iterIPS2_EEEENS_9enable_ifIXaasr21__is_forward_iteratorIT_EE5valuesr16is_constructibleIS2_NS_15iterator_traitsISC_E9referenceEEE5valueEvE4typeESC_SC_
AKi:__ZN15dense_hashtableINSt3__24pairIK10KeyWrapperIPK22Il2CppGenericParameterEP11Il2CppClassEES6_N6il2cpp5utils11PointerHashIS4_EEN14dense_hash_mapIS6_S9_SE_NS6_14EqualsComparerINS0_8equal_toIS5_EEEENS0_9allocatorISA_EEE9SelectKeyESJ_SL_E14squash_deletedEv
U_a:__ZN9ShaderLabL27GetDesiredRenderTextureDescEPK6Camera
uwh:__ZL131RSACryptoServiceProvider_t2683512874_CustomAttributesCacheGenerator_RSACryptoServiceProvider_t2683512874____PublicOnly_PropertyInfoP21CustomAttributesCache
cQf:_Array_InternalArray__Insert_TisMark_t3471605523_m2854535880_gshared
Yya:__ZN6prcoreL29inner_stretch_rgb565_bilinearEPKNS_9InnerInfoE
Tlc:__Z14GUIClipTextureP9Texture2DPhiiii
BNh:__ZL52HumanBone_t2465339518_CustomAttributesCacheGeneratorP21CustomAttributesCache
aKe:_MethodReturnDictionary__cctor_m278392388
KDi:__ZL25UnresolvedVirtualCall_143P12Il2CppObjectaaPK10MethodInfo
uY:__ZNK9Transform18TransformDirectionERK8Vector3f
dhe:_SslStreamBase_get_CanWrite_m1622082918
INa:__ZNK17ArchiveFileSystem12GetAssetGUIDERK13FileEntryData
Fna:__ZNSt3__26vectorIN9ShaderLab20SerializedSubProgram15MatrixParameterENS_9allocatorIS3_EEE21__push_back_slow_pathIKS3_EEvRT_
dYh:__ZL80CanvasScaler_t2767979955_CustomAttributesCacheGenerator_m_ReferencePixelsPerUnitP21CustomAttributesCache
KBc:_otv_MarkLigPos_validate
T2e:_PrimalityTests_RabinMillerTest_m1471415870
P$f:_Enumerator_MoveNext_m2114485647_gshared
VDi:__ZL25UnresolvedVirtualCall_154P12Il2CppObject40CustomAttributeTypedArgument_t2723150157PK10MethodInfo
$Xd:_GenericTypeParameterBuilder_GetCustomAttributes_m580748276
SQi:__ZN15dense_hashtableINSt3__24pairIK10KeyWrapperIPK11Il2CppClassEPKcEES6_N6il2cpp5utils11PointerHashIS3_EEN14dense_hash_mapIS6_S9_SE_NS6_14EqualsComparerINS0_8equal_toIS5_EEEENS0_9allocatorISA_EEE9SelectKeyESJ_SL_E12resize_deltaEjj
jyj:__ZNK10__cxxabiv120__si_class_type_info27has_unambiguous_public_baseEPNS_19__dynamic_cast_infoEPvi
$5d:_Kernel_LeftShift_m4140742987
ISd:_Assembly_GetManifestResourceInternal_m1224391897
Iwa:__Z30AddDefaultStreamsToMeshBuffersR9GfxDeviceR11MeshBuffersj17ShaderChannelMaskS3_
f9:__ZL16GetInterfaceImpl18UnityInterfaceGUID
ELi:__ZN6il2cpp2vmL17SetupFieldOffsetsENS0_15FieldLayoutKindEP11Il2CppClassjRKNSt3__26vectorIjNS4_9allocatorIjEEEE
Hkj:__ZN6il2cpp6icalls8mscorlib6System15MonoCustomAttrs27GetCustomAttributesInternalEP12Il2CppObjectP20Il2CppReflectionTypeb
Wb:invoke_viifi
lHc:_UNITY_TT_Set_MM_Blend
R7:__GLOBAL__sub_I_runtime_math_random_0_cpp
qji:_InternalAsyncResult_get_FromWrite_m4228047810
sHg:__Z53RuntimeInvoker_MonoEventInfo_t346866618_RuntimeObjectPFvvEPK10MethodInfoPvPS4_
Khh:_Collection_1_CopyTo_m955200729_gshared
BHb:__ZN14PreloadManager35WaitForAllAsyncOperationsToCompleteEv
lXf:_EqualityComparer_1__ctor_m1138336971_gshared
B_:__ZNK18ScriptingObjectPtr17ToScriptingStringEv
gI:__ZL31InitializeAudioScriptingClassesv
MMb:__Z14SortGUIByDepthP10GUIElementS0_
B8:__ZN13RuntimeStaticI13dynamic_arrayIPK31TransferFunctionScriptingTraitsLj4EELb0EE16StaticInitializeEPv
jMg:__Z69RuntimeInvoker_UInt32_t2560061978_Int32_t2950945753_SByte_t1669577662PFvvEPK10MethodInfoPvPS4_
qC:__ZN12_GLOBAL__N_120ProcessRootMotionMixER33AnimationPlayableEvaluationOutputR35AnimationPlayableEvaluationConstantR32AnimationPlayableEvaluationInputS1_f
Bui:_UriParser__cctor_m3655686731
xTe:_LayoutRebuilder_U3Cs_RebuildersU3Em__0_m589488547
J_g:__Z53RuntimeInvoker_KeyValuePair_2_t71524366_RuntimeObjectPFvvEPK10MethodInfoPvPS4_
hmb:__ZNK20LocalFileSystemPosix21GetAvailableDiskSpaceEPKcRy
p8:__ZNSt3__26__treeIiNS_4lessIiEENS_9allocatorIiEEE7destroyEPNS_11__tree_nodeIiPvEE
mpa:__ZNK9GfxDevice14GetWorldMatrixEv
Puc:__ZN8JSONRead8TransferI8Vector2fEEvRT_PKc17TransferMetaFlagsb
fyg:_Transform_set_parent_m786917804
Bjj:__ZN15dense_hashtableINSt3__24pairIK10KeyWrapperIPK19Il2CppGenericMethodEP10MethodInfoEES6_N6il2cpp8metadata23Il2CppGenericMethodHashEN14dense_hash_mapIS6_S9_SD_NS6_14EqualsComparerINSC_26Il2CppGenericMethodCompareEEENS0_9allocatorISA_EEE9SelectKeyESH_SJ_E13set_empty_keyERKSA_
e_e:_Slider_get_value_m739683640
xkb:__Z19scripting_array_new17ScriptingClassPtrjj
eN:__ZN11SoundHandle13CreateChannelEb
vag:_WaitCallback_BeginInvoke_m3012509827
p4a:__ZN14SafeBinaryRead21TransferSTLStyleArrayI13dynamic_arrayI12LightmapDataLj4EEEEvRT_17TransferMetaFlags
Hja:__ZNSt3__26vectorIN9ShaderLab20SerializedSubProgram16TextureParameterENS_9allocatorIS3_EEE6assignIPS3_EENS_9enable_ifIXaasr21__is_forward_iteratorIT_EE5valuesr16is_constructibleIS3_NS_15iterator_traitsISA_E9referenceEEE5valueEvE4typeESA_SA_
tPi:__ZN13Il2CppHashMapIN6il2cpp5utils13dynamic_arrayIPK10Il2CppTypeLj4EEEPFvvENS0_8metadata19Il2CppSignatureHashENS9_22Il2CppSignatureCompareENSt3__29allocatorINSC_4pairIK10KeyWrapperIS6_ES8_EEEEEC2EjRKSA_RKSB_
DEg:__Z122RuntimeInvoker_Void_t1185182177_RuntimeObject_RuntimeObject_ContractionU5BU5DU26_t2277527001_Level2MapU5BU5DU26_t359320357PFvvEPK10MethodInfoPvPS4_
G1i:__ZN15dense_hashtableINSt3__24pairIK10KeyWrapperIPK22Il2CppGenericParameterEPK24MonoGenericParameterInfoEES6_N6il2cpp5utils11PointerHashIS4_EEN14dense_hash_mapIS6_SA_SF_NS6_14EqualsComparerINS0_8equal_toIS5_EEEENS0_9allocatorISB_EEE9SelectKeyESK_SM_E15set_deleted_keyERKSB_
Ped:_SByte_TryParse_m2431806379
TBh:__ZL64ObjectDisposedException_t21392786_CustomAttributesCacheGeneratorP21CustomAttributesCache
z1b:__ZN6prcoreL11inner_clearILj2EEEvPhjjj
uGh:__ZL92Debug_t3317548046_CustomAttributesCacheGenerator_Debug_LogWarningFormat_m1153215311____args2P21CustomAttributesCache
rgd:_DSACryptoServiceProvider_get_KeySize_m786836990
NNi:__ZNSt3__218uninitialized_fillIPNS_4pairIK10KeyWrapperIPKcEP11Il2CppClassEES9_EEvT_SB_RKT0_
Ig:_emscripten_exit_fullscreen
PRd:_Object_MemberwiseClone_m1474068832
Bgj:__ZN6il2cpp6icalls8mscorlib6System6String19InternalAllocateStrEi
Wvc:__Z29Transfer_Blittable_ArrayFieldI8JSONRead11QuaternionfEvRT_R9ArrayInfoRK23StaticTransferFieldInfo
Qlb:__ZN20LocalFileSystemPosix8SetFlagsER13FileEntryDatajj
tfc:__Z45Register_UnityEngine_Camera_get_targetDisplayv
b6b:__ZNK24RendererAnimationBinding15GenerateBindingERKN4core12basic_stringIcNS0_20StringStorageDefaultIcEEEEbRN11UnityEngine9Animation14GenericBindingE
maf:_IPv6Address__ctor_m3704187391
fNb:__Z15GetFlareManagerv
$1b:__ZN15ApplicationInfo24GetApplicationIdentifierEv
XJa:__ZN9Behaviour8TransferI18StreamedBinaryReadILb0EEEEvRT_
Hz:__ZN8Animator13GetAvatarRootEv
ONf:_Array_InternalArray__ICollection_Add_TisResourceCacheItem_t51292791_m3851804827_gshared
Auj:___toread
IFb:__ZNSt3__26vectorI10vector_mapIiiNS_4lessIiEE13stl_allocatorINS_4pairIiiEEL18MemLabelIdentifier38ELi16EEES4_IS9_LS7_38ELi16EEE26__swap_out_circular_bufferERNS_14__split_bufferIS9_RSA_EE
x5d:_BigInteger_get_Rng_m3283260184
Myj:___cxa_is_pointer_type
SE:__ZN8Animator22ScriptingStringToCRC32ERK11ICallString
CCh:__ZL55EventHandler_t1348719766_CustomAttributesCacheGeneratorP21CustomAttributesCache
sC:__ZN7mecanim9animation16EvaluateAvatarDXEPKNS0_14AvatarConstantEPKNS0_11AvatarInputEPNS0_12AvatarMemoryEPNS0_15AvatarWorkspaceEPNS0_12AvatarOutputE
f2c:_RaycastResult_ToString_m2678663776_AdjustorThunk
r2h:_Array_InternalArray__get_Item_TisKeyValuePair_2_t2530217319_m2886833132_gshared
zYe:_ScrollRect_OnEndDrag_m3202230060
Yjc:__Z34Transform_CUSTOM_SetAsFirstSiblingP12Il2CppObject
uYi:__ZNK15dense_hashtableINSt3__24pairIK10KeyWrapperINS1_IPK14Il2CppAssemblyP11Il2CppClassEEEjEES9_17ReflectionMapHashIS8_EN14dense_hash_mapIS9_jSD_NS9_14EqualsComparerINS0_8equal_toIS8_EEEENS0_9allocatorISB_EEE9SelectKeyESI_SK_E10test_emptyEj
wEg:__Z63RuntimeInvoker_Void_t1185182177_RuntimeObject_SByte_t1669577662PFvvEPK10MethodInfoPvPS4_
CKh:__ZL57SetupCoroutine_t2062820429_CustomAttributesCacheGeneratorP21CustomAttributesCache
KQe:_InputField_Delete_m3471899192
VAh:__ZL79Convert_t2465617642_CustomAttributesCacheGenerator_Convert_ToUInt64_m1627266664P21CustomAttributesCache
Cth:__ZL91UrlAttribute_t221584584_CustomAttributesCacheGenerator_UrlAttribute_IsContextOK_m1228378186P21CustomAttributesCache
TEe:_RemotingConfiguration_get_ProcessId_m2180277012
l3:__ZN17PersistentManager40GlobalToLocalSerializedFileIndexInternalERK26SerializedObjectIdentifier
kS:__ZN11UnityEngine15CloudWebService17SessionEventQueue14ParseEventDataERKN4core12basic_stringIcNS2_20StringStorageDefaultIcEEEE
Mua:__ZN13TranslateGLES4InitERK12GraphicsCaps16GfxDeviceLevelGL
ECb:__Z29Transfer_Blittable_ArrayFieldI18StreamedBinaryReadILb0EE10ColorRGBAfEvRT_R9ArrayInfoRK23StaticTransferFieldInfo
BVi:_NativeTypeAttribute_set_CodegenOptions_m3839252515
jWf:_EqualityComparer_1_get_Default_m180770000_gshared
tGd:_Int64_System_IConvertible_ToUInt16_m848637338_AdjustorThunk
jVh:__ZL74GraphicRaycaster_t2999697109_CustomAttributesCacheGenerator_m_BlockingMaskP21CustomAttributesCache
eMf:_Array_InternalArray__IndexOf_TisLink_t544317964_m455584088_gshared
gah:_Enumerator_get_Current_m2282646120_AdjustorThunk
T7h:_ReadOnlyCollection_1_IndexOf_m2539022912_gshared
h6e:_KeyGeneratedEventHandler__ctor_m1990062371
eXh:__ZL66Selectable_t3250028441_CustomAttributesCacheGenerator_m_TransitionP21CustomAttributesCache
tsj:__ZN6il2cpp2os6Memory12AlignedAllocEjj
k$e:_Text_set_alignByGeometry_m3828822280
dmj:__ZN6il2cpp8metadataL7CompareEPK10Il2CppTypeS3_
zsb:__Z18Transfer_BlittableI17RemapPPtrTransferLb0E11ColorRGBA32EvRK29SerializationCommandArgumentsR31RuntimeSerializationCommandInfo
z7e:_HybridDictionary__ctor_m1681134385
Y1:__ZN21ScalableBufferManager11GetInstanceEv
WAb:__Z18Transfer_BlittableI18StreamedBinaryReadILb0EELb1E10ColorRGBAfEvRK29SerializationCommandArgumentsR31RuntimeSerializationCommandInfo
F1a:__ZN12CubemapArray23VirtualRedirectTransferER17RemapPPtrTransfer
kcg:_TimeSpan_op_LessThan_m1594498345
idc:__ZL27GetComponentsImplementationILb0ELi0EEbR10GameObjectbRK17CompareParametersRK39GetComponentsImplementation_ReturnValue
qEb:__ZN9Scripting36IsSystemCollectionsGenericDictionaryE17ScriptingClassPtr
jhi:_UnityEvent_1_FindMethod_Impl_m322741469_gshared
euh:__ZL92ConstructionCallDictionary_t686578562_CustomAttributesCacheGenerator_U3CU3Ef__switchU24map24P21CustomAttributesCache
AXh:__ZL64Slider_t3903728902_CustomAttributesCacheGenerator_m_WholeNumbersP21CustomAttributesCache
tyg:_Enumerator_get_Current_m2591725252
R0:__ZL16ReadTypeTreeImplILb0EEbR8TypeTreeRK16TypeTreeIteratorRPKhS6_i
Ehf:_Interval_Contains_m110351300_AdjustorThunk
RAd:_Convert_ToInt32_m3048308591
lZh:__ZL77LayoutUtility_t2745813735_CustomAttributesCacheGenerator_U3CU3Ef__amU24cache6P21CustomAttributesCache
MVe:_RectMask2D_OnCanvasHierarchyChanged_m3195492255
iwf:_DateTimeOffset_Equals_m3030958070
gYa:__ZNK22BuiltinResourceManager21GetResourceInstanceIDEPKN5Unity4TypeERKN4core12basic_stringIcNS4_20StringStorageDefaultIcEEEE
Pra:__ZN9GfxDevice15BeginFrameStatsEv
Ygc:__Z42Register_UnityEngine_RectOffset_set_bottomv
goc:__Z28GUIStyleState_CUSTOM_CleanupP12Il2CppObject
Utf:_DateTimeFormatInfo_GetMonthName_m2034512315
ROb:__ZN28LightProbeProxyVolumeContext8CopyFromERKS_
Izb:__ZN18StreamedBinaryReadILb1EE8TransferI13dynamic_arrayI8BitFieldLj4EEEEvRT_PKc17TransferMetaFlags
B8h:_ReadOnlyCollection_1_System_Collections_Generic_IListU3CTU3E_Insert_m2489506856_gshared
B6:__ZN23TransformChangeDispatch32QueueTransformChangeIfHasChangedER18TransformHierarchy
L0e:_SimpleCollator_ToDashTypeValue_m6184468
EDa:__ZN7ApiGLES18DeleteRenderbufferERj
gCa:__ZL23ProgramUniformMatrix4fvPK7ApiGLESjiihPKv
NDa:__ZN7ApiGLES13CreateTextureEjj14GraphicsFormatiiiii
Wnd:_Array_new_gap_m262136975
lja:__ZN9ShaderLab20SerializedSubProgram15MatrixParameter8TransferI14SafeBinaryReadEEvRT_
kdc:__ZL27GetComponentsImplementationILb0ELi1EEbR10GameObjectbRK17CompareParametersRK39GetComponentsImplementation_ReturnValue
Hdf:_X509Store__ctor_m275383717
q1e:_SimpleCollator_LastIndexOfOrdinalIgnoreCase_m2984667899
WFc:_Round_Down_To_Grid
zEa:__ZN13RenderTexture7ReleaseEv
ttc:__Z18Transfer_BlittableI8JSONReadLb1EN4math12int3_storageEEvRK29SerializationCommandArgumentsR31RuntimeSerializationCommandInfo
lbb:__ZN10MeshFilter23VirtualRedirectTransferER14SafeBinaryRead
MYh:__ZL64LayoutGroup_t2436138090_CustomAttributesCacheGenerator_m_PaddingP21CustomAttributesCache
_jd:_X509CertificateEnumerator_MoveNext_m2269241175
vbb:__ZN12MeshRenderer17MainThreadCleanupEv
pLi:__ZN6il2cpp2vmL10InitLockedEP11Il2CppClassRKNS_2os12FastAutoLockE
tHa:__ZN22CreateGpuProgramOutput12CreateParamsEv
rJ:__ZN10ObjectPoolIN4FMOD7ChannelENS0_8ChannelIEE7GetFreeEi
_$g:__Z96RuntimeInvoker_RuntimeObject_CustomAttributeNamedArgument_t287865710_RuntimeObject_RuntimeObjectPFvvEPK10MethodInfoPvPS4_
X8c:_FontData_get_font_m2720086288
ume:_InternalEnumerator_1_System_Collections_IEnumerator_get_Current_m548105685_gshared
Cua:__ZNK14GfxContextGLES13GetDefaultFBOEv
YYg:__Z99RuntimeInvoker_Void_t1185182177_UILineInfoU5BU5DU26_t2468919161_Int32_t2950945753_Int32_t2950945753PFvvEPK10MethodInfoPvPS4_
lqd:_Byte_System_IConvertible_ToType_m2251112646
Zgh:_Collection_1_Contains_m692247505_gshared
ZSg:__Z81RuntimeInvoker_Char_t3634460470_RuntimeObject_Int32_t2950945753_Int16_t2552820387PFvvEPK10MethodInfoPvPS4_
ruf:_DateTime_get_Hour_m4153505178_AdjustorThunk
rAi:_AudioExtensionManager_WriteExtensionProperties_m3028464154
Omf:_Evidence_Equals_m1478353107
moi:_CostDelegate__ctor_m4027655829
aac:__Z13GetImagePixelI10ColorRGBAfET_PKhii13TextureFormat15TextureWrapModeS5_ii
z3g:_List_1_System_Collections_IList_set_Item_m1842844683_gshared
hji:_ObjectPool_1__ctor_m2535233435_gshared
Rhi:_EventFunction_1__ctor_m4292798223_gshared
W6i:__ZN6il2cpp2vm6Thread49CheckCurrentThreadForInterruptAndThrowIfNecessaryEv
CEf:_CultureInfo_construct_datetime_format_m1928121315
i5:__ZNSt3__23mapIN9ShaderLab16FastPropertyNameEN18UnityPropertySheet11UnityTexEnvENS_4lessIS2_EENS_9allocatorINS_4pairIKS2_S4_EEEEEixERS9_
HCa:__ZNK13TranslateGLES25GetTextureTargetDimensionEj
uSd:_RankException__ctor_m3453633632
aci:_Comparison_1__ctor_m533218197_gshared
cZg:__Z96RuntimeInvoker_Void_t1185182177_Vector3U5BU5DU26_t3038522815_Int32_t2950945753_Int32_t2950945753PFvvEPK10MethodInfoPvPS4_
_5h:_ReadOnlyCollection_1_System_Collections_IList_Remove_m1842121503_gshared
hJd:_File_OpenRead_m2936789020
ojc:__Z47Texture2D_CUSTOM_INTERNAL_CALL_GetPixelBilinearP12Il2CppObjectffR10ColorRGBAf
Eyd:_Enumerator_get_Entry_m3561948123
JQg:__Z94RuntimeInvoker_Void_t1185182177_RuntimeObject_PlayableGraph_t3515989261_RuntimeObject_IntPtr_tPFvvEPK10MethodInfoPvPS4_
Ji:_emscripten_glVertexAttrib4f
zse:_InternalEnumerator_1_System_Collections_IEnumerator_Reset_m4072625129_AdjustorThunk
ina:__ZNSt3__26vectorIN20GpuProgramParameters14ConstantBufferENS_9allocatorIS2_EEE8__appendEj
pef:_X509CertificateCollection_AddRange_m3683116910
vpe:_InternalEnumerator_1_Dispose_m1837758743_AdjustorThunk
aFe:_SinkProviderData__ctor_m1624738837
bQb:__ZN11HaloManager21ReleaseGeometryJobMemEP25DynamicVBOGeometryJobData
XId:_DirectoryNotFoundException__ctor_m1689636868
tSg:__Z88RuntimeInvoker_RuntimeObject_RuntimeObject_SByte_t1669577662_RuntimeObject_RuntimeObjectPFvvEPK10MethodInfoPvPS4_
s6h:_ReadOnlyCollection_1_System_Collections_Generic_IListU3CTU3E_get_Item_m978644313_gshared
Uhh:_Collection_1_get_Item_m2253972692_gshared
j_d:_RefEmitPermissionSet_t484390987_marshal_pinvoke_cleanup
jUd:_CustomAttributeTypedArgument_Equals_m2261980307
Gx:__ZN7mecanim12statemachine24CreateStateMachineMemoryEPKNS0_20StateMachineConstantERNS_6memory9AllocatorE
Ura:__ZN9GfxDevice18SetGlobalDepthBiasEff
zTi:__ZN6il2cpp6icalls8mscorlib6System8MonoType12get_AssemblyEP20Il2CppReflectionType
MKd:_IsolatedStorageException__ctor_m3386787868
D_d:_TypeBuilder_MakeGenericType_m2799607032
so:FUNCTION_TABLE_vi
jbi:_ReadOnlyCollection_1_IndexOf_m3669095250_gshared
Xi:_emscripten_glGetPointerv
k1h:_Dictionary_2_Do_CopyTo_TisKeyValuePair_2_t3842366416_TisRuntimeObject_m1564656153_gshared
fC:__ZN8Animator22ApplyBuiltinRootMotionEv
ldj:__ZN15dense_hashtableI10KeyWrapperIP18Il2CppGenericClassES3_N6il2cpp8metadata22Il2CppGenericClassHashEN14dense_hash_setIS3_S6_NS3_14EqualsComparerINS5_25Il2CppGenericClassCompareEEENSt3__29allocatorIS3_EEE8IdentityESA_SD_E5clearEv
cHb:__Z26ApplyMaterialPassWithCacheRK18SharedMaterialDataR17ShaderPassContextP6ShaderPN9ShaderLab4PassEibPKNS6_10GrabPassesEPNS6_11SubProgramsEPK22DeviceRenderStateBlock
LKg:__Z55RuntimeInvoker_DateTime_t3738529785_TimeSpan_t881159249PFvvEPK10MethodInfoPvPS4_
NQd:_MulticastDelegate_KPM_m22863605
aqe:_InternalEnumerator_1_get_Current_m1897120917_AdjustorThunk
lQd:_MonoType_ReorderParamArrayArguments_m2458683451
HMe:_FormatterConverter_ToInt16_m4282804414
tIg:__Z81RuntimeInvoker_Void_t1185182177_Int64_t3736567304_RuntimeObject_Int64_t3736567304PFvvEPK10MethodInfoPvPS4_
L2c:_StandaloneInputModule_ProcessTouchPress_m4019232747
cJd:_FileStream__ctor_m3151488352
Vnd:_Array_swap_m547389985
y3:__ZN8Renderer23VirtualRedirectTransferER14SafeBinaryRead
Kfg:_UInt32_ToString_m2420423038
x0g:_List_1_System_Collections_IList_Add_m634558835_gshared
cbi:_ReadOnlyCollection_1_System_Collections_IList_get_IsFixedSize_m1923250479_gshared
fRh:__ZL105CanvasRenderer_t2598313366_CustomAttributesCacheGenerator_CanvasRenderer_set_popMaterialCount_m1224846275P21CustomAttributesCache
GJd:_FileStream_get_Length_m426703983
iAe:_Enumerator__ctor_m1558933899_AdjustorThunk
OCh:__ZL88BigInteger_t2902905090_CustomAttributesCacheGenerator_BigInteger_op_Implicit_m3414367033P21CustomAttributesCache
zLi:__ZN6il2cpp2vmL15GetBitmapNoInitEP11Il2CppClassPjRjj
I7g:_List_1_Remove_m2092085040_gshared
j0b:__ZL13MotionHandleriPK27EmscriptenDeviceMotionEventPv
qFi:__ZL25UnresolvedVirtualCall_231P12Il2CppObjecti20UIVertex_t4057497605PK10MethodInfo
OH:__ZN12AudioManager5ResetEv
CBg:__Z67RuntimeInvoker_Boolean_t97287965_RuntimeObject_SByteU26_t3619038962PFvvEPK10MethodInfoPvPS4_
HCg:__Z143RuntimeInvoker_Boolean_t97287965_RuntimeObject_Int32_t2950945753_RuntimeObject_SByte_t1669577662_DoubleU26_t1739162597_ExceptionU26_t3600731591PFvvEPK10MethodInfoPvPS4_
n8b:__ZN15DirectorManager18ScheduleGraphStartERK14HPlayableGraph
k6h:_ReadOnlyCollection_1_get_Count_m1336304542_gshared
tZh:__ZL111LayoutUtility_t2745813735_CustomAttributesCacheGenerator_LayoutUtility_U3CGetPreferredHeightU3Em__6_m3049688934P21CustomAttributesCache
NB:__ZN7mecanim5human14RetargetToTDoFEPKNS0_5HumanEPNS0_9HumanPoseEPNS_8skeleton13SkeletonPoseTIN4math4trsXEEESB_
t1i:__ZNK15dense_hashtableINSt3__24pairIK10KeyWrapperIPK14Il2CppAssemblyEPK22Il2CppMonoAssemblyNameEES6_N6il2cpp5utils11PointerHashIS4_EEN14dense_hash_mapIS6_SA_SF_NS6_14EqualsComparerINS0_8equal_toIS5_EEEENS0_9allocatorISB_EEE9SelectKeyESK_SM_E10test_emptyEj
Kij:__ZN6il2cpp6icalls8mscorlib6System11Environment20GetWindowsFolderPathEi
uzd:_Convert_ToBoolean_m2833752130
uw:__ZN7mecanim5human18HumanPoseBlendNodeERNS0_9HumanPoseEPS1_f
dAc:_UNITY_FT_RoundFix
wR:__ZN23CloudWebServicesManager23VirtualRedirectTransferER17RemapPPtrTransfer
rpj:_GC_is_heap_ptr
C3e:_ASN1_DecodeTLV_m1200977460
fng:_UnityEventBase_PrepareInvoke_m1785382128
F8h:_ReadOnlyCollection_1_System_Collections_Generic_IListU3CTU3E_set_Item_m1584697503_gshared
xbb:__ZNK12MeshRenderer22GetTypeVirtualInternalEv
Xrd:_Char_System_IConvertible_ToUInt32_m3901815580
EWe:_Scrollbar_set_onValueChanged_m346467699
TKg:__Z157RuntimeInvoker_Int32_t2950945753_RuntimeObject_Int32_t2950945753_Int32_t2950945753_Int32_t2950945753_SByte_t1669577662_SByte_t1669577662_Int32U26_t1369213839PFvvEPK10MethodInfoPvPS4_
Mii:_ListPool_1_Release_m957266927_gshared
Suh:__ZL105ConfigHandler_t4192437216_CustomAttributesCacheGenerator_ConfigHandler_ValidatePath_m3895556516____paths1P21CustomAttributesCache
uK:__ZN4FMOD6System17setSoftwareFormatEi17FMOD_SOUND_FORMATii18FMOD_DSP_RESAMPLER
Oha:__ZN14SafeBinaryRead19TransferSTLStyleMapINSt3__23mapIN4core12basic_stringIcNS3_20StringStorageDefaultIcEEEES7_NS1_4lessIS7_EE13stl_allocatorINS1_4pairIKS7_S7_EEL18MemLabelIdentifier1ELi16EEEEEEvRT_17TransferMetaFlags
bPc:__ZN2UI6Canvas27UpdateEventIndexesRecursiveERi
qS:__ZN11UnityEngine15CloudWebService16SessionContainer21PrepareDataErrorEventERN4core12basic_stringIcNS2_20StringStorageDefaultIcEEEE
Z$c:_ExecuteEvents_get_pointerUpHandler_m3515704212
Ssd:_ArrayList_set_Item_m2003485935
zjj:__ZNSt3__218uninitialized_copyIPNS_4pairIK10KeyWrapperIPK19Il2CppGenericMethodEP10MethodInfoEESB_EET0_T_SD_SC_
_3d:_SatelliteContractVersionAttribute__ctor_m3630863995
SAh:__ZL79Convert_t2465617642_CustomAttributesCacheGenerator_Convert_ToUInt64_m3102114524P21CustomAttributesCache
S1c:_MouseButtonEventData_PressedThisFrame_m1060658845
yZc:_AxisEventData_get_moveVector_m270528189
cxb:__Z19TransferField_ArrayI19StreamedBinaryWriteILb0EE27Converter_SimpleNativeClassI8GUIStyleEEvRK23StaticTransferFieldInfoR31RuntimeSerializationCommandInfoRT0_
CMb:__Z27SetClippingPlaneShaderPropsR9GfxDevice
r6h:_ReadOnlyCollection_1_System_Collections_Generic_IListU3CTU3E_RemoveAt_m3969985996_gshared
eOh:__ZL83AudioSource_t3935305588_CustomAttributesCacheGenerator_AudioSource_Play_m3389845180P21CustomAttributesCache
jGj:_emscripten_glCopyTexSubImage2D__wrapper
j6a:__ZNK13ScreenManager12GetIsFocusedEv
Tad:_GraphicRegistry_GetGraphicsForCanvas_m4219276355
IEd:_NumberFormatter_FastToDecHex_m699829267
opi:_PatternCompiler_MakeFlags_m1977119795
htc:__Z35Transfer_Blittable_FixedBufferFieldI8JSONReadiEvRK29SerializationCommandArgumentsR31RuntimeSerializationCommandInfo
Ula:__ZN15SerializeTraitsIN9ShaderLab16FastPropertyNameEE8TransferI19StreamedBinaryWriteILb0EEEEvRS1_RT_
zvh:__ZL59StreamingContext_t3711869237_CustomAttributesCacheGeneratorP21CustomAttributesCache
CSi:__ZNSt3__213__vector_baseIN6il2cpp2os19SocketHandleWrapperENS_9allocatorIS3_EEED2Ev
inh:__ZL48_Type_t3588564251_CustomAttributesCacheGeneratorP21CustomAttributesCache
XUh:__ZL81FontUpdateTracker_t1839077620_CustomAttributesCacheGenerator_U3CU3Ef__mgU24cache0P21CustomAttributesCache
dc:invoke_viiffi
yph:__ZL103RegionInfo_t1090270226_CustomAttributesCacheGenerator_RegionInfo_t1090270226____NativeName_PropertyInfoP21CustomAttributesCache
uGd:_Int64_System_IConvertible_ToUInt32_m109903525
eC:__ZNSt3__227__insertion_sort_incompleteIRPFbPKN8Animator11AnimatorJobES4_EPS4_EEbT0_S9_T_
bS:__ZNSt3__26__treeINS_12__value_typeIN4core12basic_stringIcNS2_20StringStorageDefaultIcEEEEjEENS_19__map_value_compareIS6_S7_NS_4lessIS6_EELb1EEE13stl_allocatorIS7_L18MemLabelIdentifier88ELi16EEE4findIS6_EENS_15__tree_iteratorIS7_PNS_11__tree_nodeIS7_PvEEiEERKT_
Zoc:__ZN5Unity9rapidjson13GenericReaderINS0_4UTF8IcEES3_13JSONAllocatorE10ParseFalseILj0ENS0_19GenericStringStreamIS3_EENS0_15GenericDocumentIS3_S4_S4_EEEEvRT0_RT1_
vpg:_Mathf_CeilToInt_m432108984
C1a:__ZNK12CubemapArray20GetRuntimeMemorySizeEv
Vbg:_TimeSpan_FromHours_m1109641064
jka:__Z14resize_trimmedINSt3__26vectorIN9ShaderLab18SerializedPropertyENS0_9allocatorIS3_EEEEEvRT_j
FDi:__ZL25UnresolvedVirtualCall_138P12Il2CppObject17Color_t2555686324faaPK10MethodInfo
Wrb:__Z18Transfer_BlittableI17RemapPPtrTransferLb0EN4math12int3_storageEEvRK29SerializationCommandArgumentsR31RuntimeSerializationCommandInfo
hre:_InternalEnumerator_1__ctor_m4124630986_gshared
zQi:__ZN6il2cpp2vm13MetadataCache38GetMethodInfoFromMethodDefinitionIndexEi
K_c:_EventSystem_set_current_m38955169
QNe:_TypeMetadata__ctor_m646635308
poi:_CostDelegate_EndInvoke_m2797921932
h7a:__ZN10VertexData8TransferI24GenerateTypeTreeTransferEEvRT_
VAf:_Double_IsInfinity_m820013146
hpd:__ZN21InterfaceFuncInvoker1I19Decimal_t2948259380P12Il2CppObjectE6InvokeEjP11Il2CppClassS2_S2_
ejj:__ZN13Il2CppHashMapIPK19Il2CppGenericMethodP10MethodInfoN6il2cpp8metadata23Il2CppGenericMethodHashENS6_26Il2CppGenericMethodCompareENSt3__29allocatorINS9_4pairIK10KeyWrapperIS2_ES4_EEEEEC2EjRKS7_RKS8_
N4f:_List_1_TrimExcess_m440552561_gshared
_vg:_Screen_get_dpi_m495672463
w8f:_UTF8Encoding_InternalGetByteCount_m2120178851
OUb:__ZL10CullLightsRK22SceneCullingParametersR11CullResults
tCd:_Convert_ToUInt64_m3170916409
Bx:__ZN7mecanim12statemachine20GetBlendTreeConstantERKNS0_13StateConstantEi
hGd:_Int64_System_IConvertible_ToInt16_m4062196970_AdjustorThunk
HQd:_MonoType_GetGenericTypeDefinition_m3201894896
u1b:__Z40GetTemporaryCachePathApplicationSpecificv
_pa:__ZN9GfxDevice16EndAsyncJobFrameEv
bUg:__Z99RuntimeInvoker_Int32_t2950945753_Ray_t3785851493_RuntimeObject_Single_t1397266774_Int32_t2950945753PFvvEPK10MethodInfoPvPS4_
Q$i:__ZNK15dense_hashtableINSt3__24pairIK10KeyWrapperINS1_IPK12PropertyInfoP11Il2CppClassEEEjEES9_17ReflectionMapHashIS8_EN14dense_hash_mapIS9_jSD_NS9_14EqualsComparerINS0_8equal_toIS8_EEEENS0_9allocatorISB_EEE9SelectKeyESI_SK_E10test_emptyERK30dense_hashtable_const_iteratorISB_S9_SD_SM_SI_SK_E
VCc:_UNITY_tt_face_load_hhea
XVd:_DerivedType_get_Assembly_m2979298667
Tk:___syscall3
Wk:___syscall6
vra:__ZN9GfxDevice15GetNextCPUFenceEv
Yk:___syscall4
pT:__ZN11UnityEngine15CloudWebService20WebRequestRestClient17GetResponseStatusEv
vKe:_ReturnMessage__ctor_m2352989078
WFg:__Z99RuntimeInvoker_Void_t1185182177_RuntimeObject_Int32_t2950945753_SByte_t1669577662_SByte_t1669577662PFvvEPK10MethodInfoPvPS4_
cnb:__ZNSt3__26__treeINS_12__value_typeIN4core12basic_stringIcNS2_20StringStorageDefaultIcEEEEPN16MemoryFileSystem4NodeEEENS_19__map_value_compareIS6_SA_NS_4lessIS6_EELb1EEE13stl_allocatorISA_L18MemLabelIdentifier55ELi16EEE7destroyEPNS_11__tree_nodeISA_PvEE
Hlh:__ZL70RuntimeArray_CustomAttributesCacheGenerator_Array_get_Length_m21610649P21CustomAttributesCache
Vej:__ZN6il2cpp2vm3RCW14QueryInterfaceILb1EEEP14Il2CppIUnknownP15Il2CppComObjectRK10Il2CppGuid
Zbe:_TlsServerCertificateRequest__ctor_m1334974076
TAd:_Convert_ToInt32_m1613163543
EZg:__Z52RuntimeInvoker_TimeSpan_t881159249_Int32_t2950945753PFvvEPK10MethodInfoPvPS4_
nUe:_MatEntry__ctor_m1949610076
T5h:_ReadOnlyCollection_1_System_Collections_ICollection_CopyTo_m3127175806_gshared
ml:_emscripten_glShaderBinary
pMh:__ZL80Logger_t274032455_CustomAttributesCacheGenerator_U3ClogEnabledU3Ek__BackingFieldP21CustomAttributesCache
DT:__ZN15DownloadHandler19OnFinishReceiveDataEv
Reg:_UInt16_ToString_m760649087
$lb:__ZNK20LocalFileSystemPosix6ExistsERK13FileEntryData
uLg:__Z21RuntimeInvoker_Guid_tPFvvEPK10MethodInfoPvPS4_
sMg:__Z46RuntimeInvoker_CipherAlgorithmType_t1174400495PFvvEPK10MethodInfoPvPS4_
Mjg:_Camera_GetAllCameras_m668492922
zSc:__Z58Register_UnityEngine_Canvas_GetETC1SupportedCanvasMaterialv
jcg:_TimeSpan_op_Inequality_m2467851530
Bzb:__ZN17AnimationCurveTplIfE8TransferI18StreamedBinaryReadILb1EEEEvRT_
k0h:_Array_Sort_TisUIVertex_t4057497605_m3996333845_gshared
alf:_ToBase64Transform_get_CanReuseTransform_m702204640
TUc:__ZN18UnityConnectClientD2Ev
dQg:__Z53RuntimeInvoker_PropertyName_t3749835189_RuntimeObjectPFvvEPK10MethodInfoPvPS4_
nod:_Swapper_BeginInvoke_m1688449973
Llg:_Display_get_renderingWidth_m1970428952
cQa:__ZN16LevelGameManager23VirtualRedirectTransferER19StreamedBinaryWriteILb0EE
wMg:__Z81RuntimeInvoker_Void_t1185182177_RuntimeObject_Int32_t2950945753_Int64_t3736567304PFvvEPK10MethodInfoPvPS4_
c7a:__Z32TransferEnumWithNameForceIntSizeI14SafeBinaryRead16GfxPrimitiveTypeEvRT_RT0_PKc17TransferMetaFlags
P0:__ZN13dynamic_arrayIcLj1EE6insertEPcPKcS3_
MKh:__ZL92Mesh_t3648964284_CustomAttributesCacheGenerator_Mesh_SetTriangles_m2205169959____baseVertex3P21CustomAttributesCache
kXg:__Z52RuntimeInvoker_Int32_t2950945753_HitInfo_t3229609740PFvvEPK10MethodInfoPvPS4_
XIg:__Z86RuntimeInvoker_Boolean_t97287965_Int16_t2552820387_Int16_t2552820387_Int32_t2950945753PFvvEPK10MethodInfoPvPS4_
pzh:__ZL80Convert_t2465617642_CustomAttributesCacheGenerator_Convert_ToBoolean_m2807110707P21CustomAttributesCache
plh:__ZL72Enum_t4135868527_CustomAttributesCacheGenerator_Enum_GetName_m2151614395P21CustomAttributesCache
eii:_IndexedSet_1_IndexOf_m241693686_gshared
X3h:_Collection_1_System_Collections_IList_Add_m1802516464_gshared
YTc:__ZN11UnityEngine15PlatformWrapper30GetGraphicsDriverLibraryStringEv
Udd:_RuntimeMethodHandle_Equals_m3301340296_AdjustorThunk
ggg:_UInt64_System_IConvertible_ToSingle_m925613075_AdjustorThunk
PBi:__ZL24UnresolvedVirtualCall_40P12Il2CppObjectS0_PK10MethodInfo
fji:_ListPool_1__cctor_m704263611_gshared
XAb:__Z18Transfer_BlittableI18StreamedBinaryReadILb0EELb0E4AABBEvRK29SerializationCommandArgumentsR31RuntimeSerializationCommandInfo
hfb:__ZN24GenerateTypeTreeTransfer19TransferSTLStyleMapINSt3__28multimapIN4core12basic_stringIcNS3_20StringStorageDefaultIcEEEE4PPtrI6ObjectENS1_4lessIS7_EE13stl_allocatorINS1_4pairIKS7_SA_EEL18MemLabelIdentifier52ELi16EEEEEEvRT_17TransferMetaFlags
QD:__ZN16MecanimAnimation24DeleteAnimatedPropertiesERP26IAnimatedPropertyEvaluator
sIi:_CanvasRenderer_SetMaterial_m824577244
wLb:__Z14DrawGUITextureRK5RectTIfEP7Texture11ColorRGBA32P8Materiali
dHh:__ZL84RectOffset_t1369453676_CustomAttributesCacheGenerator_RectOffset_Cleanup_m2552807639P21CustomAttributesCache
n6h:_ReadOnlyCollection_1_System_Collections_Generic_ICollectionU3CTU3E_Add_m2686599243_gshared
SA:__ZN9BlobWrite8TransferI22OffsetPtrArrayTransferIKN4math7_float4EEEEvRT_PKc17TransferMetaFlags
jMb:__ZN22RenderingCommandBuffer20ExecuteCommandBufferER17ShaderPassContextR15RenderNodeQueuejP13dynamic_arrayINSt3__24pairIN9ShaderLab16FastPropertyNameEP13RenderTextureEELj4EE16ComputeQueueTypeSA_
pyg:_Transform_IsChildOf_m224006092
XZa:__ZN15TextureSettings8TransferI24GenerateTypeTreeTransferEEvRT_
Ssc:__ZN9JSONWrite8TransferI4AABBEEvRT_PKc17TransferMetaFlags
tOa:__ZN25MultiBlocksMemoryFileData9SetLengthEy
B2f:_List_1_Clear_m2154023298_gshared
tZc:_AbstractEventData_get_used_m2991176710
mUg:__Z94RuntimeInvoker_Void_t1185182177_ObjectU5BU5DU26_t712384779_Int32_t2950945753_Int32_t2950945753PFvvEPK10MethodInfoPvPS4_
f1h:_Dictionary_2_Do_ICollectionCopyTo_TisRuntimeObject_m1855083806_gshared
eyi:_Aes__ctor_m178909601
F2a:__ZNK9Texture2D20GetRuntimeMemorySizeEv
Jkc:__ZN11Marshalling39CreateNullExceptionForUnityEngineObjectE18ScriptingObjectPtr
Yoc:__ZN5Unity9rapidjson13GenericReaderINS0_4UTF8IcEES3_13JSONAllocatorE9ParseTrueILj0ENS0_19GenericStringStreamIS3_EENS0_15GenericDocumentIS3_S4_S4_EEEEvRT0_RT1_
C5g:_List_1_Clear_m2003943277_gshared
um:_emscripten_glUniform2iv
VZf:_Enumerator_Dispose_m1204547613_AdjustorThunk
Axc:_UNITY_FT_Outline_Transform
bae:_CipherSuite_get_ExchangeAlgorithmType_m1633709183
SLi:__ZN6il2cpp2vm5Class10GetMethodsEP11Il2CppClassPPv
fYc:__ZNK25UnityWebRequestJavaScript17GetUploadProgressEv
MQb:__Z30AddDefaultStreamsToMeshBuffersR9GfxDeviceR11MeshBuffersRK16DrawBuffersRange17ShaderChannelMaskS6_
U1g:_List_1_GetEnumerator_m1430071802_gshared
SCa:__ZN7ApiGLES17DeleteFramebufferERN2gl6HandleILNS0_10ObjectTypeE9EEES3_
vGa:__ZN15UniformTFMethod13MapBoneBufferEj
YNc:__ZN2UI14CanvasRendererD2Ev
K2h:_Array_InternalArray__get_Item_TisParameterModifier_t1461694466_m29553316_gshared
zGd:_Int64_CompareTo_m1928360444_AdjustorThunk
aGb:__Z9SetupArgviPPKc
hBd:_Convert_ToInt64_m2075031821
Ohb:__ZN13dynamic_arrayIP10UnitySceneLj4EE9push_backERKS1_
Rne:_InternalEnumerator_1__ctor_m236665673_gshared
bHj:_glTexParameteri__wrapper
h3:__ZN12ImmediatePtrI10GameObjectE8TransferI19StreamedBinaryWriteILb0EEEEvRT_
G1a:__ZN12CubemapArray23VirtualRedirectTransferER24GenerateTypeTreeTransfer
xBi:__ZL24UnresolvedVirtualCall_22P12Il2CppObjectS0_iS0_S0_S0_PK10MethodInfo
v1:__ZN12FileAccessor4OpenER15FileSystemEntry14FilePermission16FileAutoBehavior
oVa:__ZNSt3__26vectorI4PPtrI6ShaderE13stl_allocatorIS3_L18MemLabelIdentifier53ELi16EEE8__appendEj
Fhj:__ZN6il2cpp2os9Directory6CreateERKNSt3__212basic_stringIcNS2_11char_traitsIcEENS2_9allocatorIcEEEEPi
$ka:__ZN4PPtrI6ShaderE8TransferI18StreamedBinaryReadILb0EEEEvRT_
A6:__ZN23TransformChangeDispatch32QueueTransformChangeIfHasChangedERK15TransformAccess
O0a:__ZNSt3__26vectorINS_4pairIN9ShaderLab16FastPropertyNameEN18UnityPropertySheet11UnityTexEnvEEENS_9allocatorIS6_EEE21__push_back_slow_pathIKS6_EEvRT_
cOa:__ZN15ArchiveReadFile5WriteEyPKvPy
ESd:_Assembly_get_FullName_m293988418
B:tempValue
v$b:__Z29StdTemplateConversionFunctionIaiEbPvR14SafeBinaryRead
dtj:__ZN6il2cpp8metadata24Il2CppGenericContextHash4HashEPK20Il2CppGenericContext
ioe:_InternalEnumerator_1_get_Current_m356936020_AdjustorThunk
Zhh:_Collection_1_CheckWritable_m1583234367_gshared
OFd:_Int32_ToString_m141394615_AdjustorThunk
Wtd:_ArrayListWrapper_CopyTo_m498486826
BId:_Directory_GetCurrentDirectory_m219218555
Hkd:_SmallXmlParser_UnexpectedEndError_m1914362401
_x:__ZN26AnimatorControllerPlayable18DeallocateBindingsEv
evh:__ZL61FormatterTypeStyle_t3400733584_CustomAttributesCacheGeneratorP21CustomAttributesCache
Jva:__ZN14DelayedDeletorI15dense_hashtableINSt3__24pairIK9TextureIDiEES3_14GfxGenericHashIS3_EN14GfxDoubleCacheIS3_iS7_NS1_8equal_toIS3_EEN31GfxDoubleCacheConcurrencyPolicy11LocklessGetE42GfxDoubleCacheDefaultEmptyDeletedGeneratorIS3_EE9SelectKeyESA_13stl_allocatorIS5_L18MemLabelIdentifier24ELi16EEEEclEv
vN:__ZN11AudioSource19CreateOpenALRolloffEfff
PCc:_UNITY_FT_Stream_ReadAt
ibg:_TimeSpan__ctor_m1896986612_AdjustorThunk
IPi:__ZN15dense_hashtableINSt3__24pairIK10KeyWrapperIN6il2cpp5utils13dynamic_arrayIPK10Il2CppTypeLj4EEEEPFvvEEESA_NS3_8metadata19Il2CppSignatureHashEN14dense_hash_mapISA_SD_SG_NSA_14EqualsComparerINSF_22Il2CppSignatureCompareEEENS0_9allocatorISE_EEE9SelectKeyESK_SM_E9set_valueEPSE_RKSE_
djd:_ArgumentException__ctor_m1216717135
mtg:_Ray_ToString_m1732834890_AdjustorThunk
md:_glReadBuffer
p3g:_List_1_System_Collections_IList_Contains_m3860993176_gshared
jO:__ZN11AudioModule22CreateAudioClipFromWWWEP10IWWWStreamPKcbbi
o5b:__ZN9Texture2DC2E10MemLabelId18ObjectCreationMode
Si:_emscripten_glRotatef
Veg:_UInt32_System_IConvertible_ToBoolean_m1763673183_AdjustorThunk
$mg:_UnityEvent_AddListener_m2276267359
cQc:__Z13RegisterClassIN2UI11CanvasGroupEEvv
KOg:__Z35RuntimeInvoker_RangeInt_t2094684618PFvvEPK10MethodInfoPvPS4_
B1b:__ZN6prcoreL11inner_clearILj4EEEvPhjjj
of:_emscripten_glClear
wJe:_MethodCall_get_Args_m148309537
ZJe:_DictionaryEnumerator_get_Value_m2166220004
Pzi:_PCMReaderCallback_BeginInvoke_m3391809637
ABh:__ZL72LoaderOptimization_t1484956347_CustomAttributesCacheGenerator_DomainMaskP21CustomAttributesCache
uDg:__Z74RuntimeInvoker_Void_t1185182177_RuntimeObject_StreamingContext_t3711869237PFvvEPK10MethodInfoPvPS4_
Loj:_GC_initialize_offsets
oea:__ZNK8Playable6HandleEv
iPe:_SetPropertyUtility_SetColor_m2229203028
Jyj:___cxa_guard_abort
Swe:_Enumerator_MoveNext_m481679286_gshared
B$:__ZN14MessageHandler28MessageIDToMessageIdentifierEi
D7a:__ZNK11SpriteAtlas20GetRuntimeRenderDataEPK6Sprite
rId:_FileSystemInfo__ctor_m3035148496
mig:_AssetBundleCreateRequest_t3119663542_marshal_pinvoke_cleanup
eFd:_Int32_System_IConvertible_ToDecimal_m2190376994_AdjustorThunk
z_f:_KeyValuePair_2_set_Key_m2121548577_AdjustorThunk
c_g:__Z46RuntimeInvoker_RefEmitPermissionSet_t484390987PFvvEPK10MethodInfoPvPS4_
hQg:__Z57RuntimeInvoker_PropertyName_t3749835189_Int32_t2950945753PFvvEPK10MethodInfoPvPS4_
qKc:__ZN20TextRenderingPrivate15DynamicFontData36GetFaceForCharacterIfAvailableInFontERKNS_7FontRefERK13dynamic_arrayI4PPtrIN13TextRendering4FontEELj4EEj
Yv:__ZN7mecanim14ValueArrayCopyILb0EEEvPKNS_10ValueArrayEPS1_
eF:__Z51Register_UnityEngine_Animator_get_hasBoundPlayablesv
vdh:_Collection_1_CopyTo_m3142835220_gshared
Ed:emscriptenWebGLGetUniform
to:FUNCTION_TABLE_iiiiiiiiiii
rvi:_GUI_CallWindowDelegate_m3309453386
hBe:_ValueCollection_System_Collections_IEnumerable_GetEnumerator_m2535969909_gshared
gBc:_cff_set_mm_blend
BJb:__ZN19GfxThreadableDevice15OnDeviceCreatedEb
vWb:__ZL10CleanUpJobP20CullingGroupsJobData
LQb:__Z20IsRunningNativeTestsv
mId:_DirectoryInfo_get_Exists_m3142069876
Icb:__ZN11TimeManager23VirtualRedirectTransferER17RemapPPtrTransfer
nLb:__ZN13RenderManager15BatchModeUpdateEv
Pdi:_Predicate_1__ctor_m327447107_gshared
Edf:_X509Chain_get_CertificateAuthorities_m804805415
N6a:__ZN14SafeBinaryRead21TransferSTLStyleArrayI13dynamic_arrayI8Vector2fLj4EEEEvRT_17TransferMetaFlags
uqh:__ZL123GenericTypeParameterBuilder_t1988827940_CustomAttributesCacheGenerator_GenericTypeParameterBuilder_IsSubclassOf_m2266644074P21CustomAttributesCache
k3:__ZN17PersistentManager51InstanceIDToLocalSerializedObjectIdentifierInternalEiR31LocalSerializedObjectIdentifier
ovg:_Vector2_get_one_m738793577
cac:__ZNK4Mesh14GetIndexFormatEv
HZf:_GenericEqualityComparer_1__ctor_m4072188982_gshared
Fui:_UriParser_set_DefaultPort_m4007715058
hd:_glVertexAttribIPointer
U6f:_StringBuilder_ToString_m3317489284
jCa:__ZN13dynamic_arrayI21ComputeShaderResourceLj4EE9push_backERKS0_
pac:__ZNK6Sprite10GetPaddingE20SpriteRenderDataMode
OIf:_Array_InternalArray__ICollection_Remove_TisUInt32_t2560061978_m733727733_gshared
ifd:_CryptographicException__ctor_m503735289
FIe:_ConstructionCall_get_CallSiteActivationAttributes_m3498917408
$Jd:_Stream_EndRead_m1896469262
NAg:__Z93RuntimeInvoker_Boolean_t97287965_Int32_t2950945753_SByte_t1669577662_ExceptionU26_t3600731591PFvvEPK10MethodInfoPvPS4_
GOb:__ZN14qsort_internal5QSortIP15RODataDepthPassi17ROSorterDepthPassEEvT_S4_T0_T1_
zDc:_UNITY_ft_glyphslot_alloc_bitmap
vfe:_RSASslSignatureDeformatter_SetHashAlgorithm_m895570787
Ini:_X509CrlEntry__ctor_m4013514048
vOi:__ZN15dense_hashtableI10KeyWrapperIPK17Il2CppGenericInstES4_N6il2cpp8metadata21Il2CppGenericInstHashEN14dense_hash_setIS4_S7_NS4_14EqualsComparerINS6_24Il2CppGenericInstCompareEEENSt3__29allocatorIS4_EEE8IdentityESB_SE_E16reset_thresholdsEv
OPg:__Z87RuntimeInvoker_Color_t2555686324_Color_t2555686324_Color_t2555686324_Single_t1397266774PFvvEPK10MethodInfoPvPS4_
sIc:_ft_raster1_render
plc:__Z47Register_UnityEngine_Mesh_RecalculateBoundsImplv
lqa:__ZN9GfxDevice27UpdateComputeSkinPoseBufferEP9GfxBufferP12SkinMeshInfo
h1f:_Enumerator_get_Current_m3382684163_AdjustorThunk
Fje:_InternalEnumerator_1_System_Collections_IEnumerator_Reset_m3677481164_AdjustorThunk
txj:__ZNKSt3__221__basic_string_commonILb1EE20__throw_length_errorEv
RWf:_EqualityComparer_1_System_Collections_IEqualityComparer_Equals_m245992594_gshared
EKg:__Z52RuntimeInvoker_UInt64_t4134040092_Single_t1397266774PFvvEPK10MethodInfoPvPS4_
wMf:_Array_InternalArray__IndexOf_TisParameterModifier_t1461694466_m1227120810_gshared
TDa:__ZN18GfxFramebufferGLES13ReadbackImageER14ImageReferenceiiiiii
Apc:__ZN5Unity9rapidjson6WriterI16TempBufferWriterNS0_4UTF8IcEES4_13JSONAllocatorE11WriteStringEPKcj
Zcd:_SerializationInfo_SetType_m3923964808
wza:__ZN6prcoreL12RemapGenericI17TexFormatARGB888815TexFormatRGB565EEvPKNS_9InnerInfoE
$I:__ZN4FMOD7Channel19setReverbPropertiesEPK29FMOD_REVERB_CHANNELPROPERTIES
gMd:_StreamReader_Dispose_m156389394
k_:__ZN13MonoBehaviour22GetScriptFullClassNameEv
y4i:_il2cpp_object_get_class
Vkf:_SymmetricAlgorithm_get_Padding_m1011382560
p3b:__ZN13ProduceHelperI11MonoManagerLb0EE7ProduceE10MemLabelId18ObjectCreationMode
hif:_RIPEMD160Managed_JJ_m112143231
cOb:__ZN13BatchRendererC2ER15RenderLoopStatsRK15RenderNodeQueuebb
Zue:_Comparer_1__ctor_m191896560_gshared
M1e:_PreviousInfo_t2148130204_marshal_pinvoke_back
Vmb:__ZNK16MemoryFileSystem9EnumerateEPKcP19dynamic_block_arrayI13FileEntryInfoLj32EEbPPv19FileEnumerationFlag
_Db:__ZN13MonoBehaviour9CallAwakeEv
AYa:__ZN20SphericalHarmonicsL211AddWeightedERKS_f
PDg:__Z82RuntimeInvoker_RuntimeObject_Int64_t3736567304_Int64_t3736567304_Int64_t3736567304PFvvEPK10MethodInfoPvPS4_
htb:__Z19TransferField_ArrayI17RemapPPtrTransfer27Converter_SimpleNativeClassI8GUIStyleEEvRK23StaticTransferFieldInfoR31RuntimeSerializationCommandInfoRT0_
Sga:__ZL22StaticInitializeShaderPv
kqc:__ZN9JSONWrite8TransferI10ColorRGBAfEEvRT_PKc17TransferMetaFlags
Mre:_InternalEnumerator_1__ctor_m3913006324_AdjustorThunk
v$:__Z25scripting_method_get_name18ScriptingMethodPtr
Gfe:_SslCipherSuite_ComputeKeys_m661027754
nse:_InternalEnumerator_1__ctor_m3322594868_gshared
rrg:_Object_set_name_m291480324
yzd:_Convert_ToBoolean_m481380807
vyf:_Decimal_Equals_m2486655999
Noj:_GC_exit_check
qTd:_AssemblyName_SetPublicKeyToken_m582470133
aQg:__Z52RuntimeInvoker_Boolean_t97287965_HitInfo_t3229609740PFvvEPK10MethodInfoPvPS4_
dM:__ZNK4PPtrI9AudioClipEcvPS0_Ev
VY:__Z20UnlockObjectCreationv
T0d:_MonoField_ToString_m2518484388
y4e:_DSAManaged_get_Random_m923751780
$ye:_Transform_1_Invoke_m2385719192_gshared
ozg:_Vector3_set_Item_m1772472431_AdjustorThunk
xgf:_Interpreter_PopulateGroup_m4042796257
bqb:__ZN15SerializeTraitsI13dynamic_arrayIyLj8EEE19ResizeSTLStyleArrayERS1_i
l_b:__ZNSt3__26vectorINS_4pairIN4core12basic_stringIcNS2_20StringStorageDefaultIcEEEES6_EE13stl_allocatorIS7_L18MemLabelIdentifier38ELi16EEE6insertENS_11__wrap_iterIPKS7_EERSD_
Ang:_RenderPipelineManager_DoRenderLoop_Internal_m3799666479
xIh:__ZL78Sprite_t280657092_CustomAttributesCacheGenerator_Sprite_get_packed_m1179604684P21CustomAttributesCache
JA:__ZN9BlobWrite8TransferI22OffsetPtrArrayTransferI9OffsetPtrIN7mecanim12statemachine18StateMachineMemoryEEEEEvRT_PKc17TransferMetaFlags
gZ:__ZN4core8hash_mapIiP6ObjectNS_4hashIiEENSt3__28equal_toIiEEE4growEi
fZ:__ZN4core8hash_mapIiP6ObjectNS_4hashIiEENSt3__28equal_toIiEEE4growEv
qfh:_Collection_1_System_Collections_IList_IndexOf_m3894953546_gshared
Uli:_PKCS12_get_Certificates_m26161562
l8e:_NameObjectCollectionBase_Init_m2525481323
Zjj:__ZN6il2cpp2vm6String8NewUtf16EPKDsi
eed:_SByte_System_IConvertible_ToByte_m2268214252_AdjustorThunk
ohj:__ZN6il2cpp2os10ThreadImpl12QueueUserAPCEPFvPvES2_
RF:__Z32TransferEnumWithNameForceIntSizeI14SafeBinaryReadN10SampleClip17CompressionFormatEEvRT_RT0_PKc17TransferMetaFlags
Wsi:_RegularExpression__ctor_m119502265
JUc:__ZN22BaseUnityConnectClient10QueueEventERN11UnityEngine15CloudWebService17CloudServiceEventEPKcjb
o6h:_ReadOnlyCollection_1_System_Collections_Generic_ICollectionU3CTU3E_Clear_m522482168_gshared
MVd:_DerivedType_IsByRefImpl_m2585680005
H$a:__ZN13dynamic_arrayI11ShaderTagIDLj4EE9push_backERKS0_
HIe:_ConstructionCall_InitMethodProperty_m2021094586
pGc:_UNITY_FT_Hypot
Xje:_InternalEnumerator_1__ctor_m2636293838_gshared
mNh:__ZL95TextGenerator_t3211863866_CustomAttributesCacheGenerator_TextGenerator_get_lineCount_m916872812P21CustomAttributesCache
kYh:__ZL74CanvasScaler_t2767979955_CustomAttributesCacheGenerator_m_DefaultSpriteDPIP21CustomAttributesCache
L3i:_il2cpp_class_is_abstract
yf:_emscripten_glGetError
j1i:__ZN15dense_hashtableINSt3__24pairIK10KeyWrapperIPK14Il2CppAssemblyEPK22Il2CppMonoAssemblyNameEES6_N6il2cpp5utils11PointerHashIS4_EEN14dense_hash_mapIS6_SA_SF_NS6_14EqualsComparerINS0_8equal_toIS5_EEEENS0_9allocatorISB_EEE9SelectKeyESK_SM_E14squash_deletedEv
MJ:__Z14FMOD_FILE_SeekPvjS_
IUe:_MaskableGraphic_OnDisable_m1757789159
jZa:__ZN7TextureC2E10MemLabelId18ObjectCreationMode
xSe:_LayoutGroup__ctor_m2162961217
_gg:_ValueType_t3640485471_marshal_pinvoke_cleanup
wXb:__ZNK13RenderTexture32CalculateNeedsInvertedProjectionEv
z0b:__ZN10systeminfo18GetOperatingSystemEv
Gf:emscriptenWebGLGet
Iaa:__Z19CanReplaceComponentRN5Unity9ComponentEPKNS_4TypeEPN4core12basic_stringIcNS5_20StringStorageDefaultIcEEEE
gOd:_UnmanagedMemoryStream_Flush_m1540584491
heh:_Collection_1_GetEnumerator_m3986802482_gshared
ECd:_GuidParser_ParseGuid2_m1914838819
h5b:__ZN12CubemapArray11InitTextureEiii13TextureFormatb
H0g:_List_1_System_Collections_IList_get_Item_m1112579679_gshared
IBd:_Convert_ToSingle_m3983149863
Kie:_InternalEnumerator_1_System_Collections_IEnumerator_get_Current_m55999184_gshared
RAe:_ValueCollection_System_Collections_Generic_ICollectionU3CTValueU3E_Contains_m1842955046_gshared
ZZi:__ZN24dense_hashtable_iteratorINSt3__24pairIK10KeyWrapperIPK10Il2CppTypeEjEES6_N6il2cpp8metadata14Il2CppTypeHashEN14dense_hash_mapIS6_jSB_NS6_14EqualsComparerINSA_26Il2CppTypeEqualityComparerEEENS0_9allocatorIS8_EEE9SelectKeyESF_SH_E30advance_past_empty_and_deletedEv
V9c:_Graphic_get_depth_m815589653
Vui:_Event_set_displayIndex_m1342258734
$5c:_ContentSizeFitter_get_horizontalFit_m2773126143
rii:_U3CStartU3Ec__Iterator0__ctor_m2366347741_gshared
qB:__ZN7mecanim5human13HumanFixTwistEPKNS0_5HumanEPNS_8skeleton13SkeletonPoseTIN4math4trsXEEES9_iiRKf
uRb:__ZL24AssignProjectorQueuesJobP30AssignProjectorQueuesJobHeader
aSf:_KeyValuePair_2_get_Key_m1218836954_gshared
E2d:_ParameterModifier_t1461694466_marshal_pinvoke
PPi:__ZN15dense_hashtableINSt3__24pairIK10KeyWrapperIN6il2cpp5utils13dynamic_arrayIPK10Il2CppTypeLj4EEEEPFvvEEESA_NS3_8metadata19Il2CppSignatureHashEN14dense_hash_mapISA_SD_SG_NSA_14EqualsComparerINSF_22Il2CppSignatureCompareEEENS0_9allocatorISE_EEE9SelectKeyESK_SM_E4swapERSP_
dDe:_Dictionary_2_System_Collections_Generic_ICollectionU3CSystem_Collections_Generic_KeyValuePairU3CTKeyU2CTValueU3EU3E_Contains_m3724727653_gshared
qna:__ZN9ShaderLab20SerializedSubProgram14SetConstBufferEPKci
YVi:__ZN6il2cpp2os4File5CloseEPNS0_10FileHandleEPi
oPi:__ZNSt3__27__sort5IRN6il2cpp5utils11collections13ArrayValueMapIPK10Il2CppType17Il2CppInteropData26InteropDataToTypeConverterNS1_8metadata14Il2CppTypeLessENSA_26Il2CppTypeEqualityComparerEE12SortComparerEPS8_EEjT0_SH_SH_SH_SH_T_
oxg:_Touch_get_fingerId_m859576425_AdjustorThunk
GVg:__Z48RuntimeInvoker_Boolean_t97287965_Link_t544317964PFvvEPK10MethodInfoPvPS4_
aVe:_Navigation_get_selectOnDown_m1912812616_AdjustorThunk
p2g:_List_1_System_Collections_ICollection_CopyTo_m2688165607_gshared
oVg:__Z53RuntimeInvoker_UIVertex_t4057497605_Int32_t2950945753PFvvEPK10MethodInfoPvPS4_
zeg:_UInt16_CompareTo_m2664746316_AdjustorThunk
_Ae:_ValueCollection_GetEnumerator_m616748621_gshared
$W:__Z40DebugStringToFilePostprocessedStacktraceRK21DebugStringToFileData
Yuc:__Z29Transfer_Blittable_ArrayFieldI8JSONReadjEvRT_R9ArrayInfoRK23StaticTransferFieldInfo
fai:_ReadOnlyCollection_1_get_Item_m679165083_gshared
Toj:_GC_check_finalizer_nested
mg:__setLetterbox
$0a:__ZNSt3__26__treeINS_12__value_typeIN9ShaderLab16FastPropertyNameEfEENS_19__map_value_compareIS3_S4_NS_4lessIS3_EELb1EEENS_9allocatorIS4_EEE12__find_equalIS3_EERPNS_16__tree_node_baseIPvEENS_21__tree_const_iteratorIS4_PNS_11__tree_nodeIS4_SE_EEiEESH_RKT_
uYe:_ScrollRect_OnScroll_m3861066534
OCe:_Dictionary_2_ToTKey_m224697230_gshared
NMh:__ZL72FormerlySerializedAsAttribute_t2859083114_CustomAttributesCacheGeneratorP21CustomAttributesCache
Roc:__ZN8JSONRead32GetValueForKeyWithNameConversionEPKN5Unity9rapidjson12GenericValueINS1_4UTF8IcEE13JSONAllocatorEEPKc
Kpi:_PatternCompiler_EmitFastRepeat_m3012952683
hab:__ZNSt3__26vectorI17BlendShapeChannelNS_9allocatorIS1_EEE6assignINS_11__wrap_iterIPS1_EEEENS_9enable_ifIXaasr21__is_forward_iteratorIT_EE5valuesr16is_constructibleIS1_NS_15iterator_traitsISA_E9referenceEEE5valueEvE4typeESA_SA_
s0b:__ZN11TimeManager11GetRealtimeEv
mHh:__ZL91RectOffset_t1369453676_CustomAttributesCacheGenerator_RectOffset_get_horizontal_m2663785949P21CustomAttributesCache
trg:_Object_GetHashCode_m1944636947
fId:_BinaryReader_ReadUInt32_m2210658763
eK:__ZN29AudioEffectInternalDefinitionC2EP26UnityAudioEffectDefinitionb
_ai:_ReadOnlyCollection_1_System_Collections_IList_Remove_m2434650390_gshared
Seg:_UInt16_ToString_m3056878594_AdjustorThunk
wD:__ZN4PPtrI6AvatarE8TransferI18StreamedBinaryReadILb0EEEEvRT_
VSf:_Dictionary_2_System_Collections_Generic_ICollectionU3CSystem_Collections_Generic_KeyValuePairU3CTKeyU2CTValueU3EU3E_Contains_m2803718146_gshared
fsj:__ZN6il2cpp2os9FastMutexD2Ev
uhf:_Interval_get_IsSingleton_m3386290029
eYi:__ZNSt3__2plIcNS_11char_traitsIcEENS_9allocatorIcEEEENS_12basic_stringIT_T0_T1_EERKS9_PKS6_
kxg:_Time_get_unscaledDeltaTime_m4270080131
Kbb:__ZN4Mesh14GetMeshBuffersER11MeshBuffers17ShaderChannelMaskPS_b
Zjf:_SHA384Managed__ctor_m3220477113
vya:_stbir_resize
JLf:_Array_IndexOf_TisCustomAttributeTypedArgument_t2723150157_m3158556463_gshared
rWf:_EqualityComparer_1_System_Collections_IEqualityComparer_GetHashCode_m360549782_gshared
lCf:_Environment_GetOSVersionString_m407782784
esf:_DecoderExceptionFallback_Equals_m1082173956
oYf:_EqualityComparer_1_System_Collections_IEqualityComparer_GetHashCode_m345188086_gshared
arh:__ZL69Assembly_t_CustomAttributesCacheGenerator_Assembly_GetName_m981771927P21CustomAttributesCache
qbb:__ZN4PPtrI4MeshE8TransferI14SafeBinaryReadEEvRT_
zOa:__Z37ReadDirectoryInfo_UnityWebAndUnityRawR12FileAccessorRKN20ArchiveStorageHeader6HeaderERNS1_13DirectoryInfoE
T9:__ZNSt3__26__treeINS_12__value_typeIPKciEENS_19__map_value_compareIS3_S4_15compare_tstringIS3_ELb1EEENS_9allocatorIS4_EEE7destroyEPNS_11__tree_nodeIS4_PvEE
OPf:_Array_InternalArray__Insert_TisIntPtr_t_m189626842_gshared
Jcf:_X509Certificate2_get_IssuerName_m1277209535
L$e:_Locale_GetText_m3374010885
Qih:_Collection_1_System_Collections_IEnumerable_GetEnumerator_m1598238343_gshared
Did:_RijndaelManaged_CreateEncryptor_m263736311
Rag:_WaitCallback__ctor_m1893321019
EOb:__ZN20DynamicPropertySheet14SetValueQueuedEN9ShaderLab16FastPropertyNameEN19ShaderPropertySheet12PropertyTypeEjNS2_8SetFlagsE
MOc:__ZN2UI6Canvas26MarkAllNestedCanvasesDirtyEv
Gmg:_InvokableCallList_ClearPersistent_m1904264973
AFb:__ZN25PathNamePersistentManagerD2Ev
OY:__ZN17PersistentManager48IntegrateObjectAndUnlockIntegrationMutexInternalEi
Hga:__ZZ29InitializeSortingGroupManagerPvEN44PostLateUpdateSortingGroupsUpdateRegistrator7ForwardEv
NRh:__ZL55EventTrigger_t1076084509_CustomAttributesCacheGeneratorP21CustomAttributesCache
Fnf:_SecurityElement_SearchForChildByTag_m900466299
mp:__ZN6Object12SetHideFlagsENS_9HideFlagsE
n4e:_CryptoConvert_FromCapiPublicKeyBlob_m4073029974
_Dj:_emscripten_glGetFramebufferAttachmentParameteriv__wrapper
PLb:__ZN13RendererScene15InitializeUmbraEv
rXa:__Z28CalculateGlobalMatrixInverse23TransformAccessReadOnly
Hqg:_MonoBehaviour__ctor_m1579109191
iQh:__ZL59GUITargetAttribute_t25796337_CustomAttributesCacheGeneratorP21CustomAttributesCache
uZf:_GenericEqualityComparer_1_Equals_m3457564127_gshared
R5d:_BigInteger_ModInverse_m2426215562
Bke:_InternalEnumerator_1_System_Collections_IEnumerator_Reset_m2386791007_AdjustorThunk
asf:_DecoderExceptionFallback__ctor_m4044614564
tme:_InternalEnumerator_1_System_Collections_IEnumerator_Reset_m3011999097_AdjustorThunk
g7i:__ZN6il2cpp2vm6Thread17FullMemoryBarrierEv
lOd:_LocalDataStoreSlot__cctor_m644942532
btj:__ZN6il2cpp6icalls8mscorlib6System6Object7GetTypeEP12Il2CppObject
I1d:_MonoProperty_CachePropertyInfo_m2968057423
eYc:__ZNK25UnityWebRequestJavaScript18GetDownloadedBytesEv
ktg:_Ray_GetPoint_m1852405345_AdjustorThunk
tph:__ZL53RegionInfo_t1090270226_CustomAttributesCacheGeneratorP21CustomAttributesCache
IQh:__ZL85Canvas_t3310196443_CustomAttributesCacheGenerator_Canvas_get_sortingOrder_m1860900812P21CustomAttributesCache
Fkh:__ZL74Single_t1397266774_CustomAttributesCacheGenerator_Single_IsNaN_m4024467661P21CustomAttributesCache
OGf:_Array_get_swapper_TisColor32_t2600501292_m2310851009_gshared
YXc:__ZN12HeaderHelper14SetUnvalidatedERKN4core12basic_stringIcNS0_20StringStorageDefaultIcEEEES6_b
cG:__ZN4FMOD6SoundI7releaseEv
Uzc:_cff_parse_num
bPa:__ZN10MemoryFile9SetLengthEy
mvb:__ZN5RectTIiE8TransferI24GenerateTypeTreeTransferEEvRT_
v4a:__ZN14SafeBinaryRead21TransferSTLStyleArrayI13dynamic_arrayI7Hash128Lj8EEEEvRT_17TransferMetaFlags
CEb:__Z28scripting_class_is_interface17ScriptingClassPtr
Dh:_glTexStorage2D
Oxd:_SyncHashtable_get_Item_m2686606216
Nma:__ZNK9ShaderLab10SubProgram14EnsureCompiledEv
$Yd:_MethodBuilder_GetGenericArguments_m1765425737
Luf:_DateTime_CompareTo_m3687348273
Inj:_GC_push_marked
Tvf:_DateTime_ToUniversalTime_m1945318289_AdjustorThunk
v2e:_Kernel_modInverse_m668448880
lBf:_Enum_t4135868527_marshal_pinvoke
l$:__Z18BuildScriptClassId17ScriptingClassPtr
ZGi:_TextGenerator_Init_m1168488231
W5e:_RSAManaged_Finalize_m3915335854
qq:__ZNK16LevelGameManager7GetNameEv
CMa:__ZL31DeleteLastPathNameComponentImplRKN4core12basic_stringIcNS_20StringStorageDefaultIcEEEEPKc
n2b:__Z13RegisterClassI18DelayedCallManagerEvv
WUc:__ZN18UnityConnectClient15GetCloudServiceEv
vtb:__Z18Transfer_BlittableI24GenerateTypeTreeTransferLb0EiEvRK29SerializationCommandArgumentsR31RuntimeSerializationCommandInfo
hne:_InternalEnumerator_1_get_Current_m2698009637_gshared
wSi:__ZN6il2cpp2os19SocketHandleWrapperD2Ev
aAe:_Enumerator_System_Collections_IEnumerator_Reset_m278261807_gshared
vEb:__ZL28SerializationCommandGroupForRK31TransferFunctionScriptingTraits17ScriptingClassPtr17ScriptingFieldPtrRK20CoreScriptingClasses
GRa:__ZN10TagManager32RegisterDefaultTagsAndLayerMasksEv
cbg:_WaitHandle_Dispose_m738127030
o6g:_List_1_System_Collections_IList_get_IsReadOnly_m1729002068_gshared
TJg:__Z50RuntimeInvoker_Double_t594665363_Int32_t2950945753PFvvEPK10MethodInfoPvPS4_
Sdi:_Predicate_1_EndInvoke_m1490920825_gshared
BBh:__ZL78LoaderOptimization_t1484956347_CustomAttributesCacheGenerator_DisallowBindingsP21CustomAttributesCache
WSf:_Dictionary_2_System_Collections_Generic_ICollectionU3CSystem_Collections_Generic_KeyValuePairU3CTKeyU2CTValueU3EU3E_CopyTo_m3122240003_gshared
ySg:__Z104RuntimeInvoker_Void_t1185182177_Color_t2555686324_Single_t1397266774_SByte_t1669577662_SByte_t1669577662PFvvEPK10MethodInfoPvPS4_
O5g:_List_1_Remove_m3853969205_gshared
z1f:_Enumerator_System_Collections_IEnumerator_get_Current_m1540440674_gshared
Aof:_Single_System_IConvertible_ToInt16_m809233024_AdjustorThunk
Gvj:_fmodf
GOe:_InputField_UpdateLabel_m1837760870
Lua:__ZN4gles8InitCapsEP7ApiGLESP12GraphicsCapsR16GfxDeviceLevelGL
Pya:__ZN6prcore14BlitImageFloatERK14ImageReferenceRS0_NS0_8BlitModeE
WUa:__Z24CalculateVertexLightDataRK15SharedLightDataR14GfxVertexLight
li:_glEnable
Qpe:_InternalEnumerator_1_MoveNext_m973048327_gshared
Kma:__ZNK9ShaderLab7Program28BeginReadUnsupportedVariantsEv
m6:__ZN12CachedWriter11Align4WriteEv
Qfb:__ZNSt3__26vectorIN30RuntimeInitializeOnLoadManager9ClassInfoE13stl_allocatorIS2_L18MemLabelIdentifier13ELi16EEE7reserveEj
xqc:__Z35Transfer_Blittable_FixedBufferFieldI9JSONWriteiEvRK29SerializationCommandArgumentsR31RuntimeSerializationCommandInfo
dOh:__ZL85AudioSource_t3935305588_CustomAttributesCacheGenerator_AudioSource_set_clip_m31653938P21CustomAttributesCache
KZf:_Enumerator__ctor_m1590062855_AdjustorThunk
h2i:__ZN14dense_hash_mapI10KeyWrapperINSt3__24pairIPK10MethodInfoP11Il2CppClassEEEj17ReflectionMapHashIS8_ENS9_14EqualsComparerINS1_8equal_toIS8_EEEENS1_9allocatorINS2_IKS9_jEEEEEC2EjRKSB_RKSF_
Sx:__ZN26AnimatorControllerPlayable17ProcessRootMotionEP35AnimationPlayableEvaluationConstantP32AnimationPlayableEvaluationInputP33AnimationPlayableEvaluationOutput
Xuh:__ZL54SoapServices_t133988723_CustomAttributesCacheGeneratorP21CustomAttributesCache
MNd:_UnexceptionalStreamReader_Peek_m1842169584
yTc:__ZN11UnityEngine7Connect15DeviceInfoEvent16CollectExtraInfoEv
iAg:_TypeInferenceRuleAttribute__ctor_m2736695831
Rig:_Bounds_GetHashCode_m1844059663_AdjustorThunk
zfd:_CryptographicException__ctor_m1422015889
Nzg:_Vector4_Equals_m1779210055_AdjustorThunk
uCd:_Convert_ChangeType_m739676612
Rwj:_atoi
jFd:_Int32_System_IConvertible_ToInt32_m265310525_AdjustorThunk
Swj:_atol
Jlj:__ZThn8_N6il2cpp2vm13CachedCCWBaseINS0_13ManagedObjectEE6AddRefEv
G9d:_Alert_GetAlertMessage_m1942367141
lXh:__ZL88Selectable_t3250028441_CustomAttributesCacheGenerator_U3CisPointerDownU3Ek__BackingFieldP21CustomAttributesCache
zGe:_RemotingServices_GetRealProxy_m2081098851
e4e:_BlockProcessor_Core_m189015002
PNi:__ZN15dense_hashtableINSt3__24pairIK10KeyWrapperIPKcEP11Il2CppClassEES5_N6il2cpp5utils11StringUtils12StringHasherIS4_EEN14dense_hash_mapIS5_S8_SE_NS5_14EqualsComparerINSB_13VmStringUtils21CaseSensitiveComparerEEENS0_9allocatorIS9_EEE9SelectKeyESJ_SL_EC2EjRKSE_RKSJ_RKSN_
gEj:_emscripten_glScissor__wrapper
yo:FUNCTION_TABLE_viifi
zo:FUNCTION_TABLE_viiff
kjd:_X501__cctor_m1166912714
ISh:__ZL102PointerEventData_t3807901092_CustomAttributesCacheGenerator_PointerEventData_set_lastPress_m2928324031P21CustomAttributesCache
RUe:_MaskUtilities_GetRectMasksForClip_m532898711
GGc:_UNITY_tt_face_free_hdmx
rjg:_Bounds_ToString_m4208690781
f5i:__ZN15dense_hashtableINSt3__24pairIK10KeyWrapperINS1_IP11Il2CppClassjEEES4_EES6_N6il2cpp8metadata14ArrayClassHashEN14dense_hash_mapIS6_S4_SB_NS6_14EqualsComparerINSA_17ArrayClassCompareEEENS0_9allocatorIS8_EEE9SelectKeyESF_SH_E5clearEv
mNi:__ZNSt3__218uninitialized_copyIPNS_4pairIK10KeyWrapperIPK11Il2CppClassEPKcEESB_EET0_T_SD_SC_
MWi:__ZN6il2cpp2vm14TypeNameParser5ParseEb
COd:_Math_Sqrt_m1297338011
zMd:_StreamWriter_Initialize_m3490883444
Bdg:_Type_GetGenericArguments_m3500465462
$Wc:__ZN23UnityPurchasingSettingsC2Ev
ryj:__ZNSt9bad_allocD0Ev
Q$d:_Module_IsDefined_m2423524910
zVd:_DerivedType_create_unmanaged_type_m747846525
BPh:__ZL60EventType_t3528516131_CustomAttributesCacheGenerator_repaintP21CustomAttributesCache
LTa:__ZN17GPUFenceInternals7ReleaseEv
dXh:__ZL66Selectable_t3250028441_CustomAttributesCacheGenerator_m_NavigationP21CustomAttributesCache
Y2d:_ResolveEventHandler__ctor_m1911137231
Lgh:_Collection_1_System_Collections_IList_Contains_m2393482847_gshared
xXb:__ZL10RenderFaceR9GfxDeviceR18MaterialStateCacheP13RenderTextureiif
ILf:_Array_IndexOf_TisCustomAttributeNamedArgument_t287865710_m2817957199_gshared
wja:__ZN15SerializeTraitsI13dynamic_arrayIN9ShaderLab21SerializedBindChannelELj4EEE19ResizeSTLStyleArrayERS3_i
Xbj:__ZNK24NamespaceAndNamePairHashclERKNSt3__24pairIPKcS3_EE
hli:_ExtendedKeyUsageExtension_ToString_m2116504780
Jib:__ZNK5Unity9Component38MarkGameObjectAndComponentDependenciesER27GarbageCollectorThreadState
RHd:_BinaryReader_Read_m3708759962
tYc:__ZN20UnityWebRequestProtoI24UnityWebRequestTransport16AtomicRefCounter14RedirectHelper14ResponseHelper15DownloadHandler13UploadHandler12HeaderHelper14AsyncOperationED0Ev
MN:__ZNK7Texture21GetShadowSamplingModeEv
x6a:__ZN13ScreenManager21OnWindowRegainedFocusEv
MBb:__Z18Transfer_BlittableI18StreamedBinaryReadILb0EELb1EdEvRK29SerializationCommandArgumentsR31RuntimeSerializationCommandInfo
qua:__ZN9GfxDevice26CreateDefaultVertexBuffersEv
zFj:_emscripten_glVertexAttrib2fv__wrapper
XYc:__ZN13RuntimeStaticINSt3__26vectorIPN5physx15PxVehicleWheelsENS0_9allocatorIS4_EEEELb0EE13StaticDestroyEPv
_Md:_SynchronizedReader_ReadToEnd_m2160105378
IAf:_Double_System_IConvertible_ToUInt16_m4132603953_AdjustorThunk
Jxa:__ZN4crnd12symbol_codec32decode_receive_static_data_modelERNS_25static_huffman_data_modelE
Q0b:__ZN18ScriptingArguments8AddFloatEf
xxg:_TouchScreenKeyboard_Open_m3325559252
_bd:_Image_set_fillOrigin_m469806249
mTc:__ZN11UnityEngine15PlatformWrapper16GetVRRenderScaleEv
xrc:__Z18Transfer_BlittableI9JSONWriteLb0EaEvRK29SerializationCommandArgumentsR31RuntimeSerializationCommandInfo
MR:__ZN11UnityEngine15CloudWebService14DataDispatcher34OnSessionContainerArchivedAndReadyERNS0_16SessionContainerE
Vqg:_ConnectionChangeEvent__ctor_m764126802
d6d:_Kernel_Multiply_m193213393
yPd:_IntComparer__ctor_m2901422390
Z2d:_ResolveEventHandler_Invoke_m1337322179
awh:__ZL50HMACMD5_t2742219965_CustomAttributesCacheGeneratorP21CustomAttributesCache
pue:_Comparer_1__ctor_m1078828713_gshared
Rvb:__Z18Transfer_BlittableI19StreamedBinaryWriteILb0EELb0E8Vector3fEvRK29SerializationCommandArgumentsR31RuntimeSerializationCommandInfo
r0f:_Enumerator_VerifyState_m2621680056_gshared
Rti:_UriParser_InternalRegister_m3643767086
iNh:__ZL106TextGenerator_t3211863866_CustomAttributesCacheGenerator_TextGenerator_INTERNAL_get_rectExtents_m183810018P21CustomAttributesCache
Uha:__ZN14SafeBinaryRead19TransferSTLStyleMapINSt3__23mapIN4core12basic_stringIcNS3_20StringStorageDefaultIcEEEEiNS1_4lessIS7_EENS1_9allocatorINS1_4pairIKS7_iEEEEEEEEvRT_17TransferMetaFlags
Fvf:_DateTimeFormatInfo_get_RawAbbreviatedDayNames_m1257850285
$_i:__ZN15dense_hashtableINSt3__24pairIK10KeyWrapperINS1_IPK11Il2CppImageP11Il2CppClassEEEjEES9_17ReflectionMapHashIS8_EN14dense_hash_mapIS9_jSD_NS9_14EqualsComparerINS0_8equal_toIS8_EEEENS0_9allocatorISB_EEE9SelectKeyESI_SK_ED2Ev
SEc:_gray_move_to
Qwf:_DBNull_System_IConvertible_ToSingle_m13713620
UYh:__ZL127U3CDelayedSetDirtyU3Ec__Iterator0_t3170500204_CustomAttributesCacheGenerator_U3CDelayedSetDirtyU3Ec__Iterator0_Reset_m160466733P21CustomAttributesCache
Vjg:_CameraCallback__ctor_m899467377
t5h:_ReadOnlyCollection_1_System_Collections_IList_Contains_m1327645028_gshared
lcd:_Image_GetDrawingDimensions_m3060965396
aNh:__ZL69FontTextureRebuildCallback_t2467502454_CustomAttributesCacheGeneratorP21CustomAttributesCache
Udg:_TypeLoadException__ctor_m1154572625
_dc:__Z30RegisterValidateMethodCallbackiPF18ScriptingMethodPtrS_17ScriptingClassPtrP6ObjectEPKc
wlb:__ZN20LocalFileSystemPosixD0Ev
Okh:__ZL75Decimal_t2948259380_CustomAttributesCacheGenerator_Decimal__ctor_m593929528P21CustomAttributesCache
Mce:_Context_get_WriteSequenceNumber_m1115956887
yld:_Activator_CreateInstanceInternal_m1337209899
s1h:_Dictionary_2_Do_ICollectionCopyTo_TisKeyValuePair_2_t2401056908_m1169495264_gshared
LZd:_OpCodes__cctor_m3821715395
_5c:_ContentSizeFitter__ctor_m2349275633
CDh:__ZL56TypeConverter_t2249118273_CustomAttributesCacheGeneratorP21CustomAttributesCache
vgh:_Collection_1_RemoveAt_m3506636491_gshared
dEc:_tt_cmap_init
Pvc:__ZN8JSONRead8TransferI9BoundsIntEEvRT_PKc17TransferMetaFlagsb
Ia:invoke_viidi
V$h:_Array_Sort_TisOrderBlock_t1585977831_m2922111197_gshared
M9c:_Graphic_OnRectTransformDimensionsChange_m3695755375
ged:_SByte_System_IConvertible_ToChar_m1489191771_AdjustorThunk
FI:__ZN9AudioClip7CleanupEv
DYg:__Z76RuntimeInvoker_Void_t1185182177_Int32_t2950945753_PlayableBinding_t354260709PFvvEPK10MethodInfoPvPS4_
ohf:_Interval_t1802865632_marshal_pinvoke_cleanup
r6i:__ZNK15dense_hashtableINSt3__24pairIK10KeyWrapperIP11Il2CppClassES4_EES5_N6il2cpp8metadata16SZArrayClassHashEN14dense_hash_mapIS5_S4_SA_NS5_14EqualsComparerINS9_19SZArrayClassCompareEEENS0_9allocatorIS7_EEE9SelectKeyESE_SG_E12test_deletedEj
gad:_Graphic_GraphicUpdateComplete_m1502194795
quc:__Z18Transfer_BlittableI8JSONReadLb0EdEvRK29SerializationCommandArgumentsR31RuntimeSerializationCommandInfo
OHe:_SynchronizationAttribute_EnterContext_m1660729920
HHi:_Canvas_get_referencePixelsPerUnit_m3420541976
z5h:_ReadOnlyCollection_1_System_Collections_ICollection_get_SyncRoot_m2522539235_gshared
Zui:_Event_get_current_m2393892120
gzi:_VertexHelper_Clear_m627349662
PSi:__ZN6il2cpp2vm21ThreadPoolCompartment13QueueWorkItemEP17Il2CppAsyncResult
npa:__ZNK9GfxDevice13GetViewMatrixEv
hOd:_UnmanagedMemoryStream_Dispose_m2681886347
Jhb:__ZN17RemapPPtrTransferC2E24TransferInstructionFlagsb
oAd:_Convert_ToDecimal_m889385228
J0:__ZN8TypeTree8BlobReadERPKhS1_ib
zGh:__ZL87Display_t1387065949_CustomAttributesCacheGenerator_Display_GetSystemExtImpl_m2808197389P21CustomAttributesCache
Nnd:_Array_Reverse_m3714848183
g8c:_Dropdown_ClearOptions_m4085591601
l5c:_CanvasUpdateRegistry_InternalRegisterCanvasElementForGraphicRebuild_m3522560454
qSf:_KeyValuePair_2__ctor_m880186442_gshared
lgb:__ZN18LoadSceneOperation23GetAllowSceneActivationEv
eSa:__ZN6CameraD0Ev
tfa:__ZN31CanvasBatchIntermediateRenderer16StaticInitializeEPv
Uih:_Collection_1_System_Collections_IList_IndexOf_m837396833_gshared
ix:__ZN7mecanim12AndValueMaskILb0EEEvPKNS_14ValueArrayMaskEPS1_
Efb:__ZN14SafeBinaryRead21TransferSTLStyleArrayINSt3__26vectorIi13stl_allocatorIiL18MemLabelIdentifier13ELi16EEEEEEvRT_17TransferMetaFlags
a5f:_EncoderFallback__cctor_m3806755293
gke:_InternalEnumerator_1__ctor_m962177456_AdjustorThunk
PKc:_raccess_guess_apple_double
OBa:__ZL18ProgramUniform1uivPK7ApiGLESjiihPKv
r5b:__ZN14Texture2DArray13RebuildMipMapEv
OMi:__ZN13Il2CppHashSetIPK17Il2CppGenericInstN6il2cpp8metadata21Il2CppGenericInstHashENS4_24Il2CppGenericInstCompareENSt3__29allocatorI10KeyWrapperIS2_EEEEC2EjRKS5_RKS6_
Sob:__Z18Transfer_BlittableI14SafeBinaryReadLb1EaEvRK29SerializationCommandArgumentsR31RuntimeSerializationCommandInfo
vij:__ZN6il2cpp2gc16GarbageCollector14RemoveWeakLinkEPPv
rna:__ZN9ShaderLab20SerializedSubProgram14AddVectorParamEPKcii15ShaderParamTypei
R2g:_List_1_GetEnumerator_m563931292_gshared
wQc:__ZN2UI14CanvasRenderer12CleanupClassEv
Wyd:_Enumerator__ctor_m3362421874
VQg:__Z117RuntimeInvoker_CSSSize_t3377836552_IntPtr_t_Single_t1397266774_Int32_t2950945753_Single_t1397266774_Int32_t2950945753PFvvEPK10MethodInfoPvPS4_
CJj:_emscripten_glIsFramebuffer__wrapper
vfj:__ZN6il2cpp2vm6Object3BoxEP11Il2CppClassPv
f7i:__ZN6il2cpp2vm6Thread7SetNameEP12Il2CppThreadP12Il2CppString
IGb:__ZN13ScreenManager18SetAllowCursorLockEb
eT:__ZN11UnityEngine15CloudWebService10RestClientINS0_23WebRequestRestHeaderMapEE16SetRequestHeaderERKN4core12basic_stringIcNS4_20StringStorageDefaultIcEEEESA_
Jfb:__ZN30RuntimeInitializeOnLoadManager15ClassMethodInfo8TransferI14SafeBinaryReadEEvRT_
zIe:_ConstructionCall_InitDictionary_m2824447813
R2d:_TargetException__ctor_m3701535709
rWg:__Z86RuntimeInvoker_Int32_t2950945753_Vector3_t3722313464_Vector3_t3722313464_RuntimeObjectPFvvEPK10MethodInfoPvPS4_
BP:__ZL22InitializeModule_Audiov
Imb:__ZN16MemoryFileSystem8IsLockedERK13FileEntryData
O8i:__ZN6il2cpp6icalls8mscorlib6System2IO6MonoIO5WriteEiP11Il2CppArrayiiPi
Fpg:_Mathf_InverseLerp_m4155825980
eHg:__Z92RuntimeInvoker_RuntimeObject_RuntimeObject_RuntimeObject_SByte_t1669577662_SByte_t1669577662PFvvEPK10MethodInfoPvPS4_
Zk:_emscripten_glBindRenderbuffer
A0g:_List_1_System_Collections_IList_Insert_m1011775503_gshared
Ioj:_GC_dirty_init
Qcj:__ZN6il2cpp2vm5Image33GetCachedMemoryMappedResourceFileEP24Il2CppReflectionAssembly
hfj:__ZN6il2cpp2vm5Field14GetValueObjectEP9FieldInfoP12Il2CppObject
UPc:__ZNK2UI6Canvas16GetTargetDisplayEv
vVg:__Z69RuntimeInvoker_Void_t1185182177_Int32_t2950945753_Vector2_t2156229523PFvvEPK10MethodInfoPvPS4_
Mbg:_TimeSpan_CompareTo_m3633415627_AdjustorThunk
ida:__ZN6Object17FindObjectsOfTypeEPKN5Unity4TypeER13dynamic_arrayIPS_Lj4EEb
j9b:__ZNSt3__26vectorINS_4pairIiiEE13stl_allocatorIS2_L18MemLabelIdentifier1ELi16EEE21__push_back_slow_pathIKS2_EEvRT_
JUe:_MaskableGraphic_OnTransformParentChanged_m329502413
Bdh:_Collection_1_Remove_m3611142372_gshared
UDb:__ZN13MonoBehaviour17RemoveFromManagerEv
mzg:_Vector3_get_Item_m668685504_AdjustorThunk
LSa:__ZN12ImageFilters14AddImageFilterERK11ImageFilter
LGe:_Context_NotifyDynamicSinks_m1841702879
zvi:_GUIUtility_get_pixelsPerPoint_m2369948084
rnf:_WindowsIdentity_System_Runtime_Serialization_IDeserializationCallback_OnDeserialization_m3428853631
pW:__ZN13MemoryManagerC2Ev
HFa:__ZN12SkinMeshInfo10DeallocateEPS_
CNi:__ZNK15dense_hashtableINSt3__24pairIK10KeyWrapperIPKcEP11Il2CppClassEES5_N6il2cpp5utils11StringUtils12StringHasherIS4_EEN14dense_hash_mapIS5_S8_SE_NS5_14EqualsComparerINSB_13VmStringUtils21CaseSensitiveComparerEEENS0_9allocatorIS9_EEE9SelectKeyESJ_SL_E8min_sizeEjj
XXe:_ScrollRect_SetDirty_m214267968
qPa:__ZN20ArchiveStorageReader28AcquireAndPrefillUnusedBlockEjPNS_11CacheResultE
rpd:_Boolean_System_IConvertible_ToDateTime_m603510836
l5b:__Z12NHxRoughnessIA4_tEvP9Texture2DPT_iiii
H3e:_ASN1_get_Value_m1857007406
_Ci:__ZL25UnresolvedVirtualCall_105P12Il2CppObjecthPK10MethodInfo
Cda:__ZN18AsyncUploadManagerD2Ev
kkb:__ZN9Transform5ResetEv
Wyf:_Decimal_op_Explicit_m1842265407
Cvb:__Z22TransferField_NonArrayI24GenerateTypeTreeTransfer16Converter_StringEvRK23StaticTransferFieldInfoR31RuntimeSerializationCommandInfoRT0_
xIi:_CanvasRenderer_SetAlphaTexture_m2009567627
yAc:_UNITY_FT_CMap_New
Wje:_InternalEnumerator_1_get_Current_m4241643334_AdjustorThunk
Zie:_InternalEnumerator_1_MoveNext_m154749640_AdjustorThunk
BGb:__Z17MainLoopKeepalivePv
wXh:__ZL62Slider_t3903728902_CustomAttributesCacheGenerator_m_HandleRectP21CustomAttributesCache
zOi:__ZN15dense_hashtableI10KeyWrapperIPK17Il2CppGenericInstES4_N6il2cpp8metadata21Il2CppGenericInstHashEN14dense_hash_setIS4_S7_NS4_14EqualsComparerINS6_24Il2CppGenericInstCompareEEENSt3__29allocatorIS4_EEE8IdentityESB_SE_E12expand_arrayEjN21dense_hash_map_traits17integral_constantIbLb0EEE
kqe:_InternalEnumerator_1_get_Current_m1588647567_AdjustorThunk
Luj:_printf_core
Ish:__ZL51GCHandle_t3351438187_CustomAttributesCacheGeneratorP21CustomAttributesCache
HVb:__Z14CalcHullBoundsPK8Vector3fPKhhRK5PlaneRK10Matrix4x4fR10MinMaxAABB
ZOe:_InputField_get_caretBlinkRate_m3620074524
zOb:__Z19SetupLODFadeKeywordR17ShaderPassContexti
njf:_RSAPKCS1SignatureFormatter_CreateSignature_m3191980616
g$a:__ZN10builtintex16GetDefaultTexEnvE16TextureDimensionb
jFa:__ZL25CheckCopyTextureArgumentsRK7ApiGLESP11GLESTextureS3_
mqe:_InternalEnumerator_1__ctor_m362401472_AdjustorThunk
Q0g:_List_1_AsReadOnly_m2400800347_gshared
pIj:_glDeleteShader__wrapper
$ub:__Z29Transfer_Blittable_ArrayFieldI24GenerateTypeTreeTransferyEvRT_R9ArrayInfoRK23StaticTransferFieldInfo
chg:_ValueType_Equals_m1524437845
mKh:__ZL71RuntimePlatform_t4159857903_CustomAttributesCacheGenerator_OSXWebPlayerP21CustomAttributesCache
qJ:__ZN4FMOD7SystemI9playSoundE17FMOD_CHANNELINDEXPNS_5SoundEbPPNS_7ChannelE
cUg:__Z123RuntimeInvoker_RuntimeObject_Ray_t3785851493_RuntimeObject_Single_t1397266774_Int32_t2950945753_RuntimeObject_RuntimeObjectPFvvEPK10MethodInfoPvPS4_
CGd:_Int64_GetHashCode_m703091690
DEf:_CultureInfo_set_DateTimeFormat_m1843682751
Vni:_X509CrlEntry_get_RevocationDate_m606796547
Sui:_Event_get_commandName_m4275147343
hx:__ZN27AnimationLayerMixerPlayable17LayerMixerProcessEP35AnimationPlayableEvaluationConstantP32AnimationPlayableEvaluationInputP33AnimationPlayableEvaluationOutputM17AnimationPlayableFvS1_S3_S5_EMS_FvS1_S3_S5_ESA_MS_FvS5_S1_S3_S5_ifE
bzf:_Decimal_op_Implicit_m4256234411
RH:__ZN12AudioManager23VirtualRedirectTransferER18StreamedBinaryReadILb0EE
HDg:__Z60RuntimeInvoker_RuntimeObject_RuntimeObject_Int16_t2552820387PFvvEPK10MethodInfoPvPS4_
cMd:_StreamReader__ctor_m3941437302
dkc:__Z57Register_UnityEngine_Transform_INTERNAL_get_localRotationv
aaf:_IPv6Address_get_Address_m1389170741
wfb:__ZN30RuntimeInitializeOnLoadManager23VirtualRedirectTransferER17RemapPPtrTransfer
XAj:dynCall_viif
hTd:_AssemblyName_get_Flags_m1616840602
ls:__ZN7mecanim4hand8HandPoseC2Ev
qIh:__ZL86Material_t340375123_CustomAttributesCacheGenerator_Material_DisableKeyword_m1245091008P21CustomAttributesCache
VMd:_StringReader_ReadLine_m2337102945
Hsb:__ZL26Transfer_SimpleNativeClassI17RemapPPtrTransfer8GradientLb0EEvRK29SerializationCommandArgumentsR31RuntimeSerializationCommandInfo
Rxd:_SyncHashtable_Add_m3016107307
Uy:__ZN17AnimationPlayable26DisconnectNoTopologyChangeEPS_i
_pd:_Boolean_Equals_m2410333903_AdjustorThunk
d7g:_List_1_System_Collections_IList_Contains_m2131605266_gshared
nvh:__ZL61ISurrogateSelector_t3040401154_CustomAttributesCacheGeneratorP21CustomAttributesCache
L8g:_List_1_ToArray_m1990123684_gshared
$T:__ZN13UploadHandlerD2Ev
tzj:dynCall_viiiiiffi
TFi:_Hacker__ctor_m518604791
zc:_emscripten_glBlendFuncSeparate
Afh:_Collection_1_Add_m809543251_gshared
D_:__Z20scripting_string_newPKc
Cic:__Z43Material_CUSTOM_Internal_CreateWithMaterialP12Il2CppObjectS0_
$si:_Parser_IsSingleline_m326238187
Vvd:_CollectionBase_get_Count_m1708965601
Wgd:_HMAC__ctor_m97939284
k7h:_ReadOnlyCollection_1_System_Collections_IList_get_Item_m1005238747_gshared
dBh:__ZL49DBNull_t3725197148_CustomAttributesCacheGeneratorP21CustomAttributesCache
bhg:_ValueType_DefaultEquals_m2927252100
Vpc:__ZN9JSONWrite12AppendToNodeEPN5Unity9rapidjson12GenericValueINS1_4UTF8IcEE13JSONAllocatorEEPKcRS6_
O3e:_ASN1_ToString_m1340204511
Kdf:_X509Store_get_Certificates_m2149701265
ITf:_DefaultComparer_GetHashCode_m2865442331_gshared
CTh:__ZL144StandaloneInputModule_t2760469101_CustomAttributesCacheGenerator_StandaloneInputModule_t2760469101____allowActivationOnMobileDevice_PropertyInfoP21CustomAttributesCache
T6f:_StringBuilder_set_Chars_m3548656617
QVi:__ZN6il2cpp2os4File17GetFileAttributesERKNSt3__212basic_stringIcNS2_11char_traitsIcEENS2_9allocatorIcEEEEPi
aXg:__Z59RuntimeInvoker_Int32_t2950945753_X509ChainStatus_t133602714PFvvEPK10MethodInfoPvPS4_
_B:__ZNSt3__26__sortIRPFbPKN8Animator11AnimatorJobES4_EPS4_EEvT0_S9_T_
WG:__ZN17AudioCustomFilterD2Ev
ync:__ZN11IMGUIModule26SetDeveloperConsoleVisibleEb
HXg:__Z56RuntimeInvoker_Void_t1185182177_MonoResource_t4103430009PFvvEPK10MethodInfoPvPS4_
rkb:__ZN9Transform16ResetReplacementEv
Bmj:_GC_unpromote_black_lists
_oh:__ZL64DebuggerBrowsableState_t747501856_CustomAttributesCacheGeneratorP21CustomAttributesCache
ADa:__ZN18GfxFramebufferGLES18ReleaseFramebufferEP17RenderSurfaceBaseP14GfxContextGLES
gtc:__Z18Transfer_BlittableI8JSONReadLb1EiEvRK29SerializationCommandArgumentsR31RuntimeSerializationCommandInfo
mNd:_TextReader_Dispose_m4253712522
oV:__ZN19CloudServiceHandler34HandleSaveFileWebRequestPlayerLoopEv
JCh:__ZL82BigInteger_t2902905090_CustomAttributesCacheGenerator_BigInteger__ctor_m2474659844P21CustomAttributesCache
Gy:__ZN7mecanim21ValueArrayReverseCopyEPKNS_18ValueArrayConstantEPKNS_10ValueArrayES2_PS3_PKi
EG:__Z31GetParentSampleClipFromInstancePN11SoundHandle8InstanceE
uji:_InternalAsyncResult_get_BytesRead_m3975435112
L3b:__ZNK28RectTransformPropertyBinding13GetFloatValueERKN11UnityEngine9Animation10BoundCurveE
UXb:__ZN6Camera22StandaloneCustomRenderENS_10RenderFlagEP6ShaderRKN4core12basic_stringIcNS3_20StringStorageDefaultIcEEEEPNS_21PerformRenderFunctionE
cMf:_Array_InternalArray__IndexOf_TisKeyValuePair_2_t2401056908_m4118889689_gshared
$eb:__ZNSt3__26vectorI4PPtrI6ObjectE13stl_allocatorIS3_L18MemLabelIdentifier52ELi16EEE6assignINS_11__wrap_iterIPS3_EEEENS_9enable_ifIXaasr21__is_forward_iteratorIT_EE5valuesr16is_constructibleIS3_NS_15iterator_traitsISD_E9referenceEEE5valueEvE4typeESD_SD_
b4h:_Collection_1_System_Collections_ICollection_get_IsSynchronized_m500240145_gshared
_Dh:__ZL68X509CertificateCollection_t3399372417_CustomAttributesCacheGeneratorP21CustomAttributesCache
ytj:__ZN6il2cpp2os16ThreadLocalValue8GetValueEPPv
Ncf:_X509Certificate2_get_PublicKey_m370665820
Lxc:_cff_slot_init
fRi:__ZN6il2cpp2vm13MetadataCache14GetGenericInstEPKPK10Il2CppTypej
EP:__ZN13AudioListener17ReadExtensionNameEi
Lb:invoke_iiidii
cdh:_Collection_1_System_Collections_Generic_ICollectionU3CTU3E_get_IsReadOnly_m1419845799_gshared
jP:__ZN9AudioClip15InitializeClassEv
cp:setThrew
TKe:_SoapMethodAttribute_get_XmlNamespace_m4029617514
c5b:__ZL21BuildEmptyCubeTexturePKci11ColorRGBA3217TextureColorSpace
rFh:__ZL106AsyncOperation_t1445031843_CustomAttributesCacheGenerator_AsyncOperation_InvokeCompletionEvent_m1410305036P21CustomAttributesCache
ewg:_SelectionBaseAttribute__ctor_m2749097321
Xha:__ZN14SafeBinaryRead21TransferSTLStyleArrayINSt3__26vectorIN9ShaderLab20SerializedSubProgramENS1_9allocatorIS4_EEEEEEvRT_17TransferMetaFlags
BMf:_Array_InternalArray__IndexOf_TisX509ChainStatus_t133602714_m48896230_gshared
VNa:__ZN19dynamic_block_arrayI13FileEntryInfoLj32EE4growEj
ptc:__Z15Transfer_StringI8JSONReadLb1EEvRK29SerializationCommandArgumentsR31RuntimeSerializationCommandInfo
wci:_Comparison_1_BeginInvoke_m816899747_gshared
jAa:__ZN6prcoreL17RemapGenericFloatI17TexFormatRGBFloat15TexFormatRGHalfEEvPKNS_9InnerInfoE
Tth:__ZL63IContributeEnvoySink_t2817847987_CustomAttributesCacheGeneratorP21CustomAttributesCache
SCc:_sfnt_load_face
mKc:_UNITY_FT_Render_Glyph_Internal
G9i:__ZNSt3__212basic_stringIDsNS_11char_traitsIDsEENS_9allocatorIDsEEE21__grow_by_and_replaceEjjjjjjPKDs
SAc:_UNITY_ft_service_list_lookup
Asb:__Z18Transfer_BlittableI17RemapPPtrTransferLb1E11ColorRGBA32EvRK29SerializationCommandArgumentsR31RuntimeSerializationCommandInfo
Xmc:__ZN5IMGUI21SelectReceivingWindowER8GUIStateb
khd:_HMAC_Initialize_m3157696427
YXa:__ZN4PPtrI5LightE8TransferI14SafeBinaryReadEEvRT_
Nvj:___strchrnul
g5g:_List_1_System_Collections_ICollection_CopyTo_m3643417403_gshared
QV:__ZN13BaseAllocator13TryDeallocateEPv
Fxb:__Z29Transfer_Blittable_ArrayFieldI19StreamedBinaryWriteILb0EEfEvRT_R9ArrayInfoRK23StaticTransferFieldInfo
eji:_ListPool_1_Release_m1363449253_gshared
Gbf:_X509SubjectKeyIdentifierExtension__ctor_m2055934916
H0f:_Enumerator_Dispose_m2531396701_AdjustorThunk
qmb:__ZN16MemoryFileSystem5WriteER13FileEntryDatayPvPy
VTa:__ZNSt3__26vectorIN12FlareManager10FlareEntryENS_9allocatorIS2_EEE21__push_back_slow_pathIKS2_EEvRT_
Huj:_sprintf
TLh:__ZL67NativeContainerAttribute_t2600515814_CustomAttributesCacheGeneratorP21CustomAttributesCache
Fdc:__ZN9Scripting25CreateNullExceptionObjectE18ScriptingObjectPtr
R5e:_PrivateKeyInfo_DecodeRSA_m2889346634
yH:__ZN13AudioListener17RemoveFromManagerEv
td:_glAttachShader
j6c:_ContentSizeFitter_SetLayoutHorizontal_m2833273874
hY:__ZNK6Camera19GetProjectionMatrixEv
OVh:__ZL70InputField_t3762917431_CustomAttributesCacheGenerator_m_SelectionColorP21CustomAttributesCache
zPe:_InputField_SetToCustomIfContentTypeIsNot_m2813459946
yAg:__Z49RuntimeInvoker_DateTime_t3738529785_RuntimeObjectPFvvEPK10MethodInfoPvPS4_
sKh:__ZL70RuntimePlatform_t4159857903_CustomAttributesCacheGenerator_FlashPlayerP21CustomAttributesCache
vGf:_Guid_GetHashCode_m3042133858_AdjustorThunk
c_:__Z38PreallocateObjectFromPersistentManagerib
Iui:_Event_t2956885303_marshal_pinvoke_cleanup
Mnf:_SecurityException_get_FirstPermissionThatFailed_m3934559164
Fgf:_Interpreter_Backtrack_m2828876822
M2a:__ZNK9Texture2D20GetUnscaledTextureIDEv
Sqh:__ZL103TypeBuilder_t1073948154_CustomAttributesCacheGenerator_TypeBuilder_DefineDefaultConstructor_m2168449784P21CustomAttributesCache
wed:_SByte_System_IConvertible_ToType_m4075253447
GGj:_glFenceSync__wrapper
GKi:__ZNK15dense_hashtableINSt3__24pairIK10KeyWrapperIPK22Il2CppGenericParameterEP11Il2CppClassEES6_N6il2cpp5utils11PointerHashIS4_EEN14dense_hash_mapIS6_S9_SE_NS6_14EqualsComparerINS0_8equal_toIS5_EEEENS0_9allocatorISA_EEE9SelectKeyESJ_SL_E8min_sizeEjj
kyg:_Transform_INTERNAL_get_worldToLocalMatrix_m2730237241
PQe:_InputField_IsValidChar_m1928072643
UXg:__Z51RuntimeInvoker_Void_t1185182177_HitInfo_t3229609740PFvvEPK10MethodInfoPvPS4_
R2a:__ZNK9Texture2D26CanReuploadDataToGfxDeviceEv
DCb:__ZN18StreamedBinaryReadILb0EE21TransferSTLStyleArrayI13dynamic_arrayI4AABBLj4EEEEvRT_17TransferMetaFlags
jxh:__ZL63CodeAccessPermission_t2681295399_CustomAttributesCacheGeneratorP21CustomAttributesCache
Xgb:__Z29ClearRepeatingLogMessageStatev
xoe:_InternalEnumerator_1_get_Current_m3191242573_gshared
ard:_Byte_Equals_m1161982810_AdjustorThunk
lXg:__Z53RuntimeInvoker_Int32_t2950945753_UICharInfo_t75501106PFvvEPK10MethodInfoPvPS4_
W3b:__ZN15QualitySettings12CleanupClassEv
Efe:_SslCipherSuite_ComputeMasterSecret_m3963626850
m8g:_List_1_GrowIfNeeded_m278824317_gshared
EJa:__ZN7ApiGLESD2Ev
aRa:__ZN9Transform47ClearTransformHierarchyAndApplyToSerializedDataEv
Euc:__ZN8JSONRead21TransferSTLStyleArrayINSt3__26vectorI8MonoPPtr13stl_allocatorIS3_L18MemLabelIdentifier1ELi16EEEEEEvRT_17TransferMetaFlags
vHd:_IntPtr_op_Explicit_m536245531
kSa:__ZN6Camera23VirtualRedirectTransferER19StreamedBinaryWriteILb0EE
mBj:dynCall_fidi
WYi:__ZN15dense_hashtableINSt3__24pairIK10KeyWrapperINS1_IPK9FieldInfoP11Il2CppClassEEEjEES9_17ReflectionMapHashIS8_EN14dense_hash_mapIS9_jSD_NS9_14EqualsComparerINS0_8equal_toIS8_EEEENS0_9allocatorISB_EEE9SelectKeyESI_SK_E12resize_deltaEjj
i1g:_List_1_TrimExcess_m3433550210_gshared
_kh:__ZL63IntPtr_t_CustomAttributesCacheGenerator_IntPtr__ctor_m987082960P21CustomAttributesCache
aOi:__ZNK15dense_hashtableINSt3__24pairIK10KeyWrapperIPK19Il2CppGenericMethodEPK26Il2CppGenericMethodIndicesEES6_N6il2cpp8metadata23Il2CppGenericMethodHashEN14dense_hash_mapIS6_SA_SE_NS6_14EqualsComparerINSD_26Il2CppGenericMethodCompareEEENS0_9allocatorISB_EEE9SelectKeyESI_SK_E8min_sizeEjj
Qth:__ZL58IContextProperty_t840037424_CustomAttributesCacheGeneratorP21CustomAttributesCache
Kvi:_GUILayoutEntry__ctor_m2229197035
uU:__ZN11UnityEngine15CloudWebService14RestDownloaderD2Ev
gWd:_EnumBuilder_get_Assembly_m1175292766
R_b:__Z29StdTemplateConversionFunctionIjhEbPvR14SafeBinaryRead
m4:__ZN15dense_hashtableINSt3__24pairIKN9ShaderLab7Program23ShaderKeywordSetAndHashEPKNS2_10SubProgramEEES4_NS3_24ShaderKeywordHashFunctorEN14dense_hash_mapIS4_S8_SA_NS0_8equal_toIS4_EE13stl_allocatorIS9_L18MemLabelIdentifier67ELi16EEE9SelectKeyESD_SG_E15insert_noresizeERKS9_
z0h:_Array_swap_TisCustomAttributeNamedArgument_t287865710_TisCustomAttributeNamedArgument_t287865710_m881919420_gshared
Ddc:__ZNK13MonoBehaviour13GetScriptTypeEv
hZa:__ZN13RenderTexture12SetDimensionE16TextureDimension
r4e:_DSAManaged_add_KeyGenerated_m2286864968
je:_SDL_FreeRW
fSh:__ZL109ExecuteEvents_t3484638744_CustomAttributesCacheGenerator_ExecuteEvents_U3Cs_HandlerListPoolU3Em__0_m391641698P21CustomAttributesCache
sYg:__Z79RuntimeInvoker_Void_t1185182177_Int32_t2950945753_ParameterModifier_t1461694466PFvvEPK10MethodInfoPvPS4_
iRc:__Z34CanvasRenderer_Get_Custom_PropCullP12Il2CppObject
kN:__ZN20SoundChannelInstance8getDelayE14FMOD_DELAYTYPEPjS1_
_qj:__ZNSt3__26__treeINS_12__value_typeIPvxEENS_19__map_value_compareIS2_S3_NS_4lessIS2_EELb1EEENS_9allocatorIS3_EEE12__find_equalIS2_EERPNS_16__tree_node_baseIS2_EESF_RKT_
D4:__ZNSt3__26vectorIN20GpuProgramParameters15StructParameterENS_9allocatorIS2_EEEC2ERKS5_
$he:_ArrayReadOnlyList_1_Contains_m232667507_gshared
wJg:__Z77RuntimeInvoker_Boolean_t97287965_IntPtr_t_Int32_t2950945753_SByte_t1669577662PFvvEPK10MethodInfoPvPS4_
jsg:_PlayableHandle_GetPlayableType_m432385838_AdjustorThunk
bJc:__ZNSt3__26vectorIN20TextRenderingPrivate8FontImpl13CharacterInfoE13stl_allocatorIS3_L18MemLabelIdentifier1ELi16EEE8__appendEj
v:tempBigInt
lQf:_Array_InternalArray__Insert_TisKeyframe_t4206410242_m1558638568_gshared
uzh:__ZL77Convert_t2465617642_CustomAttributesCacheGenerator_Convert_ToByte_m3567528984P21CustomAttributesCache
re:_emscripten_glVertexAttrib1fv
Eia:__ZNSt3__26vectorIN9ShaderLab20SerializedSubProgram12UAVParameterENS_9allocatorIS3_EEE7reserveEj
oyj:__ZSt11__terminatePFvvE
QJ:__ZN12AudioManager14systemCallbackEP11FMOD_SYSTEM24FMOD_SYSTEM_CALLBACKTYPEPvS3_
Edi:_Nullable_1_Equals_m4046255732_gshared
c9h:_ReadOnlyCollection_1_System_Collections_Generic_ICollectionU3CTU3E_Clear_m3451551308_gshared
W3c:_BaseMeshEffect_OnEnable_m3291426649
Yjg:_ClassLibraryInitializer_Init_m988673678
xF:__ZN10SampleClip23VirtualRedirectTransferER24GenerateTypeTreeTransfer
tYa:__ZN16ReflectionProbes16UpdateSampleDataEv
FMh:__ZL90PlayerEditorConnectionEvents_t3411787513_CustomAttributesCacheGenerator_disconnectionEventP21CustomAttributesCache
LEf:_CultureInfo_GetCultureInfo_m56098747
b8a:__ZN14Texture2DArray5ResetEv
XUb:__Z20AddActiveLocalLightsR11CullResultsR27LocalLightCullingParametersPPK15SharedLightDataPK8Vector4fRK9IndexListPfRSA_R12ActiveLightsSG_P5RectTIfEP13TargetEyeMask
Boh:__ZL80Hashtable_t1853889766_CustomAttributesCacheGenerator_Hashtable__ctor_m1763145853P21CustomAttributesCache
jAd:_Convert_ToDecimal_m1284148187
qhh:_Collection_1__ctor_m3489157029_gshared
iEj:_emscripten_glRenderbufferStorage__wrapper
gXi:__ZNK6il2cpp2vm14TypeNameParser10NextWillBeEcb
myc:_cf2_getNormalizedVector
Oe:_JS_Sound_Play
uUc:__Z26GetUnityConnectSettingsPtrv
$9h:_ReadOnlyCollection_1_System_Collections_IList_set_Item_m1538987737_gshared
jha:__ZN9ShaderLab16SerializedShader8TransferI14SafeBinaryReadEEvRT_
zLa:__ZN5Mutex7TryLockEv
jbd:_GridLayoutGroup_set_constraint_m3308895167
mOh:__ZL103AudioSource_t3935305588_CustomAttributesCacheGenerator_AudioSource_ReadExtensionPropertyValue_m72717540P21CustomAttributesCache
SIe:_ConstructionCallDictionary_SetMethodProperty_m3145285304
uFd:_Int32_System_IConvertible_ToUInt32_m3557270157
rMg:__Z243RuntimeInvoker_Void_t1185182177_Int16_t2552820387_RuntimeObject_Int32_t2950945753_Int32_t2950945753_Int32_t2950945753_SByte_t1669577662_SByte_t1669577662_SByte_t1669577662_SByte_t1669577662_Int16_t2552820387_SByte_t1669577662_SByte_t1669577662PFvvEPK10MethodInfoPvPS4_
Uie:_InternalEnumerator_1_System_Collections_IEnumerator_get_Current_m1503522504_gshared
sB:__ZN7mecanim8skeleton13SkeletonAlignEPKNS0_8SkeletonERKN4math7_float4ES7_i
W5b:__ZN19ShaderPropertySheet16SetVectorIndexedEN9ShaderLab16FastPropertyNameEifRK8Vector4fNS_8SetFlagsE
Ecg:_Type_get_IsAbstract_m1120089130
szg:_Vector3_get_normalized_m2454957984_AdjustorThunk
jq:__ZN14SafeBinaryRead21TransferSTLStyleArrayIN4core12basic_stringIcNS1_20StringStorageDefaultIcEEEEEEvRT_17TransferMetaFlags
yui:_UriFormatException__ctor_m1115096473
xme:_InternalEnumerator_1_Dispose_m2818366163_AdjustorThunk
aKf:_Array_InternalArray__IEnumerable_GetEnumerator_TisSlot_t384495010_m460993382_gshared
eIh:__ZL114MonoBehaviour_t3962482529_CustomAttributesCacheGenerator_MonoBehaviour_StopCoroutineViaEnumerator_Auto_m3883784228P21CustomAttributesCache
e5i:__ZN15dense_hashtableINSt3__24pairIK10KeyWrapperINS1_IP11Il2CppClassjEEES4_EES6_N6il2cpp8metadata14ArrayClassHashEN14dense_hash_mapIS6_S4_SB_NS6_14EqualsComparerINSA_17ArrayClassCompareEEENS0_9allocatorIS8_EEE9SelectKeyESF_SH_E9copy_fromERKSK_j
REi:__ZL25UnresolvedVirtualCall_204P12Il2CppObjectPK10MethodInfo
t$b:__Z29StdTemplateConversionFunctionIayEbPvR14SafeBinaryRead
f9f:_WaitHandle__ctor_m1707080176
Z$g:__Z55RuntimeInvoker_Boolean_t97287965_Nullable_1_t2603721331PFvvEPK10MethodInfoPvPS4_
txi:_GUIUtility_IsExitGUIException_m3644066650
XU:__ZN11UnityEngine15CloudWebService14DataDispatcher4StopEv
Y5c:_ColorBlock_GetHashCode_m4264192507
jDd:_Int16_System_IConvertible_ToUInt64_m134975563
Gia:__ZNSt3__26vectorIN9ShaderLab20SerializedSubProgram12UAVParameterENS_9allocatorIS3_EEE8__appendEj
esh:__ZL68TargetInvocationException_t4266643902_CustomAttributesCacheGeneratorP21CustomAttributesCache
B0i:__ZNK15dense_hashtableINSt3__24pairIK10KeyWrapperINS1_IPK9EventInfoP11Il2CppClassEEEjEES9_17ReflectionMapHashIS8_EN14dense_hash_mapIS9_jSD_NS9_14EqualsComparerINS0_8equal_toIS8_EEEENS0_9allocatorISB_EEE9SelectKeyESI_SK_E12test_deletedERK24dense_hashtable_iteratorISB_S9_SD_SM_SI_SK_E
Pmc:__ZN5IMGUI9GUIWindow5OnGUIER8GUIState
VAi:_AudioConfigurationChangeHandler_EndInvoke_m4175380841
wof:_Single_System_IConvertible_ToDecimal_m325860800_AdjustorThunk
YOf:_Array_InternalArray__ICollection_CopyTo_TisSingle_t1397266774_m455540885_gshared
RMa:__ZN17ScriptingGCHandle7AcquireE18ScriptingObjectPtr25ScriptingGCHandleWeakness
KLg:__Z74RuntimeInvoker_RuntimeObject_RuntimeObject_Int64_t3736567304_RuntimeObjectPFvvEPK10MethodInfoPvPS4_
cPc:__ZN2UI14CanvasRenderer14AttachToCanvasER8JobFencePNS_6CanvasENS0_15InstructionTypeE
sAe:_Enumerator__ctor_m1734342590_gshared
iAj:dynCall_iifiii
SNg:__Z85RuntimeInvoker_Int32_t2950945753_RuntimeObject_Int32U26_t1369213839_Int32_t2950945753PFvvEPK10MethodInfoPvPS4_
jya:__Z21HasAlphaTextureFormat13TextureFormat
VO:__ZN12AudioManager6UpdateEv
cya:__ZN14ImageReference9BlitImageERKS_NS_8BlitModeE
Vs:__ZN8Animator12AddToManagerEv
LOd:_MissingFieldException__ctor_m3742452630
Bef:_X509Chain__ctor_m2674663382
d9h:_ReadOnlyCollection_1_System_Collections_Generic_IListU3CTU3E_Insert_m1121807192_gshared
OEb:__ZN23CachedSerializationDataD2Ev
UWb:__ZNK25CameraStackRenderingState31CalculateStereoCameraTargetTypeEv
VXa:__ZN14RenderSettings23VirtualRedirectTransferER14SafeBinaryRead
vre:_InternalEnumerator_1_get_Current_m114240259_gshared
whj:__ZN6il2cpp2os10ThreadImpl15CurrentThreadIdEv
vQf:_Array_InternalArray__Insert_TisVector2_t2156229523_m2148694950_gshared
wVa:__ZN17GlobalGameManager8TransferI17RemapPPtrTransferEEvRT_
Okf:_SymmetricAlgorithm_get_Key_m3241860519
TRe:_U3CMouseDragOutsideRectU3Ec__Iterator1_Reset_m2233410497
jPe:_InputField_set_customCaretColor_m720445789
BXa:__ZN16LevelGameManager8TransferI18StreamedBinaryReadILb0EEEEvRT_
MGc:_UNITY_tt_face_load_fpgm
WQa:__Z17IsObjectAvailablei
dcb:__ZN12InputManagerD0Ev
Aah:_Queue_1_Peek_m1713833142_gshared
_vh:__ZL64DSASignatureFormatter_t2007981259_CustomAttributesCacheGeneratorP21CustomAttributesCache
p9f:_ExecutionContext_Capture_m681135907
NSf:_Dictionary_2_System_Collections_IDictionary_Add_m4011968134_gshared
gBb:__Z18Transfer_BlittableI18StreamedBinaryReadILb0EELb1EtEvRK29SerializationCommandArgumentsR31RuntimeSerializationCommandInfo
kke:_InternalEnumerator_1_System_Collections_IEnumerator_get_Current_m2889979481_AdjustorThunk
ixj:_posix_memalign
xtg:_Rect_get_position_m2115952571
r7h:_ReadOnlyCollection_1_get_Item_m4005849861_gshared
XZe:_Slider_get_direction_m3871593184
L3e:_ASN1_GetBytes_m3305539297
F8g:_List_1_Remove_m2092116835_gshared
Zzh:__ZL77Convert_t2465617642_CustomAttributesCacheGenerator_Convert_ToSByte_m717245755P21CustomAttributesCache
Kte:_DefaultComparer__ctor_m2039558311_gshared
g_:__ZNK15MonoScriptCache7ReleaseEv
CLi:__ZN6il2cpp2vm5Class13HasReferencesEP11Il2CppClass
Lsd:_CLSCompliantAttribute__ctor_m581760440
bg:_glBindTexture
yvj:_snprintf
AHd:_InvalidCastException__ctor_m2551002860
sSg:__Z50RuntimeInvoker_RuntimeObject_Resources_t1597885468PFvvEPK10MethodInfoPvPS4_
yFj:_emscripten_glVertexAttrib1fv__wrapper
cYg:__Z76RuntimeInvoker_Void_t1185182177_Int32_t2950945753_KeyValuePair_2_t2401056908PFvvEPK10MethodInfoPvPS4_
vib:__Z36scripting_liveness_calculation_begin17ScriptingClassPtriPFvPP12Il2CppObjectiPvES3_PFvvES7_
GAi:_AudioExtensionManager_RemoveExtensionFromManager_m442924172
YDj:_emscripten_glGetProgramInfoLog__wrapper
UD:__ZN25AnimatedPropertyEvaluator29BindCurveToScriptingObjectPtrERKN13AnimationClip10FloatCurveEj18ScriptingObjectPtrb
ixh:__ZL80AllowPartiallyTrustedCallersAttribute_t1828959166_CustomAttributesCacheGeneratorP21CustomAttributesCache
DTh:__ZL52InputMode_t3382566315_CustomAttributesCacheGeneratorP21CustomAttributesCache
d0:__ZN17PersistentManager23DestroyFromFileInternalEi
Jlg:_Display__ctor_m501911701
N5h:_ReadOnlyCollection_1_System_Collections_Generic_IListU3CTU3E_Insert_m1020890112_gshared
V7c:_Dropdown_get_onValueChanged_m2462066659
h7c:_DefaultControls_SetDefaultTextValues_m1943359795
dQb:__Z19SetupMotionMatricesR6CameraR18RPDataMotionVector
hKi:__ZL7log2_64y
OC:__ZN26AnimatorControllerPlayable18PrepareForPlaybackERN7mecanim6memory9AllocatorE
kD:__ZN8Animator11AnimatorJob11AddPlayableEP17AnimationPlayablef
ebd:_GridLayoutGroup_get_cellSize_m2967185053
Xsf:_CurrentSystemTimeZone_GetUtcOffset_m340358963
Jli:_PKCS12_Decrypt_m1280162536
tke:_InternalEnumerator_1_get_Current_m3081223448_gshared
avi:_Event_get_isMouse_m1058251071
DWa:__ZN10VertexDataC2ERKS_17ShaderChannelMask10MemLabelId
Bvd:_CaseInsensitiveHashCodeProvider_AreEqual_m1790260777
sbh:_Collection_1_IndexOf_m3762683187_gshared
tBc:_otv_JSTF_validate
G4:__ZN22CreateGpuProgramOutputC2Ev
A6d:_BigInteger_op_LessThanOrEqual_m3925173639
Umg:_PersistentCallGroup_Initialize_m4253175514
qpd:_Boolean_System_IConvertible_ToChar_m4279513009_AdjustorThunk
Awd:_Hashtable__ctor_m1763145853
bJe:_LogicalCallContext__ctor_m1263247987
yEd:_NumberFormatter_ScaleOrder_m3813786990
H2f:_List_1_GetEnumerator_m239622569_gshared
xSg:__Z43RuntimeInvoker_VerticalWrapMode_t2936607737PFvvEPK10MethodInfoPvPS4_
S5e:_PrivateKeyInfo_DecodeDSA_m771724585
n_i:__ZNK15dense_hashtableINSt3__24pairIK10KeyWrapperINS1_IPK10MethodInfoP11Il2CppClassEEEjEES9_17ReflectionMapHashIS8_EN14dense_hash_mapIS9_jSD_NS9_14EqualsComparerINS0_8equal_toIS8_EEEENS0_9allocatorISB_EEE9SelectKeyESI_SK_E23find_position_with_hashERSA_j
GRh:__ZL53EventHandle_t600343995_CustomAttributesCacheGeneratorP21CustomAttributesCache
Q6b:__ZN8GUILayer12CleanupClassEv
Hud:_SynchronizedArrayListWrapper_get_SyncRoot_m3862302789
w0g:_List_1_System_Collections_IEnumerable_GetEnumerator_m839737540_gshared
kfg:_UInt32_System_IConvertible_ToSByte_m1061556466
SFe:_WellKnownClientTypeEntry__ctor_m2471908952
BLi:__ZN6il2cpp2vm5Class4InitEP11Il2CppClass
ga:invoke_vidi
v$a:__ZN8Material17MainThreadCleanupEv
WDe:_RemotingServices_CreateClientProxyForContextBound_m783705199
yTg:__Z30RuntimeInvoker_Axis_t809944411PFvvEPK10MethodInfoPvPS4_
dbc:__ZNK15GUIEventManager15GetEventAtIndexEi
pji:_InternalAsyncResult_get_ProceedAfterHandshake_m2508379800
tPc:__ZN2UI14CanvasRenderer17SyncDirtyElementsER8JobFence
cBb:__Z18Transfer_BlittableI18StreamedBinaryReadILb0EELb0ExEvRK29SerializationCommandArgumentsR31RuntimeSerializationCommandInfo
Vrd:_Convert_ToUInt16_m2952781888
Dwe:_Enumerator_System_Collections_IEnumerator_get_Current_m3816090481_gshared
Akj:__ZN6il2cpp5utils11StringUtils15StringDuplicateEPKc
xVf:_DefaultComparer_Equals_m2480133610_gshared
X3:__ZNK9ShaderLab21ShaderRasterStateDesc16ToGfxRasterStateEPK19ShaderPropertySheetS3_R14GfxRasterState
q0h:_Array_Sort_TisVector3_t3722313464_m1915176437_gshared
Ftj:__ZN6il2cpp2os9EventImplC2Ebb
m3f:_List_1_System_Collections_IList_get_IsFixedSize_m3566150119_gshared
$q:__ZN4PPtrI13MonoBehaviourE8TransferI19StreamedBinaryWriteILb0EEEEvRT_
d4g:_List_1_get_Item_m2113769949_gshared
aUa:__ZN12FlareManager12RemoveCameraER6Camera
$vg:_ScriptableObject_t2528358522_marshal_pinvoke
W4:__Z20IsMatrixBuiltinParamPKcPi
$0i:__ZN6il2cpp2gc19AppendOnlyGCHashMapINSt3__24pairIPK10MethodInfoP11Il2CppClassEEP11Il2CppArray17ReflectionMapHashIS9_ENS2_8equal_toIS9_EEEC2Ev
fmf:_String_memcpy4_m979367827
Unf:_SecurityFrame_t1422462475_marshal_pinvoke
u_i:__ZN15dense_hashtableINSt3__24pairIK10KeyWrapperINS1_IPK10MethodInfoP11Il2CppClassEEEjEES9_17ReflectionMapHashIS8_EN14dense_hash_mapIS9_jSD_NS9_14EqualsComparerINS0_8equal_toIS8_EEEENS0_9allocatorISB_EEE9SelectKeyESI_SK_E16reset_thresholdsEv
t7f:_UnicodeEncoding_GetBytesInternal_m1902824297
D5b:__ZN8Renderer19PostInitializeClassEv
zLf:_Array_FindIndex_TisRuntimeObject_m2504082708_gshared
Ani:_X509Chain_FindCertificateRoot_m1937726457
_le:_InternalEnumerator_1__ctor_m217498388_AdjustorThunk
Upj:__ZN6il2cpp6icalls8mscorlib6System8Delegate23CreateDelegate_internalEP20Il2CppReflectionTypeP12Il2CppObjectP22Il2CppReflectionMethodb
Exe:_Enumerator_System_Collections_IEnumerator_get_Current_m921113401_AdjustorThunk
ZVb:__ZNK13RendererScene22GetStaticBoundingBoxesEv
gEb:__ZN18DelayedCallManager18CancelCallDelayed2E4PPtrI6ObjectEPF15CallObjectStatePS1_PvES7_
Ipg:_Matrix4x4_GetHashCode_m4034747639
GKa:__ZN25ThreadsafeLinearAllocator10ReallocateEPvji
hob:__Z18Transfer_BlittableI14SafeBinaryReadLb1E11QuaternionfEvRK29SerializationCommandArgumentsR31RuntimeSerializationCommandInfo
Dga:__ZN18SpriteAtlasManagerD0Ev
vZf:_GenericEqualityComparer_1__ctor_m1058369027_gshared
$yi:_ToggleGroup_set_allowSwitchOff_m4192200290
CVg:__Z57RuntimeInvoker_Boolean_t97287965_KeyValuePair_2_t71524366PFvvEPK10MethodInfoPvPS4_
$9a:__ZN10Matrix4x4f8TransferI14SafeBinaryReadEEvRT_
A$i:__ZNK10KeyWrapperINSt3__24pairIPK12PropertyInfoP11Il2CppClassEEE14EqualsComparerINS0_8equal_toIS7_EEEclERKS8_SE_
wfd:_CryptographicUnexpectedOperationException__ctor_m2381988196
E1i:__ZN14dense_hash_mapI10KeyWrapperIPK22Il2CppGenericParameterEPK24MonoGenericParameterInfoN6il2cpp5utils11PointerHashIS2_EENS4_14EqualsComparerINSt3__28equal_toIS3_EEEENSD_9allocatorINSD_4pairIKS4_S7_EEEEE15set_deleted_keyERSJ_
IC:__ZN14AvatarPlayback8StopTimeEv
Yme:_InternalEnumerator_1_System_Collections_IEnumerator_get_Current_m4213507601_gshared
gba:__Z6AppendRKN4core12basic_stringIcNS_20StringStorageDefaultIcEEEEPKc
O_g:__Z74RuntimeInvoker_DictionaryEntry_t3123975638_RuntimeObject_SByte_t1669577662PFvvEPK10MethodInfoPvPS4_
uib:__ZL14OnWorldStoppedv
jKf:_Array_InternalArray__IEnumerable_GetEnumerator_TisCustomAttributeNamedArgument_t287865710_m523021714_gshared
g4h:__ZN21InterfaceFuncInvoker1I19Vector4_t3319028937iE6InvokeEjP11Il2CppClassP12Il2CppObjecti
Txb:__Z18Transfer_BlittableI18StreamedBinaryReadILb1EELb0E8Vector3fEvRK29SerializationCommandArgumentsR31RuntimeSerializationCommandInfo
uxd:_HashKeys_get_SyncRoot_m3757723936
mxi:_GUIUtility_RemoveCapture_m1294193818
dua:__ZN7ApiGLES18ClearBufferSubDataEjN2gl12BufferTargetEll
hfc:__Z37Camera_Get_Custom_PropAllCamerasCountv
w8a:__ZN14Texture2DArray8TransferI18StreamedBinaryReadILb0EEEEvRT_
y7g:_List_1_CopyTo_m2746988508_gshared
eUb:__Z18ApplyOcclusionMaskR19ProbeOcclusionCacheRK17LightProbeContextRK10RenderNodeb
nIc:_Split_Cubic
cb:invoke_fiiii
qRe:_InputField_OnSubmit_m3583210804
iDh:__ZL64CipherSuiteCollection_t1129639304_CustomAttributesCacheGeneratorP21CustomAttributesCache
ZPh:__ZL72GUISkin_t1244372282_CustomAttributesCacheGenerator_m_horizontalScrollbarP21CustomAttributesCache
Lti:_Uri_CheckHostName_m2213216182
vFj:_emscripten_glBindRenderbuffer__wrapper
V1h:_Mesh_SetUvsImpl_TisVector2_t2156229523_m3009194955_gshared
ahg:_ValueType_InternalEquals_m1384040357
s0h:_Array_Sort_TisVector4_t3319028937_TisVector4_t3319028937_m4254533673_gshared
jre:_InternalEnumerator_1_System_Collections_IEnumerator_Reset_m729791527_AdjustorThunk
Mtd:_ArrayListWrapper_Contains_m2641184447
$Hc:_ft_black_render
TIg:__Z177RuntimeInvoker_Int32_t2950945753_RuntimeObject_Int32_t2950945753_Int32_t2950945753_RuntimeObject_Int32_t2950945753_EncoderFallbackBufferU26_t2343550713_CharU5BU5DU26_t3299466565PFvvEPK10MethodInfoPvPS4_
sBj:dynCall_viiifi
NCa:__ZN18GfxFramebufferGLES20ActiveContextChangedEPP17RenderSurfaceBaseS2_
Wsd:_ArrayList_get_IsFixedSize_m24366329
ECa:__Z19PluginsRenderMarkeri
kte:_InternalEnumerator_1__ctor_m2307827786_AdjustorThunk
BE:__ZN10HumanTrait18InitializeBoneNameEv
Nia:__ZNSt3__26vectorIN9ShaderLab20SerializedSubProgram15StructParameterENS_9allocatorIS3_EEE6assignINS_11__wrap_iterIPS3_EEEENS_9enable_ifIXaasr21__is_forward_iteratorIT_EE5valuesr16is_constructibleIS3_NS_15iterator_traitsISC_E9referenceEEE5valueEvE4typeESC_SC_
a8a:__ZN14Texture2DArray21AwakeFromLoadThreadedEv
cCb:__Z29Transfer_Blittable_ArrayFieldI18StreamedBinaryReadILb0EEyEvRT_R9ArrayInfoRK23StaticTransferFieldInfo
qxg:_Touch_get_position_m3109777936_AdjustorThunk
Vcj:__ZNSt3__214__split_bufferIN6il2cpp2vm5Image20EmbeddedResourceDataERNS_9allocatorIS4_EEEC2EjjS7_
y4c:_CanvasScaler_set_screenMatchMode_m2975492035
cH:__ZN12AudioManager17RemoveAudioSourceEP11AudioSource
Ldf:_X509Certificate2Collection_Add_m3151757943
Nmh:__ZL83RuntimeArray_CustomAttributesCacheGenerator_RuntimeArray____LongLength_PropertyInfoP21CustomAttributesCache
gve:_Comparer_1__cctor_m951016718_gshared
Fvd:_CaseInsensitiveHashCodeProvider_get_DefaultInvariant_m4264275163
wBh:__ZL67IndexOutOfRangeException_t1578797820_CustomAttributesCacheGeneratorP21CustomAttributesCache
jJg:__Z195RuntimeInvoker_Int32_t2950945753_RuntimeObject_Int32_t2950945753_Int32_t2950945753_Int32_t2950945753_RuntimeObject_DecoderFallbackBufferU26_t3866396827_ByteU5BU5DU26_t4057885439_SByte_t1669577662PFvvEPK10MethodInfoPvPS4_
LQ:__ZN5physx14PxLightCpuTask12addReferenceEv
lWa:__ZNK15InstancingProps35FillInstanceBufferDispatchConstantsIN10Instancing14RenderLoopArgsEEEvPPvjjRK19ShaderPropertySheetRKT_
lWg:__Z86RuntimeInvoker_Int32_t2950945753_Color32_t2600501292_Color32_t2600501292_RuntimeObjectPFvvEPK10MethodInfoPvPS4_
_4a:__ZN21EnlightenSceneMapping8TransferI19StreamedBinaryWriteILb0EEEEvRT_
Iej:__ZN6il2cpp2gc16GarbageCollector19InitializeFinalizerEv
Iy:__ZN7mecanim8skeleton18CreateSkeletonMaskEjPKNS0_19SkeletonMaskElementERNS_6memory9AllocatorE
Sai:_ReadOnlyCollection_1_System_Collections_Generic_ICollectionU3CTU3E_get_IsReadOnly_m2508509261_gshared
umc:__ZN10GUIManager10DoGUIEventER10InputEventb
$tb:__Z35Transfer_Blittable_FixedBufferFieldI24GenerateTypeTreeTransferxEvRK29SerializationCommandArgumentsR31RuntimeSerializationCommandInfo
hCc:_otv_LangSys_validate
Aug:_RectOffset_get_right_m2294081512
KQf:_Array_InternalArray__set_Item_TisLink_t544317964_m1234244240_gshared
SGc:_UNITY_TT_Init_Glyph_Loading
ePb:__Z20CalculateSqrDistanceRK8Vector3fRK4AABB
$7c:_OptionData_get_text_m2997376818
bdd:_SerializationInfo_GetBoolean_m1756153320
BL:__Z32AudioMixerDuckingProcessCallbackP21UnityAudioEffectStatePfS1_jii
oXe:_U3CClickRepeatU3Ec__Iterator0_System_Collections_IEnumerator_get_Current_m543328413
lqg:_Mesh_get_uv2_m3615020997
E5h:_ReadOnlyCollection_1_Contains_m2979956790_gshared
H4b:__ZN26CustomRenderTextureManagerD2Ev
jhc:__Z32Input_Get_Custom_PropInputStringv
xWf:_EqualityComparer_1_System_Collections_IEqualityComparer_Equals_m4172006498_gshared
WH:__ZN12AudioManager8TransferI24GenerateTypeTreeTransferEEvRT_
L_h:_Array_qsort_TisOrderBlock_t1585977831_m3322202512_gshared
upg:_Mathf_Round_m4098141538
hxa:__Z25GetBytesFromTextureFormat13TextureFormat
S8a:__ZN9Texture3D19UnloadFromGfxDeviceEb
j8i:__ZN6il2cpp6icalls8mscorlib6System9Threading6Thread20Thread_free_internalEP12Il2CppThreadi
vzj:dynCall_iiffi
isb:__Z18Transfer_BlittableI17RemapPPtrTransferLb0EsEvRK29SerializationCommandArgumentsR31RuntimeSerializationCommandInfo
jch:_Collection_1_get_Item_m4103760396_gshared
E8e:__KeysEnumerator_get_Current_m2996478063
wSd:_AmbiguousMatchException__ctor_m2012725345
ND:__ZN16MecanimAnimation25RegisterIAnimationBindingEPKN5Unity4TypeEiP17IAnimationBinding
V$:__Z32scripting_class_get_assemblyname17ScriptingClassPtr
oTc:__ZN11UnityEngine15PlatformWrapper15GetVRDeviceNameEv
qZh:__ZL109LayoutUtility_t2745813735_CustomAttributesCacheGenerator_LayoutUtility_U3CGetFlexibleWidthU3Em__3_m1091238571P21CustomAttributesCache
eSg:__Z99RuntimeInvoker_Boolean_t97287965_Int32_t2950945753_PointerEventDataU26_t867828220_SByte_t1669577662PFvvEPK10MethodInfoPvPS4_
Ele:_InternalEnumerator_1_get_Current_m2128158355_AdjustorThunk
IIa:__ZN9GfxDevice21RegisterNativeTextureE9TextureIDi16TextureDimension
R9c:_GraphicRegistry__ctor_m1851575309
QXg:__Z52RuntimeInvoker_Void_t1185182177_Keyframe_t4206410242PFvvEPK10MethodInfoPvPS4_
uCh:__ZL53TypeFilter_t2356120900_CustomAttributesCacheGeneratorP21CustomAttributesCache
irj:__ZN6il2cpp6icalls8mscorlib6System10Reflection4Emit11TypeBuilder20create_generic_classEP27Il2CppReflectionTypeBuilder
Bjf:_SHA1Internal_FillBuff_m3615718415
mJf:_PlayableHandle_IsPlayableOfType_TisAnimationLayerMixerPlayable_t3631223897_m201603007_gshared
vyh:__ZL50Monitor_t2197244473_CustomAttributesCacheGeneratorP21CustomAttributesCache
rUi:__ZNSt3__26vectorIPK10MethodInfoNS_9allocatorIS3_EEE26__swap_out_circular_bufferERNS_14__split_bufferIS3_RS5_EE
N6d:_PrimalityTest_EndInvoke_m1035389364
oQ:__Z60Register_UnityEngine_AudioListener_GetNumExtensionPropertiesv
Wi:_emscripten_glUniformMatrix4fv
t5i:__ZN15dense_hashtableINSt3__24pairIK10KeyWrapperINS1_IP11Il2CppClassjEEES4_EES6_N6il2cpp8metadata14ArrayClassHashEN14dense_hash_mapIS6_S4_SB_NS6_14EqualsComparerINSA_17ArrayClassCompareEEENS0_9allocatorIS8_EEE9SelectKeyESF_SH_E13set_empty_keyERKS8_
ajb:__ZN12ScriptMapperD2Ev
yAe:_Enumerator_Dispose_m3040896940_AdjustorThunk
iJj:b100
oqg:_Mesh_get_colors32_m1253190811
jnj:_GC_stopped_mark
Shg:_AnimationCurve_Finalize_m2397002729
u$e:_Text_OnEnable_m616205807
o0g:__Z50RuntimeInvoker_RuntimeObject_ColorTween_t809614380PFvvEPK10MethodInfoPvPS4_
Sse:_InternalEnumerator_1__ctor_m945079686_AdjustorThunk
jOe:_SerializationCallbacks__cctor_m1674315180
NBg:__Z194RuntimeInvoker_Void_t1185182177_ByteU2AU26_t57153304_ByteU2AU26_t57153304_DoubleU2AU26_t3650786047_UInt16U2AU26_t531067350_UInt16U2AU26_t531067350_UInt16U2AU26_t531067350_UInt16U2AU26_t531067350PFvvEPK10MethodInfoPvPS4_
Rja:__Z32TransferEnumWithNameForceIntSizeI14SafeBinaryRead7FogModeEvRT_RT0_PKc17TransferMetaFlags
xjc:__Z52Register_UnityEngine_RenderTexture_Internal_GetWidthv
doj:_GC_check_leaked
Nla:__ZN9ShaderLab20SerializedSubProgram16TextureParameter8TransferI19StreamedBinaryWriteILb0EEEEvRT_
jKa:__ZNK7Hash12812PackToUInt32Ev
Nud:_SynchronizedArrayListWrapper_IndexOf_m3642674350
I1:__ZNSt3__227__insertion_sort_incompleteIRNS_6__lessI14ObjectLoadDataS2_EEPS2_EEbT0_S6_T_
dV:__ZN11UnityEngine15CloudWebService16SessionContainer8AddEventEPNS0_14CloudEventInfoE
xHa:__Z4TrimRKN4core12basic_stringIcNS_20StringStorageDefaultIcEEEES5_
t8h:_ReadOnlyCollection_1_CopyTo_m209634623_gshared
m1h:_Dictionary_2_Do_ICollectionCopyTo_TisKeyValuePair_2_t3842366416_m1399105608_gshared
SRh:__ZL77ExecuteEvents_t3484638744_CustomAttributesCacheGenerator_U3CU3Ef__mgU24cache2P21CustomAttributesCache
Xcf:_X509Certificate2_Import_m4026562329
EGj:_glGetStringi__wrapper
W6a:__ZN10VertexData8TransferI14SafeBinaryReadEEvRT_
kJ:__ZN4FMOD8ChannelI8setDelayE14FMOD_DELAYTYPEjj
Zoj:_GC_malloc_atomic
o5d:_ActivatedClientTypeEntry_ToString_m2494181680
u_f:_HashSet_1_GetEnumerator_m3346268098_gshared
Hrj:__ZN6il2cpp5utils6Memory13AlignedMallocEjj
Esg:_PropertyName_GetHashCode_m3570549176_AdjustorThunk
WKh:__ZL55PropertyName_t3749835189_CustomAttributesCacheGeneratorP21CustomAttributesCache
wRe:_Selectable_get_animator_m2899312855
YY:__ZL20SortItemByInstanceIDRKN18AwakeFromLoadQueue4ItemES2_
_yg:_Vector2_op_Multiply_m2347887432
f9c:_FontData_get_maxSize_m195374730
W8e:_TypeConverterAttribute__ctor_m1774069684
Ty:__ZNK34AnimationStateMachineMixerPlayable26GetInterruptedPosePlayableEv
UVc:__ZN20UnityConnectSettings8TransferI24GenerateTypeTreeTransferEEvRT_
VA:__ZN34BlobWriteTransferSTLStyleArrayImplI22OffsetPtrArrayTransferIbEEclERS1_17TransferMetaFlagsR9BlobWrite
ekd:_Byte_ToString_m4063101981
UPd:_MonoType_GetConstructors_m2574682189
xjj:__ZNK15dense_hashtableINSt3__24pairIK10KeyWrapperIPK19Il2CppGenericMethodEP10MethodInfoEES6_N6il2cpp8metadata23Il2CppGenericMethodHashEN14dense_hash_mapIS6_S9_SD_NS6_14EqualsComparerINSC_26Il2CppGenericMethodCompareEEENS0_9allocatorISA_EEE9SelectKeyESH_SJ_E10test_emptyERK30dense_hashtable_const_iteratorISA_S6_SD_SL_SH_SJ_E
Mth:__ZL59SinkProviderData_t4151372974_CustomAttributesCacheGeneratorP21CustomAttributesCache
G9e:_ServicePointManager_FindServicePoint_m4119451290
Ste:__ZN21InterfaceFuncInvoker1Ii22OrderBlock_t1585977831E6InvokeEjP11Il2CppClassP12Il2CppObjectS0_
Mca:__ZL31InitializeRendererUpdateManagerPv
ZUd:_ParameterInfo__ctor_m2779026345
qPe:_InputField_set_onValueChange_m1251390545
p9c:_FontData_get_verticalOverflow_m4132840071
eQc:__ZN2UI13CanvasManager14GetRenderOrderEPKNS_6CanvasE
mRd:_NumberFormatter_get_IsZeroInteger_m2263284741
tP:__ZN13AudioListener12CleanupClassEv
fda:__Z13GetIEnlightenv
nwg:_HitInfo_t3229609740_marshal_pinvoke
Wji:_X509Certificate_PEM_m2020851166
k3e:_BigInteger_op_GreaterThanOrEqual_m700865613
IPf:_Array_InternalArray__Insert_TisDateTime_t3738529785_m2308632330_gshared
yif:_RNGCryptoServiceProvider_RngGetBytes_m1695806698
aee:_TlsServerCertificateRequest_ProcessAsTls1_m3214041063
DCc:_compare_uni_maps
uQg:__Z72RuntimeInvoker_Boolean_t97287965_Vector2_t2156229523_Vector2_t2156229523PFvvEPK10MethodInfoPvPS4_
bUc:__ZN11UnityEngine15PlatformWrapper27GetGraphicsCapsSupportFlagsEv
yNc:__ZNSt3__218__insertion_sort_3IRPFbPN2UI6CanvasES3_EPS3_EEvT0_S8_T_
Cxb:__ZN12NativeBufferI16Converter_StringE15SetupForWritingER9ArrayInfo
Wfa:__ZN13RuntimeStaticI18AssetBundleManagerLb1EE16StaticInitializeEPv
$Cj:___cxa_end_catch__wrapper
TNg:__Z121RuntimeInvoker_Int32_t2950945753_RuntimeObject_Int32U26_t1369213839_Int32_t2950945753_Int32_t2950945753_Int32_t2950945753PFvvEPK10MethodInfoPvPS4_
Bsd:_Char_ToString_m278452217
X9d:_CipherSuite_get_DecryptionCipher_m2839827488
$Ag:__Z32RuntimeInvoker_Boolean_t97287965PFvvEPK10MethodInfoPvPS4_
RQb:__ZNK4PPtrI5LightEcvPS0_Ev
v6d:_BigInteger_op_RightShift_m460065452
REb:__ZN13MonoBehaviour22DoScriptRebuildWarningEv
jfc:__Z38Camera_CUSTOM_INTERNAL_CALL_RaycastTryP12Il2CppObjectRK3Rayfi
Oii:_ListPool_1_U3Cs_ListPoolU3Em__0_m2790550420_gshared
AMc:__Z38TextGenerator_Get_Custom_PropLineCountP12Il2CppObject
Cji:_InternalAsyncResult_SetComplete_m963842420
O5f:_Encoding_GetEncoding_m2801244948
wnc:__ZN11IMGUIModule25GetGUIStyleScriptingClassEv
fFc:_tt_get_interface
Sge:_SslStreamBase_EndRead_m495357226
W7i:__ZN6il2cpp5utils9PathUtils7CombineIcEENSt3__212basic_stringIT_NS3_11char_traitsIS5_EENS3_9allocatorIS5_EEEERKSA_SC_
etc:__ZN9JSONWrite8TransferI13dynamic_arrayIiLj4EEEEvRT_PKc17TransferMetaFlags
ggh:_Collection_1_System_Collections_IList_get_IsFixedSize_m214626114_gshared
CLg:__Z64RuntimeInvoker_RuntimeObject_SByte_t1669577662_SByte_t1669577662PFvvEPK10MethodInfoPvPS4_
_G:__ZL16FMOD_ErrorString11FMOD_RESULT_363
Q8b:__ZN13PlayableGraph21InvalidateMultithreadEv
i0f:_Enumerator_System_Collections_IEnumerator_get_Current_m713684915_AdjustorThunk
VYf:_GenericComparer_1_Compare_m459680062_gshared
CWd:_EnumBuilder_GetConstructorImpl_m3068576149
G_:__Z18ConvertUTF16toUTF8PPKtS0_PPhS2_15ConversionFlags
Sij:__ZN6il2cpp2os20PathErrnoToErrorCodeERKNSt3__212basic_stringIcNS1_11char_traitsIcEENS1_9allocatorIcEEEEi
EVh:__ZL68InputField_t3762917431_CustomAttributesCacheGenerator_m_KeyboardTypeP21CustomAttributesCache
Fkf:_SymmetricAlgorithm_System_IDisposable_Dispose_m3402297829
WJi:__ZL16my_g_bit_nth_msfj
OBh:__ZL65NonSerializedAttribute_t2945079482_CustomAttributesCacheGeneratorP21CustomAttributesCache
I5i:__ZN15dense_hashtableINSt3__24pairIK10KeyWrapperIP11Il2CppClassES4_EES5_N6il2cpp8metadata16SZArrayClassHashEN14dense_hash_mapIS5_S4_SA_NS5_14EqualsComparerINS9_19SZArrayClassCompareEEENS0_9allocatorIS7_EEE9SelectKeyESE_SG_E12expand_arrayEjN21dense_hash_map_traits17integral_constantIbLb0EEE
CUf:_DefaultComparer_GetHashCode_m3369508712_gshared
X9g:_Enumerator_MoveNext_m3662315381_AdjustorThunk
Kde:_TlsClientFinished_ProcessAsTls1_m2429863130
l5d:_ActivatedClientTypeEntry_get_ApplicationUrl_m2894992111
qNb:__Z23SetupStereoFlareElementP11FlareVertexRK8Vector2fS3_S3_RK11ColorRGBA32RK10Matrix4x4fRK8Vector3fb
PLi:__ZN6il2cpp2vm5Class15GetInstanceSizeEPK11Il2CppClass
$gg:_ValueType__ctor_m2036258423
sa:invoke_iiiifiiii
wPe:_InputField_EnforceContentType_m2436948794
tgh:__ZN23InterfaceActionInvoker2Ii20UICharInfo_t75501106E6InvokeEjP11Il2CppClassP12Il2CppObjectiS0_
HHh:__ZL82Input_t1431474628_CustomAttributesCacheGenerator_Input_get_inputString_m1307069105P21CustomAttributesCache
erf:_String_Join_m2050845953
Aye:_ShimEnumerator_MoveNext_m2406150314_gshared
GDa:__ZL19BlitFramebufferImplRN4gles23BlitFramebufferDrawQuadER9GfxDevice9TextureIDRK8Vector4f
Mrb:__Z18Transfer_BlittableI17RemapPPtrTransferLb0EhEvRK29SerializationCommandArgumentsR31RuntimeSerializationCommandInfo
xZi:__ZN15dense_hashtableINSt3__24pairIK10KeyWrapperIPK10Il2CppTypeEjEES6_N6il2cpp8metadata14Il2CppTypeHashEN14dense_hash_mapIS6_jSB_NS6_14EqualsComparerINSA_26Il2CppTypeEqualityComparerEEENS0_9allocatorIS8_EEE9SelectKeyESF_SH_E4findERS7_
fAj:dynCall_viiiiiiiiiiiiii
wGc:_UNITY_FT_List_Add
f5b:__ZN14Texture2DArray11InitTextureEiii13TextureFormatb
Vki:_X509Extension__ctor_m1474351312
Pxh:__ZL104Encoding_t1523322056_CustomAttributesCacheGenerator_Encoding_t1523322056____DecoderFallback_PropertyInfoP21CustomAttributesCache
Hfi:_InvokableCall_1_Invoke_m1524307439_gshared
z1a:__ZN12CubemapArray21AwakeFromLoadThreadedEv
jId:_Directory_CreateDirectoriesInternal_m3735342319
QTh:__ZL108U3CStartU3Ec__Iterator0_t1249263001_CustomAttributesCacheGenerator_U3CStartU3Ec__Iterator0__ctor_m1316384627P21CustomAttributesCache
O2f:_List_1_RemoveAll_m517055598_gshared
GTe:_LayoutUtility_GetLayoutProperty_m3731360667
t2i:__ZN15dense_hashtableINSt3__24pairIK10KeyWrapperINS1_IPK11Il2CppImageP11Il2CppClassEEEjEES9_17ReflectionMapHashIS8_EN14dense_hash_mapIS9_jSD_NS9_14EqualsComparerINS0_8equal_toIS8_EEEENS0_9allocatorISB_EEE9SelectKeyESI_SK_E14squash_deletedEv
Dkf:_SHAConstants__cctor_m1699027474
A0d:_MonoEventInfo_t346866618_marshal_pinvoke_back
_X:__ZNK6Camera26GetStereoSingleCullEnabledEv
U2f:_List_1_TrimExcess_m4121641494_gshared
Ozh:__ZL78Convert_t2465617642_CustomAttributesCacheGenerator_Convert_ToInt16_m1733792763P21CustomAttributesCache
Ufb:__Z14resize_trimmedINSt3__26vectorIN4core12basic_stringIcNS2_20StringStorageDefaultIcEEEE13stl_allocatorIS6_L18MemLabelIdentifier13ELi16EEEEEvRT_j
Rob:__Z18Transfer_BlittableI14SafeBinaryReadLb0EaEvRK29SerializationCommandArgumentsR31RuntimeSerializationCommandInfo
Fsd:_CharEnumerator_System_Collections_IEnumerator_get_Current_m1328529384
lCj:_emscripten_glFrustum__wrapper
fJi:_AnimationLayerMixerPlayable__ctor_m860721801
iBg:__Z98RuntimeInvoker_Boolean_t97287965_RuntimeObject_Int32_t2950945753_RuntimeObject_Int64U26_t200113976PFvvEPK10MethodInfoPvPS4_
aHc:_UNITY_FT_List_Iterate
rVa:__ZN17GlobalGameManager8TransferI24GenerateTypeTreeTransferEEvRT_
_rd:_Char_System_IConvertible_ToUInt64_m3536560782
OVf:_EqualityComparer_1__cctor_m3452395357_gshared
fIc:_Render_Single_Pass
XLb:__Z20SyncFenceCullResultsR11CullResults
jGa:__ZN15TextureTFMethod20IsBoneCountSupportedEi
gBf:_Double_ToString_m3828879243_AdjustorThunk
ktb:__Z22TransferField_NonArrayI17RemapPPtrTransfer27Converter_SimpleNativeClassI8GUIStyleEEvRK23StaticTransferFieldInfoR31RuntimeSerializationCommandInfoRT0_
sNd:_TextReader_Synchronized_m3004980758
U0b:__ZNK17AnimationCurveTplIfE20EvaluateWithoutCacheEfRf
nQg:__Z67RuntimeInvoker_Boolean_t97287965_Rect_t2360479859_SByte_t1669577662PFvvEPK10MethodInfoPvPS4_
lYa:__ZN19ShaderPropertySheet10SetTextureERK23FastTexturePropertyNameP7Texture
XTd:_CustomAttributeData__ctor_m2966233049
_4c:_CanvasUpdateRegistry_PerformUpdate_m1793997159
_ce:_Context_set_ClientWriteIV_m3405909624
Gac:__ZN4Mesh10SetNormalsEPK8Vector3fj
iyi:_AesManaged_CreateDecryptor_m692040246
rkj:__ZNSt3__212basic_stringIDsNS_11char_traitsIDsEENS_9allocatorIDsEEE9__grow_byEjjjjjj
MGi:_TextGenerationSettings_t1351628751_marshal_pinvoke_back
ns:__ZN17AnimationCurveTplIfE8TransferI14SafeBinaryReadEEvRT_
kDe:_Dictionary_2_get_Count_m2449135560_gshared
QQf:_Array_InternalArray__set_Item_TisInt16_t2552820387_m2544074754_gshared
tmd:_ArithmeticException__ctor_m3551809662
KId:_MonoIO_ExistsDirectory_m2182482658
n9g:__ZN21InterfaceFuncInvoker0I19Vector4_t3319028937E6InvokeEjP11Il2CppClassP12Il2CppObject
rZg:__Z72RuntimeInvoker_CustomAttributeNamedArgument_t287865710_Int32_t2950945753PFvvEPK10MethodInfoPvPS4_
B_b:__Z29StdTemplateConversionFunctionIybEbPvR14SafeBinaryRead
v5a:__ZNSt3__26vectorIN15QualitySettings14QualitySettingENS_9allocatorIS2_EEE6assignIPS2_EENS_9enable_ifIXaasr21__is_forward_iteratorIT_EE5valuesr16is_constructibleIS2_NS_15iterator_traitsIS9_E9referenceEEE5valueEvE4typeES9_S9_
z2:__ZNK5Unity9Component10GetEnabledEv
UDi:__ZL25UnresolvedVirtualCall_153P12Il2CppObject40CustomAttributeTypedArgument_t2723150157S1_PK10MethodInfo
HXe:_ScrollRect_get_scrollSensitivity_m2832710591
f:HEAPU32
M2f:_List_1_CheckCollection_m1671972112_gshared
S3i:_il2cpp_class_get_image
jbe:_CipherSuiteFactory_GetSsl3SupportedCiphers_m3757358569
F7f:_UnicodeEncoding_GetPreamble_m3002287178
l1:__Z16AsyncReadRequestP16AsyncReadCommand
bLi:__ZNK15dense_hashtableINSt3__24pairIK10KeyWrapperIPK22Il2CppGenericParameterEP11Il2CppClassEES6_N6il2cpp5utils11PointerHashIS4_EEN14dense_hash_mapIS6_S9_SE_NS6_14EqualsComparerINS0_8equal_toIS5_EEEENS0_9allocatorISA_EEE9SelectKeyESJ_SL_E12test_deletedEj
jAi:_AudioSource_get_spatialize_m3609701298
SPg:__Z52RuntimeInvoker_Color_t2555686324_Color32_t2600501292PFvvEPK10MethodInfoPvPS4_
kna:__ZN20GpuProgramParameters14AddVectorParamEPKcii15ShaderParamTypeiiiP16PropertyNamesSet
JXc:__ZNK12HeaderHelper3GetERKN4core12basic_stringIcNS0_20StringStorageDefaultIcEEEE
tcb:__ZN9InputAxis8TransferI14SafeBinaryReadEEvRT_
rZ:__ZNK21ExecutionOrderManager30GetCustomAwakeFromLoadQueueForEPKN5Unity4TypeE
cXc:__Z27RegisterModule_UnityConnectv
bLd:_MemoryStream_Expand_m3554752073
Q0i:__ZN6il2cpp2vm10Reflection27GetCustomAttributesCacheForEP25Il2CppReflectionParameter
cwg:_ScriptableObject_CreateInstance_m2611081756
uMe:_ObjectRecord_get_IsInstanceReady_m2304516395
ure:_InternalEnumerator_1_System_Collections_IEnumerator_get_Current_m1635397542_gshared
ILd:_Path__cctor_m3273994011
uyj:__ZNSt11logic_errorD2Ev
Ptf:_DateTimeUtils_CountRepeat_m3396693018
Ghg:_WeakReference_get_Target_m168713953
EK:__ZN10ObjectPoolIN4FMOD12ChannelGroupENS0_13ChannelGroupIEE7SetSizeEi
eZh:__ZL103LayoutRebuilder_t541313304_CustomAttributesCacheGenerator_LayoutRebuilder_U3CRebuildU3Em__5_m1288787547P21CustomAttributesCache
Vxi:_SymmetricTransform_FinalDecrypt_m764004682
Chj:__ZN6il2cpp2os10ThreadImpl33UnregisterCurrentThreadForCleanupEv
j8g:_List_1_System_Collections_IList_get_Item_m1315368445_gshared
NSh:__ZL114PointerEventData_t3807901092_CustomAttributesCacheGenerator_PointerEventData_get_pointerCurrentRaycast_m2627585223P21CustomAttributesCache
Fqi:_Parser_ParseGroupingConstruct_m263270497
f_c:_UIBehaviour_OnDisable_m1784507360
AMh:__ZL112PlayerConnection_t3081694049_CustomAttributesCacheGenerator_PlayerConnection_MessageCallbackInternal_m1914517467P21CustomAttributesCache
HW:__Z22ValidateTlsfAllocationPvjiS_
Wle:_InternalEnumerator_1_MoveNext_m3525157932_gshared
_jg:_Color__ctor_m2943235014_AdjustorThunk
z2i:__ZN14dense_hash_mapI10KeyWrapperINSt3__24pairIPK9EventInfoP11Il2CppClassEEEj17ReflectionMapHashIS8_ENS9_14EqualsComparerINS1_8equal_toIS8_EEEENS1_9allocatorINS2_IKS9_jEEEEE15set_deleted_keyERSH_
Zw:__ZN27AnimationLayerMixerPlayable22PrepareAnimationEventsEfR13dynamic_arrayI22AnimationClipEventInfoLj4EE
Bqb:__Z14resize_trimmedINSt3__26vectorI17AnimationCurveTplIfE13stl_allocatorIS3_L18MemLabelIdentifier1ELi16EEEEEvRT_j
SWb:__ZN25CameraStackRenderingState19SetupLastEyeCamerasERK11CameraStack
GPa:__Z12GUIDToStringRK9UnityGUID
wfe:_RSASslSignatureDeformatter_SetKey_m2204705853
BG:__ZN11SoundHandleC2ERKS_
it:__ZN17AnimationPlayableC2E18DirectorPlayerType
yOe:_InputField_set_shouldHideMobileInput_m1650743574
MQi:__ZNK6il2cpp5utils11collections13ArrayValueMapIPK10Il2CppType17Il2CppInteropData26InteropDataToTypeConverterNS_8metadata14Il2CppTypeLessENS8_26Il2CppTypeEqualityComparerEE10find_firstERKS5_
F9g:_List_1_Reverse_m1445355384_gshared
FJd:_FileStream_get_CanSeek_m331583577
V_b:__Z29StdTemplateConversionFunctionItxEbPvR14SafeBinaryRead
WLe:_WellKnownServiceTypeEntry_get_ObjectType_m3211195371
Qzi:_PCMReaderCallback_EndInvoke_m3916876196
K_d:_TypeBuilder_get_ContainsGenericParameters_m1769080325
zgd:_DSAParameters_t1885824122_marshal_pinvoke_back
xz:__ZN8Animator22OnGraphTopologyChangedEP8Playablei
f3e:_Kernel_MultiplyByDword_m1266935086
gBd:_Convert_ToInt64_m3916071102
AYb:__ZN6Camera25StandaloneRenderToCubemapEP7TextureiPFvPK9SceneNodePK4AABBR9IndexListPvESA_j
aqf:_String_Trim_m3384720403
ZXa:__ZN14RenderSettings18TransferDeprecatedI14SafeBinaryReadEEvRT_
qJg:__Z93RuntimeInvoker_Single_t1397266774_SingleU26_t1922108698_Single_t1397266774_Single_t1397266774PFvvEPK10MethodInfoPvPS4_
Lui:_Event__ctor_m526447123
_Bh:__ZL56RankException_t3812021567_CustomAttributesCacheGeneratorP21CustomAttributesCache
JVg:__Z72RuntimeInvoker_Boolean_t97287965_CustomAttributeNamedArgument_t287865710PFvvEPK10MethodInfoPvPS4_
zMg:__Z88RuntimeInvoker_RuntimeObject_RuntimeObject_RuntimeObject_RuntimeObject_Int32_t2950945753PFvvEPK10MethodInfoPvPS4_
Adg:_Type_ToString_m3975981286
jZ:__ZN12TLSAllocatorI14StackAllocatorE8AllocateEji
k$:__ZN16ScriptingManager18GetMonoScriptCacheEi
Tqi:_ExpressionAssertion__ctor_m2554412824
psi:_CapturingGroup_IsComplex_m4061114763
Yob:__Z18Transfer_BlittableI14SafeBinaryReadLb1EyEvRK29SerializationCommandArgumentsR31RuntimeSerializationCommandInfo
GGh:__ZL99GameObject_t1113636619_CustomAttributesCacheGenerator_GameObject_GetComponentInChildren_m2670866854P21CustomAttributesCache
ZQd:_NullReferenceException__ctor_m3076065613
aqc:__ZN8JSONRead8TransferIfEEvRT_PKc17TransferMetaFlagsb
wlh:__ZL73Enum_t4135868527_CustomAttributesCacheGenerator_Enum_ToObject_m3092348831P21CustomAttributesCache
lci:_Comparison_1_EndInvoke_m3981968715_gshared
jpd:__ZN21InterfaceFuncInvoker2IP12Il2CppObjectP6Type_tS1_E6InvokeEjP11Il2CppClassS1_S3_S1_
Jbf:_X509SubjectKeyIdentifierExtension_Decode_m1505409124
Vma:__ZL23AddGpuProgramParametersR20GpuProgramParametersRKNSt3__26vectorIN9ShaderLab20SerializedSubProgram15MatrixParameterENS1_9allocatorIS5_EEEERKNS2_INS4_15VectorParameterENS6_ISB_EEEEiiP16PropertyNamesSet
yAa:__ZN6prcoreL17RemapGenericFloatI18TexFormatARGBFloat17TexFormatRGBAHalfEEvPKNS_9InnerInfoE
Fpf:_String_System_IConvertible_ToUInt16_m2888090399
lM:__ZN11AudioSource21ApplyCachedParametersE12SoundChannel
OSd:_Assembly_InternalGetType_m3065345470
hR:__ZN13Simd4iFactoryIN6detail9FourTupleEEC2Eiiii
Jke:_InternalEnumerator_1__ctor_m3390957028_gshared
I3d:_ResourceSet__ctor_m3356376607
E6d:_PrimeGeneratorBase_get_PrimalityTest_m2487240563
t0c:_PhysicsRaycaster_get_maxRayIntersections_m3887348715
tth:__ZL56_ParameterInfo_t489405856_CustomAttributesCacheGeneratorP21CustomAttributesCache
A4a:__ZN15SerializeTraitsI33EnlightenTerrainChunksInformationE8TransferI14SafeBinaryReadEEvRS0_RT_
T5b:__ZNK32RendererMaterialAnimationBinding9BindValueER6ObjectRKN11UnityEngine9Animation14GenericBindingERNS3_10BoundCurveE
oWh:__ZL109MaskableGraphic_t3839221559_CustomAttributesCacheGenerator_MaskableGraphic_ParentMaskStateChanged_m1092090553P21CustomAttributesCache
Fze:_Transform_1_Invoke_m1731820209_gshared
UYa:__Z13GetIAnimationv
Hya:__ZL18stbir__support_onef
Yof:_Single_CompareTo_m189772128
Nrc:__Z26Transfer_UnityEngineObjectI9JSONWriteLb0EEvRK29SerializationCommandArgumentsR31RuntimeSerializationCommandInfo
Gte:_DefaultComparer_Compare_m4042058291_gshared
Nbd:_Image_set_overrideSprite_m3213596394
g0a:__ZNSt3__26vectorIN4core12basic_stringIcNS1_20StringStorageDefaultIcEEEE13stl_allocatorIS5_L18MemLabelIdentifier1ELi16EEE6assignINS_11__wrap_iterIPS5_EEEENS_9enable_ifIXaasr21__is_forward_iteratorIT_EE5valuesr16is_constructibleIS5_NS_15iterator_traitsISF_E9referenceEEE5valueEvE4typeESF_SF_
BOc:__ZNSt3__27__sort5IRNS_6__lessIN2UI14DepthSortEntryES3_EEPS3_EEjT0_S7_S7_S7_S7_T_
qJd:_FileLoadException_ToString_m2989457882
Uki:_AuthorityKeyIdentifierExtension__ctor_m2197389230
BAi:_AudioListener_ClearExtensionProperties_m3849891634
Vxc:_UNITY_FT_DivFix
w2h:_Array_InternalArray__get_Item_TisDecimal_t2948259380_m3511003792_gshared
j$i:__ZNSt3__218uninitialized_copyIPNS_4pairIK10KeyWrapperINS1_IPK11Il2CppImageP11Il2CppClassEEEjEESC_EET0_T_SE_SD_
rmf:_SecurityElement_IsValidAttributeValue_m948345692
Owc:__ZN19ControllerHitReport15onControllerHitERKN5physx16PxControllersHitE
Ba:invoke_vdd
yn:FUNCTION_TABLE_fiii
Prh:__ZL102MethodInfo_t_CustomAttributesCacheGenerator_MethodInfo_MakeGenericMethod_m1996785325____typeArguments0P21CustomAttributesCache
DNd:_TextWriter_Write_m2252948084
f8b:__Z19RegisterModule_Corev
sIe:_AsyncResult_get_CallMessage_m1679778649
HKf:_Array_InternalArray__IEnumerable_GetEnumerator_TisPlayableBinding_t354260709_m1924544205_gshared
eMc:__ZZ29InitializeTextRenderingModulevEN27cleanupAfterLoadRegistrator7ForwardEv
ckb:__ZNSt3__26__sortIRPFbRK23TransformAccessReadOnlyS3_EPS1_EEvT0_S8_T_
ZCf:_CCFixed_FromDateTime_m3894190577
FWb:__Z29PluginsIssueRenderingExtEvent26UnityRenderingExtEventTypePv
pEg:__Z116RuntimeInvoker_RuntimeObject_RuntimeObject_Int32_t2950945753_RuntimeObject_RuntimeObject_RuntimeObject_RuntimeObjectPFvvEPK10MethodInfoPvPS4_
Odd:_RuntimeMethodHandle__ctor_m2229201676_AdjustorThunk
YMe:_MessageFormatter_ReadMethodCall_m2327590823
U4b:__Z14RandomRotationP9Texture2DPhiiii
WNf:_Array_InternalArray__ICollection_Add_TisUInt16_t2177724958_m3981262878_gshared
Wxf:_Decimal_GetBits_m453754410
r_f:_HashSet_1_Contains_m3173358704_gshared
Ayi:_ToggleEvent__ctor_m834619998
Nse:_InternalEnumerator_1_Dispose_m436383441_AdjustorThunk
B8d:_PKCS1_Encode_v15_m2077073129
BSf:_Dictionary_2_get_Values_m2682483593_gshared
Gih:_Collection_1_set_Item_m4084225937_gshared
w$g:__Z51RuntimeInvoker_OrderBlock_t1585977831_RuntimeObjectPFvvEPK10MethodInfoPvPS4_
yug:_RectOffset_get_left_m1232181034
IBa:__ZN4gles14UseGLSLProgramER15DeviceStateGLESjbij
ARg:__Z59RuntimeInvoker_Boolean_t97287965_Int32_t2950945753_IntPtr_tPFvvEPK10MethodInfoPvPS4_
oIj:_glDeleteProgram__wrapper
qfc:__Z50Register_UnityEngine_Camera_INTERNAL_get_pixelRectv
Qza:__ZN6prcoreL18BlitFloatToIntegerERK14ImageReferenceRS0_
Twf:_DBNull_System_IConvertible_ToUInt32_m3784627971
bce:_ClientSessionCache_Add_m964342678
Rwi:_SkinChangedDelegate__ctor_m1270439727
TFa:__ZN13dynamic_arrayI15ComputeShaderCBLj4EE6assignEPKS0_S3_
vNb:__Z13GetIPhysics2Dv
yU:__ZN11UnityEngine15CloudWebService14RestDownloader17OnCompleteContentEv
oYi:__ZN15dense_hashtableINSt3__24pairIK10KeyWrapperINS1_IPK14Il2CppAssemblyP11Il2CppClassEEEjEES9_17ReflectionMapHashIS8_EN14dense_hash_mapIS9_jSD_NS9_14EqualsComparerINS0_8equal_toIS8_EEEENS0_9allocatorISB_EEE9SelectKeyESI_SK_E15insert_noresizeERKSB_
byg:_Transform_get_localScale_m129152068
oyf:_DivideByZeroException__ctor_m3496959969
WCa:__ZN26SinglePassStereoSupportExt19AfterDrawCallStereoEv
YYe:_ScrollRect_get_layoutPriority_m1584702890
Qa:invoke_viffi
dz:__ZN17AnimationPlayable28UpdateInternalStateRecursiveILi1ELb0EEEvPK35AnimationPlayableEvaluationConstant
Wej:__ZN6il2cpp2gcL10CleanupCCWEPvS1_
Ta:invoke_vifff
aHj:_glGetVertexAttribiv__wrapper
Ne:_emscripten_request_fullscreen
aei:_Predicate_1_Invoke_m851618236_gshared
Fph:__ZL67IsolatedStorageException_t3468072396_CustomAttributesCacheGeneratorP21CustomAttributesCache
LFb:__ZN20LocalFileSystemWebGL6DeleteER13FileEntryDatab
Pe:_emscripten_glDisableVertexAttribArray
KIf:_Array_InternalArray__ICollection_Remove_TisSingle_t1397266774_m3361324455_gshared
Um:FUNCTION_TABLE_iiiifiiii
Ega:__ZN4core8hash_mapINS_12basic_stringIcNS_20StringStorageDefaultIcEEEE13dynamic_arrayI4PPtrI6SpriteELj4EENS_4hashIS4_EENSt3__28equal_toIS4_EEE12delete_nodesEv
lle:_InternalEnumerator_1__ctor_m3456047704_gshared
jc:invoke_fifffi
uhh:_Collection_1_System_Collections_IList_Add_m2969482770_gshared
uJ:__ZN4FMOD5Sound15getNumSubSoundsEPi
cwa:__ZN4gles23ClearCurrentFramebufferEP7ApiGLESbbbRK10ColorRGBAffi
Lwe:_Enumerator_System_Collections_IDictionaryEnumerator_get_Entry_m3249874482_AdjustorThunk
fhi:_UnityEvent_1_Invoke_m3604335408_gshared
RAh:__ZL79Convert_t2465617642_CustomAttributesCacheGenerator_Convert_ToUInt64_m2652538228P21CustomAttributesCache
_e:_emscripten_glDeleteObjectARB
W_c:_EventSystem_RaycastComparer_m3685368675
Vf:_IMG_Load
jIg:__Z131RuntimeInvoker_Void_t1185182177_RuntimeObject_RuntimeObject_Int64_t3736567304_ObjectU26_t2146539884_SerializationInfoU26_t419328957PFvvEPK10MethodInfoPvPS4_
eBa:__ZN6prcoreL27StretchGenericFloatBilinearI18TexFormatARGBFloatEEvPKNS_9InnerInfoE
yjc:__Z53Register_UnityEngine_RenderTexture_Internal_GetHeightv
FUh:__ZL87U3CDelayedDestroyDropdownListU3Ec__Iterator0_t3853912249_CustomAttributesCacheGeneratorP21CustomAttributesCache
q7e:_PKCS12_RemoveCertificate_m1421555398
A_e:_Slider_FindSelectableOnLeft_m1667068522
RAa:__ZN6prcoreL17RemapGenericFloatI17TexFormatRGBAHalf18TexFormatARGBFloatEEvPKNS_9InnerInfoE
pAb:__ZN18StreamedBinaryReadILb1EE21TransferSTLStyleArrayI13dynamic_arrayIN4math12int3_storageELj4EEEEvRT_17TransferMetaFlags
mnc:__Z14GetBuiltinSkini
KJe:_MethodDictionary_get_Item_m1201458851
ABg:__Z60RuntimeInvoker_SByte_t1669577662_RuntimeObject_RuntimeObjectPFvvEPK10MethodInfoPvPS4_
i4e:_CryptoConvert_ToInt32LE_m3340980429
F7:___cxx_global_var_init_18
il:_JS_SystemInfo_GetBrowserVersionString
Ejb:__ZN2UI13RectTransform23VirtualRedirectTransferER14SafeBinaryRead
_fb:__ZN24GenerateTypeTreeTransfer8TransferINSt3__26vectorIN4core12basic_stringIcNS3_20StringStorageDefaultIcEEEE13stl_allocatorIS7_L18MemLabelIdentifier13ELi16EEEEEEvRT_PKc17TransferMetaFlags
zAe:_Enumerator_MoveNext_m3045873697_gshared
oOg:__Z31RuntimeInvoker_Rect_t2360479859PFvvEPK10MethodInfoPvPS4_
cka:__ZNSt3__26vectorIN9ShaderLab20SerializedSubProgramENS_9allocatorIS2_EEE6assignIPS2_EENS_9enable_ifIXaasr21__is_forward_iteratorIT_EE5valuesr16is_constructibleIS2_NS_15iterator_traitsIS9_E9referenceEEE5valueEvE4typeES9_S9_
Ztc:__Z18Transfer_BlittableI8JSONReadLb0E8BitFieldEvRK29SerializationCommandArgumentsR31RuntimeSerializationCommandInfo
Ulf:_SecurityPermission_set_Flags_m1503445204
l_f:_HashSet_1_CopyTo_m2849056227_gshared
Wyb:__ZL17Transfer_GUIStyleI18StreamedBinaryReadILb1EELb0EEvRK29SerializationCommandArgumentsR31RuntimeSerializationCommandInfo
P2e:_ModulusRing_Multiply_m343333088
Tha:__ZN9ShaderLab14SerializedPass8TransferI14SafeBinaryReadEEvRT_
eoc:__Z71Register_UnityEngine_GUILayoutUtility_INTERNAL_CALL_Internal_MoveWindowv
ZO:__ZN12AudioManager16SetListenerPauseEb
Rfb:__ZNSt3__26vectorIN30RuntimeInitializeOnLoadManager9ClassInfoE13stl_allocatorIS2_L18MemLabelIdentifier13ELi16EEE6assignINS_11__wrap_iterIPS2_EEEENS_9enable_ifIXaasr21__is_forward_iteratorIT_EE5valuesr16is_constructibleIS2_NS_15iterator_traitsISC_E9referenceEEE5valueEvE4typeESC_SC_
wJf:_SetPropertyUtility_SetStruct_TisSingle_t1397266774_m2805350785_gshared
P6f:_StringBuilder_get_Length_m3238060835
r9i:__ZN6il2cpp2vm9Exception25RaiseOutOfMemoryExceptionERKNS_5utils10StringViewIDsEE
M_f:_KeyValuePair_2_set_Value_m2953914627_AdjustorThunk
da:invoke_viiiiiiiiiii
kuj:___syscall_ret
Mli:_DeriveBytes_set_Salt_m1400945044
d1c:_PointerEventData_set_worldNormal_m1888481930
s4c:_CanvasScaler_set_referencePixelsPerUnit_m1768965301
Bri:_AnchorInfo__ctor_m46784903
Jae:_CipherSuiteCollection_get_Item_m4188309062
rge:_SslHandshakeHash_HashFinal_m2573455475
GHe:_SynchronizationAttribute_ReleaseLock_m1030353464
A0h:_Array_swap_TisCustomAttributeNamedArgument_t287865710_m2628186452_gshared
y7a:__ZN11ChannelInfo8TransferI19StreamedBinaryWriteILb0EEEEvRT_
ukj:__ZN4utf88internal13validate_nextIPKcEENS0_9utf_errorERT_S5_Rj
NXh:__ZL53ToggleGroup_t123837990_CustomAttributesCacheGeneratorP21CustomAttributesCache
Fjf:_SHA1Internal_AddLength_m2737455899
eOb:__ZN14qsort_internal13Partition3WayIP17RODataReplacementi19ROSorterReplacementEENSt3__24pairIT_S6_EES6_S6_T0_T1_
hRe:_InputField_CreateCursorVerts_m3585916868
bSf:_KeyValuePair_2_get_Value_m755756747_gshared
ygc:__Z34Register_UnityEngine_Gradient_Initv
TSe:_LayoutGroup_OnDidApplyAnimationProperties_m1333813659
l$i:__ZN24dense_hashtable_iteratorINSt3__24pairIK10KeyWrapperINS1_IPK11Il2CppImageP11Il2CppClassEEEjEES9_17ReflectionMapHashIS8_EN14dense_hash_mapIS9_jSD_NS9_14EqualsComparerINS0_8equal_toIS8_EEEENS0_9allocatorISB_EEE9SelectKeyESI_SK_E30advance_past_empty_and_deletedEv
OXd:_GenericTypeParameterBuilder_IsArrayImpl_m67259334
UGe:_Context_ToString_m1073616138
BUd:_DefaultMemberAttribute_get_MemberName_m3384235354
w6a:__ZN13ScreenManager23SetIsOrientationEnabledE18EnabledOrientationb
eCi:__ZL24UnresolvedVirtualCall_57P12Il2CppObjectiPK10MethodInfo
sOe:_InputField_EnforceTextHOverflow_m3400115777
q2g:_List_1_System_Collections_IEnumerable_GetEnumerator_m1225415523_gshared
xPg:__Z41RuntimeInvoker_TextureWrapMode_t584250749PFvvEPK10MethodInfoPvPS4_
ycb:__ZN9InputAxis8TransferI19StreamedBinaryWriteILb0EEEEvRT_
IDd:__Z33il2cpp_codegen_check_sub_overflowxx
eAj:dynCall_viififiii
fPe:_InputField_get_caretColor_m2973283772
Yii:_ListPool_1_Release_m591299672_gshared
oAh:__ZL79Convert_t2465617642_CustomAttributesCacheGenerator_Convert_ToUInt16_m3116648921P21CustomAttributesCache
pre:_InternalEnumerator_1_MoveNext_m1096095130_AdjustorThunk
Rhh:_Collection_1_RemoveAt_m226266097_gshared
vhi:_UnityEvent_1_AddListener_m1590149461_gshared
fQh:__ZL63GUISkin_t1244372282_CustomAttributesCacheGenerator_m_ScrollViewP21CustomAttributesCache
P3h:_Resources_ConvertObjects_TisRuntimeObject_m1486780300_gshared
yAf:_Double_System_IConvertible_ToInt16_m3591921965_AdjustorThunk
nci:_Comparison_1_Invoke_m2925518770_gshared
DQa:__ZN10GameObject23VirtualRedirectTransferER18StreamedBinaryReadILb0EE
Exi:_SymmetricTransform__ctor_m2693628991
TRd:_ObjectDisposedException__ctor_m1034312941
qg:_glFrontFace
JKd:_FileSystemInfo_InternalRefresh_m1700260373
q8c:_Dropdown_OnSubmit_m1624226516
uug:_RectOffset__ctor_m3236153262
wQi:__ZNK15dense_hashtableINSt3__24pairIK10KeyWrapperIPK19Il2CppGenericMethodEPK26Il2CppGenericMethodIndicesEES6_N6il2cpp8metadata23Il2CppGenericMethodHashEN14dense_hash_mapIS6_SA_SE_NS6_14EqualsComparerINSD_26Il2CppGenericMethodCompareEEENS0_9allocatorISB_EEE9SelectKeyESI_SK_E12test_deletedEj
HUe:_MaskUtilities_IsDescendantOrSelf_m2247511982
qKg:__Z51RuntimeInvoker_UInt16_t2177724958_SByte_t1669577662PFvvEPK10MethodInfoPvPS4_
aTb:__ZNSt3__26vectorI16ShadowCasterData13stl_allocatorIS1_L18MemLabelIdentifier2ELi16EEE21__push_back_slow_pathIKS1_EEvRT_
AAg:__Z46RuntimeInvoker_Double_t594665363_RuntimeObjectPFvvEPK10MethodInfoPvPS4_
OMc:__Z51Register_UnityEngine_TextGenerator_GetLinesInternalv
Xze:_Enumerator_get_Current_m2250080680_AdjustorThunk
pyi:_AesManaged_set_Key_m767972181
KCd:_Int16_System_IConvertible_ToBoolean_m1656400658_AdjustorThunk
Hqd:_Byte_System_IConvertible_ToInt64_m285584218
vta:__ZN13GfxDeviceGLES22SetScissorRectPlatformERK5RectTIiE
gAa:__ZN6prcoreL17RemapGenericFloatI17TexFormatRGBFloat18TexFormatRGBAFloatEEvPKNS_9InnerInfoE
mwd:_DictionaryEntry_t3123975638_marshal_pinvoke_cleanup
oNf:_Array_InternalArray__ICollection_Add_TisDictionaryEntry_t3123975638_m665385049_gshared
QOd:_MissingMemberException__ctor_m2707802176
WWc:__ZN20UnityConnectSettings10InitializeEv
CHi:_Canvas_get_renderMode_m841659411
G4a:__ZN15SerializeTraitsI13dynamic_arrayI28EnlightenRendererInformationLj8EEE19ResizeSTLStyleArrayERS2_i
Xcd:_SerializationInfo_GetValue_m42271953
sG:__ZN9AudioClip11CreateSoundEv
N2i:__ZN14dense_hash_mapI10KeyWrapperINSt3__24pairIPK9FieldInfoP11Il2CppClassEEEj17ReflectionMapHashIS8_ENS9_14EqualsComparerINS1_8equal_toIS8_EEEENS1_9allocatorINS2_IKS9_jEEEEEC2EjRKSB_RKSF_
j_i:__ZNK15dense_hashtableINSt3__24pairIK10KeyWrapperINS1_IPK10MethodInfoP11Il2CppClassEEEjEES9_17ReflectionMapHashIS8_EN14dense_hash_mapIS9_jSD_NS9_14EqualsComparerINS0_8equal_toIS8_EEEENS0_9allocatorISB_EEE9SelectKeyESI_SK_E13find_positionERSA_
Csa:__ZN13GfxDeviceGLES20CreateComputeProgramEPKhj
pWc:__ZN11UnityEngine7Connect16PersistentValues13RestoreValuesER8JSONRead
wmh:__ZL65RuntimeArray_CustomAttributesCacheGenerator_Array_Sort_m182264525P21CustomAttributesCache
BGf:_Guid_BaseToString_m3600006650
kOa:__ZN20ArchiveStorageReader31TryToReadDirectoryFromBlockDataEyPKvj
o_c:_PointerEventData_set_pointerEnter_m3256217464
xbj:__ZN6il2cpp2vmL11GetIdentityEP14Il2CppIUnknown
Onj:_GC_push_gc_structures
Ude:_TlsServerCertificate_ProcessAsTls1_m819212276
Y7h:_ReadOnlyCollection_1_System_Collections_Generic_ICollectionU3CTU3E_Clear_m2102011098_gshared
z1h:_Dictionary_2_Do_ICollectionCopyTo_TisRuntimeObject_m3942192587_gshared
OUi:__ZN6il2cpp6icalls8mscorlib6SystemL8IsPublicEPK9EventInfo
sRh:__ZL139RectTransformUtility_t1743242446_CustomAttributesCacheGenerator_RectTransformUtility_INTERNAL_CALL_RectangleContainsScreenPoint_m1214874141P21CustomAttributesCache
P6d:_PrimalityTests_RabinMillerTest_m2544317101
dDa:__Z22GetShaderCachePathGLESv
_5d:_Kernel_DwordDivMod_m1540317819
Yei:_CachedInvokableCall_1_Invoke_m931536002_gshared
S9g:_Enumerator_System_Collections_IEnumerator_get_Current_m1399273671_gshared
v_d:_TypeBuilder_GetPropertyImpl_m3104345782
S7a:__ZNSt3__213__stable_sortIRNS_4lessI4PPtrI11SpriteAtlasEEENS_11__wrap_iterIPS4_EEEEvT0_SA_T_NS_15iterator_traitsISA_E15difference_typeEPNSD_10value_typeEi
YGd:_Int64_ToString_m2085073918_AdjustorThunk
b$d:_FieldInfo_GetFieldOffset_m1356898082
x$g:__Z36RuntimeInvoker_Enumerator_t652329154PFvvEPK10MethodInfoPvPS4_
zMf:_Array_InternalArray__IndexOf_TisTypeTag_t3541821701_m2988972362_gshared
X8:__ZN8keywords6CreateEPKc
iKi:__ZL7log2_32j
S:Math_imul
j0f:_Enumerator_Dispose_m786980821_AdjustorThunk
TVg:__Z49RuntimeInvoker_Boolean_t97287965_Byte_t1134296376PFvvEPK10MethodInfoPvPS4_
nee:_TlsServerKeyExchange_Update_m453798279
J5a:__ZN11PlayerPrefs6GetIntERKN4core12basic_stringIcNS0_20StringStorageDefaultIcEEEEi
Qae:_CipherSuiteCollection_System_Collections_IList_IndexOf_m1361500977
t$e:_Text_set_fontStyle_m648756124
wMc:__Z45TextGenerator_CUSTOM_INTERNAL_get_rectExtentsP12Il2CppObjectP5RectTIfE
ROg:__Z50RuntimeInvoker_Touch_t1921856868_Int32_t2950945753PFvvEPK10MethodInfoPvPS4_
htf:_DateTime__ctor_m2135476686_AdjustorThunk
QKe:_SoapFieldAttribute_IsInteropXmlElement_m2819415462
LP:__ZN11AudioSource12SetAudioClipEP9AudioClip
ivg:_RectTransform_GetLocalCorners_m823861473
Vud:_SynchronizedArrayListWrapper_GetEnumerator_m1579424644
zWf:_EqualityComparer_1__ctor_m3717935020_gshared
Fci:_Comparison_1_EndInvoke_m2734814639_gshared
s_:__ZN18ScriptingArguments9AddObjectE18ScriptingObjectPtr
KQc:__Z39CanvasGroup_Get_Custom_PropInteractableP12Il2CppObject
GR:__ZN11UnityEngine15CloudWebService16SessionContainerD2Ev
zWc:__ZL38InitializeUnityConnectScriptingClassesv
nXb:__ZN13ProbeRenderer8ConvolveEbijjb
ixi:_GUIUtility_set_systemCopyBuffer_m608712289
wwa:__ZN17GenericDynamicVBOC2ER9GfxDevice13GfxBufferModejj
nmc:__ZZN10GUIManager14InitGUIManagerEvEN41PreUpdateIMGUISendQueuedEventsRegistrator7ForwardEv
Maf:_ServicePointManager_get_SecurityProtocol_m966397919
aDa:__ZN13dynamic_arrayIN18GlslGpuProgramGLES9GLProgramELj4EE6insertEPS1_jRKS1_
dWf:_EqualityComparer_1_System_Collections_IEqualityComparer_Equals_m2639327655_gshared
iDf:_CCGregorianCalendar_day_from_fixed_m1674702403
ZS:__ZN11UnityEngine15CloudWebService17SessionEventQueue10PurgeItemsEj
TXb:__ZN6Camera16StandaloneRenderENS_10RenderFlagEP6ShaderRKN4core12basic_stringIcNS3_20StringStorageDefaultIcEEEE
ndf:_X509Chain_PrepareForNextCertificate_m3691934993
O1a:__ZNK12CubemapArray13GetIsReadableEv
oyb:__Z18Transfer_BlittableI18StreamedBinaryReadILb1EELb1EtEvRK29SerializationCommandArgumentsR31RuntimeSerializationCommandInfo
zPh:__ZL58EventType_t3528516131_CustomAttributesCacheGenerator_keyUpP21CustomAttributesCache
Bvh:__ZL57X509Certificate_t713131622_CustomAttributesCacheGeneratorP21CustomAttributesCache
Kab:__ZN12BoneWeights48TransferI19StreamedBinaryWriteILb0EEEEvRT_
Hqa:__ZN9GfxDevice20DeallocRenderSurfaceEP17RenderSurfaceBase
KBe:_ValueCollection_System_Collections_Generic_ICollectionU3CTValueU3E_get_IsReadOnly_m1110422367_gshared
_ma:__ZN20GpuProgramParameters36UpdatePrepareValuesMaximumBufferSizeEv
$Ai:_AudioSourceExtension_Stop_m387892536
D6h:_ReadOnlyCollection_1_System_Collections_IList_RemoveAt_m2129436005_gshared
G0e:_SimpleCollator_GetContraction_m2205549079
PYf:_EqualityComparer_1_get_Default_m168544645_gshared
H6h:_ReadOnlyCollection_1_System_Collections_IList_get_IsReadOnly_m3888539454_gshared
zda:__ZN13RuntimeStaticI10WatermarksLb0EE13StaticDestroyEPv
x7d:_ARC4Managed_GenerateKey_m1607343060
EOf:_Array_InternalArray__ICollection_CopyTo_TisDecimal_t2948259380_m2749946216_gshared
kfe:_ReceiveRecordAsyncResult_get_ResultingBuffer_m1839161335
bSa:__ZN12BaseRenderer23RendererBecameInvisibleEv
dXd:_EnumBuilder_IsPointerImpl_m2644353933
PHe:_EnvoyInfo__ctor_m276600651
jJc:__ZN20TextRenderingPrivate8FontImpl13CharacterInfo8TransferI18StreamedBinaryReadILb0EEEEvRT_
Dvb:__Z29Transfer_Blittable_ArrayFieldI24GenerateTypeTreeTransferfEvRT_R9ArrayInfoRK23StaticTransferFieldInfo
zba:__ZNSt3__26__treeINS_12__value_typeIN4core12basic_stringIcNS2_20StringStorageDefaultIcEEEES6_EENS_19__map_value_compareIS6_S7_NS_4lessIS6_EELb1EEE13stl_allocatorIS7_L18MemLabelIdentifier13ELi16EEE7destroyEPNS_11__tree_nodeIS7_PvEE
cng:_UnityEvent_FindMethod_Impl_m2312362624
hZb:__ZN19CustomRenderTexture9AddParentE4PPtrIS_E
W6:__ZN8Gradient8TransferI14SafeBinaryReadEEvRT_
Pig:_Vector3_GetHashCode_m2879461828
Dqi:_Parser_ParseSpecial_m1961501104
Qof:_Single_System_IConvertible_ToUInt64_m3299129161_AdjustorThunk
f0a:__ZNSt3__26vectorIN4core12basic_stringIcNS1_20StringStorageDefaultIcEEEE13stl_allocatorIS5_L18MemLabelIdentifier1ELi16EEE7reserveEj
pRh:__ZL93CanvasRenderer_t2598313366_CustomAttributesCacheGenerator_CanvasRenderer_set_cull_m4222419074P21CustomAttributesCache
rBe:_ValueCollection_System_Collections_Generic_ICollectionU3CTValueU3E_Contains_m3110959791_gshared
raf:_IPv6Address_AsIPv4Int_m844941024
pSd:_Random__ctor_m3209279193
Kee:_RecordProtocol__cctor_m1280873827
G6f:_StringBuilder__ctor_m3504405255
S4d:_Marshal__cctor_m4007734770
Imj:_GC_new_free_list_inner
y6e:_SymmetricTransform_Random_m2004892672
QMg:__Z79RuntimeInvoker_Void_t1185182177_RuntimeObject_Byte_t1134296376_Byte_t1134296376PFvvEPK10MethodInfoPvPS4_
K8d:_EncryptedPrivateKeyInfo_get_IterationCount_m2912222740
nmj:_GC_err_printf
rCi:__ZL24UnresolvedVirtualCall_70P12Il2CppObjectPK10MethodInfo
bqh:__ZL63PathTooLongException_t2919094560_CustomAttributesCacheGeneratorP21CustomAttributesCache
b9d:_RSAManaged_DecryptValue_m1804388365
Cie:_InternalEnumerator_1_System_Collections_IEnumerator_get_Current_m2980550840_AdjustorThunk
Nuc:__ZN8JSONRead8TransferI10RectOffsetEEvRT_PKc17TransferMetaFlagsb
vcj:__ZNK15dense_hashtableINSt3__24pairIK10KeyWrapperINS1_IPKcS4_EEEiEES6_24NamespaceAndNamePairHashN14dense_hash_mapIS6_iS9_NS6_14EqualsComparerI26NamespaceAndNamePairEqualsEENS0_9allocatorIS8_EEE9SelectKeyESD_SF_E12test_deletedERK24dense_hashtable_iteratorIS8_S6_S9_SH_SD_SF_E
IS:__ZN9JSONWrite8TransferIN11UnityEngine15CloudWebService14DataErrorEvent15FileErrorDetailEEEvRT_PKc17TransferMetaFlags
Reh:_Collection_1_ClearItems_m2728738230_gshared
JFd:_Int32_Parse_m2087562008
NUa:__Z21ClearFenceWithoutSyncR8JobFence
vLf:_Array_compare_TisVector4_t3319028937_m1974066282_gshared
R1d:_MonoProperty_GetAccessors_m412928203
Dii:_TweenRunner_1_Start_m3757154622_gshared
yJ:__ZN12SoundManager20RegisterModifiedClipEP10SampleClip
cEe:_RemotingServices_GetClientChannelSinkChain_m1499550585
PSd:_Assembly_FillName_m1660001542
ith:__ZL56_EventBuilder_t2558055199_CustomAttributesCacheGeneratorP21CustomAttributesCache
FXe:_ScrollRect_get_decelerationRate_m74583805
dkf:_SHA384Managed_processBlock_m1272529332
cM:__ZN11AudioSource4PlayEd
Csd:_Char_ToString_m278452217_AdjustorThunk
pOi:__ZN15dense_hashtableI10KeyWrapperIPK17Il2CppGenericInstES4_N6il2cpp8metadata21Il2CppGenericInstHashEN14dense_hash_setIS4_S7_NS4_14EqualsComparerINS6_24Il2CppGenericInstCompareEEENSt3__29allocatorIS4_EEE8IdentityESB_SE_E13set_empty_keyERKS4_
SBg:__Z63RuntimeInvoker_Char_t3634460470_Int16_t2552820387_RuntimeObjectPFvvEPK10MethodInfoPvPS4_
vAd:_Convert_ToDouble_m2924063577
Llb:__ZNK20LocalFileSystemPosix8IsHiddenERK13FileEntryData
pse:_InternalEnumerator_1_System_Collections_IEnumerator_Reset_m1601477281_AdjustorThunk
rUd:_CustomAttributeNamedArgument_ToString_m1488801416_AdjustorThunk
eBe:_ValueCollection_System_Collections_Generic_ICollectionU3CTValueU3E_Remove_m3673494156_gshared
lRh:__ZL113CanvasRenderer_t2598313366_CustomAttributesCacheGenerator_CanvasRenderer_SplitUIVertexStreamsInternal_m3280623346P21CustomAttributesCache
H2a:__ZN7Cubemap23VirtualRedirectTransferER18StreamedBinaryReadILb0EE
Vre:_InternalEnumerator_1__ctor_m1739091604_gshared
Ohc:__ZNSt3__27__sort4IRNS_6__lessI11KeyframeTplIfES3_EEPS3_EEjT0_S7_S7_S7_T_
MFc:_Read_CVT
SL:__ZN11AudioSource23VirtualRedirectTransferER19StreamedBinaryWriteILb0EE
I0e:_SimpleCollator_GetTailContraction_m2107754083
rub:__ZL26Transfer_SimpleNativeClassI24GenerateTypeTreeTransfer17AnimationCurveTplIfELb0EEvRK29SerializationCommandArgumentsR31RuntimeSerializationCommandInfo
Nvc:__ZN8JSONRead21TransferSTLStyleArrayI13dynamic_arrayI9BoundsIntLj4EEEEvRT_17TransferMetaFlags
O4a:__ZN24GenerateTypeTreeTransfer8TransferI13dynamic_arrayI33EnlightenTerrainChunksInformationLj4EEEEvRT_PKc17TransferMetaFlags
Ztf:_DateTimeFormatInfo__ctor_m3106345035
Gbe:_TlsServerKeyExchange_verifySignature_m3412856769
FVf:_EqualityComparer_1_System_Collections_IEqualityComparer_GetHashCode_m4137147946_gshared
Wca:__ZN16LightmapSettings20DidChangeActiveSceneEP10UnitySceneS1_
Tvb:__Z18Transfer_BlittableI19StreamedBinaryWriteILb0EELb0EN4math12int3_storageEEvRK29SerializationCommandArgumentsR31RuntimeSerializationCommandInfo
OZh:__ZL59g_AssemblyU2DCSharp_Assembly_CustomAttributesCacheGeneratorP21CustomAttributesCache
aVi:__ZN6il2cpp5utils9PathUtils8BasenameIcEENSt3__212basic_stringIT_NS3_11char_traitsIS5_EENS3_9allocatorIS5_EEEERKSA_
QLe:_RemotingProxy__cctor_m4096951805
Snc:__Z35Register_UnityEngine_Event_get_typev
C9i:__ZN6il2cpp2vm9Exception23GetInvalidCastExceptionERKNS_5utils10StringViewIDsEE
BWh:__ZL64Scrollbar_t1494447233_CustomAttributesCacheGenerator_m_DirectionP21CustomAttributesCache
ez:__ZN8Animator28BuildControllerPlayableCacheEv
fuh:__ZL48Header_t549724581_CustomAttributesCacheGeneratorP21CustomAttributesCache
UQh:__ZL88CanvasGroup_t4083511760_CustomAttributesCacheGenerator_CanvasGroup_get_alpha_m2918269489P21CustomAttributesCache
sRg:__Z36RuntimeInvoker_EventType_t3528516131PFvvEPK10MethodInfoPvPS4_
$Y:__Z63ThreadAndSerializationSafeCheckGetMonoBehaviourBeingTransferredv
Yzf:_StackTrace__ctor_m206492268
n1g:_List_1_set_Item_m4224739467_gshared
VDg:__Z74RuntimeInvoker_Int32_t2950945753_RuntimeObject_RuntimeObject_RuntimeObjectPFvvEPK10MethodInfoPvPS4_
p6c:_ColorTween_set_startColor_m2562993758_AdjustorThunk
hVd:_ConstructorBuilder_get_Name_m2426555260
uhc:__Z37Register_UnityEngine_Input_GetAxisRawv
SCh:__ZL80ModulusRing_t596511505_CustomAttributesCacheGenerator_ModulusRing_Pow_m729002192P21CustomAttributesCache
Eqi:_Parser_ParseCharacterClass_m4285351396
sBd:_Convert_ToSByte_m2653418303
Hxd:_SyncHashtable__ctor_m2449935938
QL:__ZN11AudioSource5ResetEv
pjf:_RSAPKCS1SignatureFormatter_SetKey_m2935054088
ENb:__ZN12ImageFilters27SetSurfaceUseResolvedBufferEP13RenderTextureb
f8a:__ZN14Texture2DArray23VirtualRedirectTransferER18StreamedBinaryReadILb0EE
o8f:_UTF7Encoding_GetByteCount_m209415911
vjb:__ZN2UI13RectTransform13AwakeFromLoadE17AwakeFromLoadMode
kti:_RegularExpression_Compile_m2385682508
sDf:_CompareInfo__cctor_m1837489679
ASb:__ZN14qsort_internal30FindAndMovePivotToLastPositionIP20ShadowCasterSortDatai26ShadowCasterSortDataSorterEEvT_S4_T0_T1_
Kuh:__ZL60IRemotingTypeInfo_t2222593263_CustomAttributesCacheGeneratorP21CustomAttributesCache
Pnb:__Z18Transfer_BlittableI14SafeBinaryReadLb1EiEvRK29SerializationCommandArgumentsR31RuntimeSerializationCommandInfo
tdf:_X509ExtensionEnumerator_get_Current_m256207749
_7:__GLOBAL__sub_I_modules_profiler_public_0_cpp
Fei:_Predicate_1__ctor_m3829092036_gshared
Xhb:__ZN17PersistentManager13GetAllFileIDsERKN4core12basic_stringIcNS0_20StringStorageDefaultIcEEEER13dynamic_arrayIxLj8EE
Txh:__ZL83StringBuilder_t_CustomAttributesCacheGenerator_StringBuilder_AppendLine_m1438862993P21CustomAttributesCache
aod:_Array_Sort_m182264525
zSe:_LayoutGroup_set_padding_m282562135
jbh:_Collection_1_System_Collections_IList_get_IsReadOnly_m773226719_gshared
LTd:_Default_IsArrayAssignable_m953489228
mD:__ZNK4PPtrI8RendererEcvPS0_Ev
a4i:_il2cpp_field_get_offset
Neg:_UInt16_ToString_m355311020_AdjustorThunk
cid:_RC2__ctor_m1146135664
Nfi:_InvokableCall_1_remove_Delegate_m667188944_gshared
JHe:_SynchronizedClientContextSink__ctor_m4129963630
Ek:_glGetStringi
csf:_DecoderExceptionFallback_CreateFallbackBuffer_m1133375601
tdj:__ZNK15dense_hashtableI10KeyWrapperIP18Il2CppGenericClassES3_N6il2cpp8metadata22Il2CppGenericClassHashEN14dense_hash_setIS3_S6_NS3_14EqualsComparerINS5_25Il2CppGenericClassCompareEEENSt3__29allocatorIS3_EEE8IdentityESA_SD_E10test_emptyERK30dense_hashtable_const_iteratorIS3_S3_S6_SF_SA_SD_E
lxe:_Enumerator_get_CurrentKey_m889650866_gshared
_0a:__ZNSt3__26__treeINS_12__value_typeIN9ShaderLab16FastPropertyNameEN18UnityPropertySheet11UnityTexEnvEEENS_19__map_value_compareIS3_S6_NS_4lessIS3_EELb1EEENS_9allocatorIS6_EEE12__find_equalIS3_EERPNS_16__tree_node_baseIPvEENS_21__tree_const_iteratorIS6_PNS_11__tree_nodeIS6_SG_EEiEESJ_RKT_
$8a:__ZN18StreamedBinaryReadILb0EE21TransferSTLStyleArrayI13dynamic_arrayI8Vector4fLj4EEEEvRT_17TransferMetaFlags
qve:_Comparer_1_get_Default_m1513846993_gshared
P6e:_EncryptedData_get_EncryptionAlgorithm_m1297902161
DUh:__ZL67OptionDataList_t1438173104_CustomAttributesCacheGenerator_m_OptionsP21CustomAttributesCache
xA:__ZN8Animator9WriteStepEy
Ewe:_Enumerator_VerifyCurrent_m829026141_gshared
Y8b:__ZN16PropertyAccessorC2Ev
S5a:__ZNSt3__23mapIN4core12basic_stringIcNS1_20StringStorageDefaultIcEEEE9PrefValueNS_4lessIS5_EENS_9allocatorINS_4pairIKS5_S6_EEEEEixERSB_
Myb:__Z35Transfer_Blittable_FixedBufferFieldI18StreamedBinaryReadILb1EEaEvRK29SerializationCommandArgumentsR31RuntimeSerializationCommandInfo
s8b:__ZN15DirectorManager22ConstructPlayableGraphEv
AWh:__ZL65Scrollbar_t1494447233_CustomAttributesCacheGenerator_m_HandleRectP21CustomAttributesCache
i6a:__ZN13ScreenManager16SetScreenTimeoutEi
Usb:__Z18Transfer_BlittableI17RemapPPtrTransferLb0EdEvRK29SerializationCommandArgumentsR31RuntimeSerializationCommandInfo
nch:_Collection_1_ConvertItem_m1743542180_gshared
DMc:__Z38Register_UnityEngine_Font_HasCharacterv
c$g:__Z68RuntimeInvoker_Boolean_t97287965_Int16_t2552820387_Int16_t2552820387PFvvEPK10MethodInfoPvPS4_
xWb:__Z35IntersectSpherePlaneBoundsOptimizedRKN4math7_float4EPS1_i
wif:_RNGCryptoServiceProvider__cctor_m3587754670
lne:_InternalEnumerator_1_MoveNext_m1728532725_AdjustorThunk
Mni:_X509Crl_get_IssuerName_m1792797338
Q4f:_List_1_get_Count_m241572196_gshared
hgj:__ZN6il2cpp2os5posix15PosixWaitObject13InterruptWaitEv
tca:__Z22CleanupLODGroupManagerPv
Onc:__Z21Event_CUSTOM_PopEventP12Il2CppObject
ol:_glUniform3fv
Csj:__ZNK6il2cpp8metadata24Il2CppGenericInstCompareclERK10KeyWrapperIPK17Il2CppGenericInstES8_
Veb:__ZNSt3__218__insertion_sort_3IRN15ResourceManager10Dependency6SorterEPS2_EEvT0_S6_T_
Odf:_X509ChainElement_Set_m655180762
Kqg:_MonoBehaviour_StopCoroutine_m615723318
Tsg:_Quaternion_GetHashCode_m2636680144
lRb:__ZNK16LightmapSettings31GetRealtimeLightmapDecodeValuesEv
SK:__ZN5audio5mixer12SetSuspendedERNS0_16AudioMixerMemoryEb
Pib:__ZN17PersistentManager21UnloadNonDirtyStreamsEv
E7f:_UnicodeDecoder__ctor_m3606046165
VIg:__Z96RuntimeInvoker_Int32_t2950945753_RuntimeObject_Int32_t2950945753_RuntimeObject_Int32_t2950945753PFvvEPK10MethodInfoPvPS4_
Mti:_Uri_get_Parser_m3737125102
LHi:_Canvas_get_overrideSorting_m2740418462
Mag:_Scheduler__ctor_m3313141270
g9a:__ZN12ImageFilters4BlitER17ShaderPassContextP7TextureP13RenderTextureiPK18SharedMaterialDataPKcP6ShaderiNS_9BlitFlagsE11CubemapFaceRK8Vector2fSH_
Cqf:_String_LastIndexOf_m3451222878
Aoi:_Mark_get_Index_m3048692661
eYh:__ZL69CanvasScaler_t2767979955_CustomAttributesCacheGenerator_m_ScaleFactorP21CustomAttributesCache
lFe:_ConfigHandler_CheckPath_m3079311646
hT:__ZN11UnityEngine15CloudWebService10RestClientINS0_23WebRequestRestHeaderMapEED2Ev
odi:_U3CCreateWhereIteratorU3Ec__Iterator1D_1__ctor_m1723214851_gshared
Kl:_emscripten_glDepthMask
VDe:_RemotingServices_CreateClientProxy_m3886727610
Lxa:__ZN4crnd25static_huffman_data_model22prepare_decoder_tablesEv
H3a:__ZN9Texture2D23VirtualRedirectTransferER17RemapPPtrTransfer
nig:_AssetBundleRequest_t699759206_marshal_pinvoke
QTf:_DefaultComparer__ctor_m1292755885_gshared
Pee:_RecordProtocol_GetMessage_m2086135164
Nmc:__Z23GUIStatePopDisplayIndexv
VAb:__Z18Transfer_BlittableI18StreamedBinaryReadILb0EELb0E10ColorRGBAfEvRK29SerializationCommandArgumentsR31RuntimeSerializationCommandInfo
$ca:__Znaj
OIj:_emscripten_glEnableClientState__wrapper
fMh:__ZL60PlayableBehaviour_t4203540982_CustomAttributesCacheGeneratorP21CustomAttributesCache
J9:__ZN17MessageIdentifierC2EPKcNS_7OptionsEPKN5Unity4TypeES1_
UBg:__Z45RuntimeInvoker_Void_t1185182177_RuntimeObjectPFvvEPK10MethodInfoPvPS4_
M7a:__ZN13dynamic_arrayI4PPtrI6SpriteELj4EE9push_backERKS2_
Cqg:_Mesh_SetTriangles_m1523451247
Fof:_Single_System_IConvertible_ToSByte_m1208276900
B_h:_Array_InternalArray__set_Item_TisVector4_t3319028937_m757305038_gshared
_Ra:__ZN11GameManager15ThreadedCleanupEv
mHg:__Z105RuntimeInvoker_Void_t1185182177_RuntimeObject_RuntimeObject_RuntimeObject_RuntimeObject_Int32_t2950945753PFvvEPK10MethodInfoPvPS4_
PAe:_ValueCollection_System_Collections_Generic_ICollectionU3CTValueU3E_Add_m3298059628_gshared
nCg:__Z64RuntimeInvoker_RuntimeObject_Int16_t2552820387_Int16_t2552820387PFvvEPK10MethodInfoPvPS4_
xQ:__Z55Register_UnityEngine_AudioSource_get_spatializeInternalv
aLa:__ZN14SafeBinaryRead8TransferI14ConstantStringEEvRT_PKc17TransferMetaFlags
RLb:__ZNK6Camera16GetStereoEnabledEv
JDh:__ZL90HttpWebRequest_t1669436515_CustomAttributesCacheGenerator_HttpWebRequest__ctor_m1789065007P21CustomAttributesCache
WLg:__Z72RuntimeInvoker_Int32_t2950945753_TimeSpan_t881159249_TimeSpan_t881159249PFvvEPK10MethodInfoPvPS4_
ofe:_SendRecordAsyncResult_SetComplete_m153213906
Ena:__ZL24FindBelongingStructParamRPKcRNSt3__26vectorIN9ShaderLab20SerializedSubProgram14ConstantBufferENS2_9allocatorIS6_EEEE
v5b:__ZN12LightManager15InitializeClassEv
Zag:_WaitHandle__cctor_m4242752477
e$a:__ZN9ShaderLab11shaderprops16GetComputeBufferEPK19ShaderPropertySheetS3_NS_16FastPropertyNameE
Fkj:__ZN6il2cpp6icalls8mscorlib6System10Reflection10MethodBase31GetMethodFromHandleInternalTypeEii
I_:__ZN18ScriptingArgumentsC2Ev
jjg:_Vector3_op_Equality_m4231250055
XCe:_Dictionary_2_System_Collections_IDictionary_get_Item_m1524611028_gshared
jEj:_emscripten_glBlendFuncSeparate__wrapper
ROh:__ZL68GUISettings_t1774757634_CustomAttributesCacheGenerator_m_CursorColorP21CustomAttributesCache
UId:_FileSystemInfo__ctor_m3769019897
d3h:_Array_InternalArray__get_Item_TisContentType_t1787303396_m421427711_gshared
Utg:_Rect_get_xMin_m581135837_AdjustorThunk
Oua:__Z17HasSampledTexture14GraphicsFormat13formatSupport
eNb:__ZNK25CameraStackRenderingState27GetStereoImageEffectTextureEb
whd:_HMACSHA384__ctor_m1677515580
sif:_RIPEMD160Managed_J_m1336489154
sp:__ZN8Vector3f8TransferI14SafeBinaryReadEEvRT_
ySi:__ZN6il2cpp6icalls6System6System3Net7Sockets6Socket7ReceiveEiP11Il2CppArrayiiNS4_11SocketFlagsEPi
wo:FUNCTION_TABLE_ii
TRa:__ZN10TagManager8TransferI18StreamedBinaryReadILb0EEEEvRT_
wfh:_Collection_1_System_Collections_IList_get_IsReadOnly_m2202364665_gshared
nrc:__Z18Transfer_BlittableI9JSONWriteLb0E8BitFieldEvRK29SerializationCommandArgumentsR31RuntimeSerializationCommandInfo
TKd:_MemoryStream_set_Capacity_m1773624579
l5i:__ZNK15dense_hashtableINSt3__24pairIK10KeyWrapperINS1_IP11Il2CppClassjEEES4_EES6_N6il2cpp8metadata14ArrayClassHashEN14dense_hash_mapIS6_S4_SB_NS6_14EqualsComparerINSA_17ArrayClassCompareEEENS0_9allocatorIS8_EEE9SelectKeyESF_SH_E10test_emptyEj
N_e:_SpriteState_set_pressedSprite_m3368686500_AdjustorThunk
Oia:__ZNSt3__26vectorIN9ShaderLab20SerializedSubProgram15StructParameterENS_9allocatorIS3_EEE8__appendEj
tb:invoke_diiii
RCj:b47
$Ng:__Z95RuntimeInvoker_Void_t1185182177_RuntimeObject_RuntimeObject_SByte_t1669577662_SByte_t1669577662PFvvEPK10MethodInfoPvPS4_
zMa:__Z24CreateDirectoryRecursiveRKN4core12basic_stringIcNS_20StringStorageDefaultIcEEEE
DCj:b41
ila:__ZN9ShaderLab20SerializedSubProgram8TransferI18StreamedBinaryReadILb0EEEEvRT_
fge:_SslClientStream_get_HaveRemoteValidation2Callback_m2858953511
CCj:b40
ega:__ZN19ThreadSpecificValueIP14StackAllocatorE15ReinitializeTLSEPv
eVb:__Z9EndJobSetR8JobFence11JobPriority
eKh:__ZL54ContextMenu_t1295656858_CustomAttributesCacheGeneratorP21CustomAttributesCache
j9:__ZN13RuntimeStaticI21ScalableBufferManagerLb0EE13StaticDestroyEPv
jNc:__ZN2UI13CanvasManager9AddCanvasEPNS_6CanvasE
Z8a:__ZN9Texture3D8TransferI19StreamedBinaryWriteILb0EEEEvRT_
JNb:__ZNK6Camera22CalculateRenderingPathEv
cBd:_Convert_ToInt64_m3758262873
Uld:_Hashtable_TestPrime_m3839319309
gC:__ZN11UnityEngine9Animation37SetGenericRootTransformPropertyValuesERKNS0_30AnimatorGenericBindingConstantERKN7mecanim10ValueArrayER9Transformbb
YDa:__Z13ConvertMipmap14GraphicsFormatPKvS_Pviiii
A_c:_BaseRaycaster_get_renderOrderPriority_m1110184610
k7e:_PKCS12_get_IterationCount_m626423090
Zsb:__ZL12InvokeMethodI17RemapPPtrTransferEvRK29SerializationCommandArgumentsR31RuntimeSerializationCommandInfo
v9e:_RemoteCertificateValidationCallback_Invoke_m3086073466
Crf:_StringComparer_Compare_m991165676
tDc:_tt_sbit_decoder_load_image
nke:_InternalEnumerator_1_MoveNext_m3299696349_AdjustorThunk
i7g:_List_1_System_Collections_ICollection_get_IsSynchronized_m1552759297_gshared
T5i:__ZN15dense_hashtableINSt3__24pairIK10KeyWrapperIP11Il2CppClassES4_EES5_N6il2cpp8metadata16SZArrayClassHashEN14dense_hash_mapIS5_S4_SA_NS5_14EqualsComparerINS9_19SZArrayClassCompareEEENS0_9allocatorIS7_EEE9SelectKeyESE_SG_EC2EjRKSA_RKSE_RKSI_
pii:_U3CStartU3Ec__Iterator0_Dispose_m261027331_gshared
XEa:__ZN4core8hash_mapIPK17RenderSurfaceBaseP13RenderTexture19PointerHashFunctionIS3_ENSt3__28equal_toIS3_EEE6insertERKNS8_4pairIKS3_S5_EE
Hmc:__ZNSt3__24listIN10GUIManager12SortedScriptE11memory_poolIS2_EE6__sortI13OldSortScriptEENS_15__list_iteratorIS2_PvEESA_SA_jRT_
WXf:_EqualityComparer_1_System_Collections_IEqualityComparer_GetHashCode_m2588073987_gshared
nfh:_Collection_1_System_Collections_IList_Add_m3364892189_gshared
K1g:_List_1_AddEnumerable_m3500350831_gshared
wRi:__ZN24dense_hashtable_iteratorINSt3__24pairIK10KeyWrapperIPK11Il2CppClassEPKcEES6_N6il2cpp5utils11PointerHashIS3_EEN14dense_hash_mapIS6_S9_SE_NS6_14EqualsComparerINS0_8equal_toIS5_EEEENS0_9allocatorISA_EEE9SelectKeyESJ_SL_E30advance_past_empty_and_deletedEv
O8d:_PrivateKeyInfo_get_PrivateKey_m3647771102
Csb:__Z18Transfer_BlittableI17RemapPPtrTransferLb1E8BitFieldEvRK29SerializationCommandArgumentsR31RuntimeSerializationCommandInfo
i8i:__ZN6il2cpp6icalls8mscorlib6System9ThreadingL11ThreadStartEPv
Tea:__ZN15DirectorManager12OnSampleTimeEv
qZd:_TypeBuilder_check_not_created_m3652863637
z2c:_StandaloneInputModule_UpdateModule_m450861257
BGi:_Font_add_textureRebuilt_m2164317336
Zai:_ReadOnlyCollection_1_System_Collections_IList_Insert_m2928873627_gshared
gL:__ZNK4PPtrI10AudioMixerEptEv
mXf:_EqualityComparer_1__cctor_m314889309_gshared
f6:__ZN12CachedReader10Align4ReadEv
wUf:_DefaultComparer_GetHashCode_m556015105_gshared
ymi:_X501__cctor_m2428304915
KHi:_Canvas_get_renderOrder_m1489855841
MCg:__Z50RuntimeInvoker_Void_t1185182177_Single_t1397266774PFvvEPK10MethodInfoPvPS4_
RRh:__ZL77ExecuteEvents_t3484638744_CustomAttributesCacheGenerator_U3CU3Ef__mgU24cache1P21CustomAttributesCache
dvi:_Event_ToString_m1688862299
XMg:__Z70RuntimeInvoker_Boolean_t97287965_RuntimeObject_IPAddressU26_t589322682PFvvEPK10MethodInfoPvPS4_
ORg:__Z105RuntimeInvoker_Void_t1185182177_Vector2U26_t2376273893_RuntimeObject_RuntimeObject_Vector2U26_t2376273893PFvvEPK10MethodInfoPvPS4_
bKa:__ZNK9Behaviour22GetTypeVirtualInternalEv
hDf:_CCGregorianCalendar_month_from_fixed_m4268992710
mLf:_Array_compare_TisUICharInfo_t75501106_m1310495481_gshared
A3b:__ZNK28MonoBehaviourPropertyBinding12SetPPtrValueERKN11UnityEngine9Animation10BoundCurveEi
hXb:__Z21GetScriptingArraySize17ScriptingArrayPtr
HIc:__ZN20TextRenderingPrivate8FontImpl8TransferI14SafeBinaryReadEEvRT_
yKg:__Z51RuntimeInvoker_UInt32_t2560061978_Double_t594665363PFvvEPK10MethodInfoPvPS4_
Woh:__ZL55ISymbolWriter_t780458634_CustomAttributesCacheGeneratorP21CustomAttributesCache
xnc:__ZN11IMGUIModule21ClearDeveloperConsoleEv
GMh:__ZL81MessageTypeSubscribers_t1684935770_CustomAttributesCacheGenerator_m_messageTypeIdP21CustomAttributesCache
m9h:_ReadOnlyCollection_1_System_Collections_IList_Clear_m4022532825_gshared
Q5f:_Encoding_get_ASCII_m3595602635
itg:_Ray_get_direction_m761601601_AdjustorThunk
Dra:__ZN9GfxDevice17ImmediateTexCoordEifff
YHc:_ft_black_new
fWd:_DerivedType_GetCustomAttributes_m3536779709
tyh:__ZL93Interlocked_t2273387594_CustomAttributesCacheGenerator_Interlocked_CompareExchange_m388540288P21CustomAttributesCache
s_d:_MethodBase_get_IsAbstract_m428833029
rod:_AssemblyLoadEventHandler__ctor_m896828968
Atb:__Z35Transfer_Blittable_FixedBufferFieldI24GenerateTypeTreeTransferhEvRK29SerializationCommandArgumentsR31RuntimeSerializationCommandInfo
dCj:_emscripten_glUniform4f__wrapper
e1g:_List_1_Reverse_m4144036584_gshared
E1f:_Enumerator_MoveNext_m2595190390_AdjustorThunk
KMf:_Array_InternalArray__IndexOf_TisColor32_t2600501292_m3783551884_gshared
mY:__ZNK6Camera16GetProjectionFarEv
Nq:__Z24InverseTransformRotationRK23TransformAccessReadOnlyRKN4math7_float4E
yni:_X509Chain_Build_m2469702749
Jmf:_Evidence_get_IsSynchronized_m3446368195
XL:__ZN11AudioSource6UpdateEv
Zye:_Transform_1_EndInvoke_m1204015506_gshared
h1a:__ZNK14PlayableOutput11DerivesFromE17ScriptingClassPtr
u2a:__ZN7Texture34CreateFileTextureUploadInstructionE18TextureUploadFlagsj
Y3e:_BitConverterLE_ULongFromBytes_m1677445591
XWa:__ZThn280_N31CanvasBatchIntermediateRenderer20OnAssetBoundsChangedEv
oZd:_TypeBuilder_DefineConstructor_m2989882735
ePa:__ZN25SingleBlockMemoryFileDataC2E10MemLabelIdPvjb
QPh:__ZL59GUISkin_t1244372282_CustomAttributesCacheGenerator_m_toggleP21CustomAttributesCache
f3b:__ZN19LowerResBlitTexture13ApplySettingsEv
pD:__ZN8Animator8TransferI14SafeBinaryReadEEvRT_
D5i:__ZN15dense_hashtableINSt3__24pairIK10KeyWrapperIP11Il2CppClassES4_EES5_N6il2cpp8metadata16SZArrayClassHashEN14dense_hash_mapIS5_S4_SA_NS5_14EqualsComparerINS9_19SZArrayClassCompareEEENS0_9allocatorIS7_EEE9SelectKeyESE_SG_E4swapERSJ_
pQa:__ZN17GlobalGameManager23VirtualRedirectTransferER18StreamedBinaryReadILb0EE
WVb:__ZN27IntermediateRendererManager24GetIntermediateRenderersEi
A1:__Z23AsyncReadForceCloseFileRKN4core12basic_stringIcNS_20StringStorageDefaultIcEEEE
Ut:__ZN17AnimationPlayable34CollectAnimatorControllerPlayablesER13dynamic_arrayIP26AnimatorControllerPlayableLj4EE
MMh:__ZL120RenderPipelineManager_t4036911426_CustomAttributesCacheGenerator_RenderPipelineManager_DoRenderLoop_Internal_m3799666479P21CustomAttributesCache
RO:__ZN16BaseVideoTexture19UpdateVideoTexturesEv
Q0d:_MonoField_GetValue_m3124733531
dWa:__Z28BuildSingleStreamChannelInfo17ShaderChannelMaskRK20VertexChannelsLayoutS_S2_P11ChannelInfo
DKf:_Array_InternalArray__IEnumerable_GetEnumerator_TisOrderBlock_t1585977831_m2414028303_gshared
Wbe:_Context_set_HandshakeState_m1329976135
D6a:__ZN6Sprite23VirtualRedirectTransferER19StreamedBinaryWriteILb0EE
iCf:_Enum_GetHashCode_m2848082716
k$c:_EventTrigger_Execute_m2453060771
bci:_Comparison_1_Invoke_m517083441_gshared
mJg:__Z253RuntimeInvoker_Int32_t2950945753_RuntimeObject_Int32_t2950945753_Int32_t2950945753_RuntimeObject_Int32_t2950945753_UInt32U26_t3735378166_UInt32U26_t3735378166_RuntimeObject_DecoderFallbackBufferU26_t3866396827_ByteU5BU5DU26_t4057885439_SByte_t1669577662PFvvEPK10MethodInfoPvPS4_
lZi:__ZNK15dense_hashtableINSt3__24pairIK10KeyWrapperINS1_IPK9FieldInfoP11Il2CppClassEEEjEES9_17ReflectionMapHashIS8_EN14dense_hash_mapIS9_jSD_NS9_14EqualsComparerINS0_8equal_toIS8_EEEENS0_9allocatorISB_EEE9SelectKeyESI_SK_E5beginEv
Rna:__ZNK9ShaderLab7Program19HasMatchingVariantsERK13dynamic_arrayI16ShaderKeywordSetLj4EE
i7h:_ReadOnlyCollection_1_System_Collections_IList_get_IsFixedSize_m3402868227_gshared
kB:__ZN15SerializeTraitsIN4math4trsXEE8TransferI8BlobSizeEEvRS1_RT_
xva:__ZN14DataBufferGLES11CopySubDataEPKS_jjj
fe:_emscripten_glVertexPointer
lPc:__ZN2UI13PrepareOutputERNS_7BatchesEjjNS_30AdditionalCanvasShaderChannelsE
nVi:__ZN6il2cpp2vm7Runtime47RaiseExecutionEngineExceptionIfMethodIsNotFoundEPK10MethodInfo
gpi:_PatternCompiler_GetMachineFactory_m3758869886
dTb:__Z17GetFrustumPortionPK8Vector3fffPS_
LJh:__ZL105RectTransform_t3704657025_CustomAttributesCacheGenerator_RectTransform_INTERNAL_get_anchorMin_m1735215721P21CustomAttributesCache
Uaj:__ZN15dense_hashtableINSt3__24pairIK10KeyWrapperIP14Il2CppIUnknownEjEES5_N6il2cpp5utils11PointerHashIS3_EEN14dense_hash_mapIS5_jSB_NS5_14EqualsComparerINS0_8equal_toIS4_EEEENS0_9allocatorIS7_EEE9SelectKeyESG_SI_E14squash_deletedEv
B$c:_EventTrigger_OnCancel_m585099428
lxh:__ZL107CodeAccessPermission_t2681295399_CustomAttributesCacheGenerator_CodeAccessPermission_GetHashCode_m880096813P21CustomAttributesCache
pwi:_GUILayoutEntry_ApplyOptions_m1741659338
MIe:_MethodDictionary_set_MethodKeys_m1451825752
$dd:_RuntimeTypeHandle_Equals_m2857439487_AdjustorThunk
ufh:_Collection_1_System_Collections_ICollection_get_SyncRoot_m1659213062_gshared
upa:__ZNK9GfxDevice27GetPlatformAdjustedViewportEv
t6h:_ReadOnlyCollection_1_System_Collections_Generic_IListU3CTU3E_set_Item_m88350439_gshared
ldi:_Func_3_Invoke_m1194147890_gshared
Rri:_Reference_Compile_m4195878675
hGi:_InputBuffer_remove_onCommandSent_m3139499669
H8h:_ReadOnlyCollection_1_System_Collections_ICollection_CopyTo_m2672196987_gshared
a9b:__ZN16StreamedResource8TransferI24GenerateTypeTreeTransferEEvRT_
Mug:_RectTransform_get_anchorMin_m2928307238
Nsd:_ArrayList__ctor_m3828927650
Fta:__ZThn9568_N13GfxDeviceGLES26EnableScissorRectsPlatformEv
HGa:__ZN10Matrix3x3f15InvertTransposeEv
Bwi:_GUILayoutGroup_SetHorizontal_m996475327
Lnf:_SecurityException_get_Demanded_m2500043391
swi:_GUILayoutEntry__cctor_m663865902
Tff:_CaptureCollection_GetEnumerator_m732412500
lLb:__Z11IsBatchmodev
h0f:_Enumerator_System_Collections_IEnumerator_get_Current_m713684915_gshared
zrb:__Z29Transfer_Blittable_ArrayFieldI14SafeBinaryRead8Vector3fEvRT_R9ArrayInfoRK23StaticTransferFieldInfo
R_d:_MemberInfo__ctor_m3258770133
kvh:__ZL62IFormatterConverter_t2171992254_CustomAttributesCacheGeneratorP21CustomAttributesCache
fAh:__ZL78Convert_t2465617642_CustomAttributesCacheGenerator_Convert_ToSByte_m4075629912P21CustomAttributesCache
fLe:_SoapTypeAttribute_get_XmlTypeNamespace_m4211398148
wJc:__ZN20TextRenderingPrivate8FontImpl18ResetCachedTextureEv
RTi:__ZN6il2cpp6icalls8mscorlib6SystemL16GetFieldFromTypeINS_5utils10functional6FilterINSt3__212basic_stringIcNS7_11char_traitsIcEENS7_9allocatorIcEEEENS4_13VmStringUtils21CaseSensitiveComparerEEEEEP21Il2CppReflectionFieldP11Il2CppClassSK_iRKT_
Kkc:__Z27Screen_Get_Custom_PropWidthv
qnj:_GC_print_finalization_stats
ioa:__ZN11NamedObject15ThreadedCleanupEv
gxi:_GUITargetAttribute_GetGUITargetAttrValue_m2954410352
Vec:__Z53Register_UnityEngine_Behaviour_get_isActiveAndEnabledv
iod:_SimpleEnumerator_get_Current_m72361444
hq:__ZNSt3__26vectorIN4core12basic_stringIcNS1_20StringStorageDefaultIcEEEENS_9allocatorIS5_EEE8__appendEj
eP:__ZN13ProduceHelperI10SampleClipLb0EE7ProduceE10MemLabelId18ObjectCreationMode
ieb:__ZN26PlayerSettingsSplashScreen8TransferI17RemapPPtrTransferEEvRT_
I3e:_ASN1_set_Value_m2803403806
YTi:__ZN6il2cpp6icalls8mscorlib6SystemL17CollectTypeFieldsINS_5utils10functional10TrueFilterEEEvP11Il2CppClassPKS7_iRNSt3__26vectorIP9FieldInfoNSB_9allocatorISE_EEEERKT_
jDg:__Z52RuntimeInvoker_Int16_t2552820387_Decimal_t2948259380PFvvEPK10MethodInfoPvPS4_
I1b:__Z13GetTagManagerv
Nld:_Hashtable__ctor_m1815022027
L8f:_UTF8Encoding_GetChars_m1433288684
$Ji:__ZL10roundUp128PyS_
qR:__ZN11UnityEngine15CloudWebService17CloudJobSchedulerD0Ev
uBg:__Z50RuntimeInvoker_Boolean_t97287965_SByte_t1669577662PFvvEPK10MethodInfoPvPS4_
Lhe:_ArrayReadOnlyList_1_Contains_m381552673_gshared
xWg:__Z105RuntimeInvoker_Int32_t2950945753_RuntimeObject_OrderBlock_t1585977831_Int32_t2950945753_Int32_t2950945753PFvvEPK10MethodInfoPvPS4_
tcg:_TimeZone_ToUniversalTime_m2789507578
ICg:__Z96RuntimeInvoker_Boolean_t97287965_RuntimeObject_RuntimeObject_Int32_t2950945753_Int32_t2950945753PFvvEPK10MethodInfoPvPS4_
OLf:_Array_IndexOf_TisUICharInfo_t75501106_m3198896198_gshared
HNc:__ZNK2UI11CanvasGroup22GetTypeVirtualInternalEv
gde:_Context_get_Current_m2853615040
GEf:_CultureInfo_construct_internal_locale_from_lcid_m2668301444
sGi:_Keyboard_WarnIfTerminalNotConneced_m1063217717
l3e:_PrimeGeneratorBase__ctor_m2973488305
$mc:__Z21CleanupGlobalGUIStatev
vdg:_Type_IsContextfulImpl_m3693603908
Mlh:__ZL81RuntimeArray_CustomAttributesCacheGenerator_Array_GetValue_m120423883____indices0P21CustomAttributesCache
BOh:__ZL79Event_t2956885303_CustomAttributesCacheGenerator_Event_get_modifiers_m995073384P21CustomAttributesCache
$0f:_Enumerator_VerifyState_m2873941769_gshared
OAb:__Z18Transfer_BlittableI18StreamedBinaryReadILb0EELb1EN4math12int3_storageEEvRK29SerializationCommandArgumentsR31RuntimeSerializationCommandInfo
tAg:__Z56RuntimeInvoker_RuntimeObject_RuntimeObject_RuntimeObjectPFvvEPK10MethodInfoPvPS4_
eIa:__ZN22VertexDeclarationCache5ClearEv
Hfd:_CspParameters__ctor_m3852972821
Zld:_AppDomainInitializer_EndInvoke_m2095010821
i_b:__ZN17PersistentManager12SetPathRemapERKN4core12basic_stringIcNS0_20StringStorageDefaultIcEEEES6_
xw:__Z27ProcessRootMotionEmptyMixerP35AnimationPlayableEvaluationConstantP32AnimationPlayableEvaluationInputP33AnimationPlayableEvaluationOutput
GUb:__ZN6Camera24PrepareCullingParametersERK23CameraCullingParameters13RenderingPathR11CullResults
ubc:__Z12SetIUISystemP9IUISystem
Bgb:__ZN19RuntimeSceneManager22EndIntegrateMainThreadEP10UnitySceneNS_11LoadingModeE
e0h:_Array_Sort_TisUICharInfo_t75501106_m3474449559_gshared
arg:__ZN21InterfaceFuncInvoker0IP34MessageTypeSubscribers_t1684935770E6InvokeEjP11Il2CppClassP12Il2CppObject
$sb:__Z26Transfer_UnityEngineObjectI17RemapPPtrTransferLb0EEvRK29SerializationCommandArgumentsR31RuntimeSerializationCommandInfo
tkb:__ZN17WeakPtrSharedDataD0Ev
dqi:_QuickSearch_GetShiftDistance_m2542665852
O9a:__Z32TransferEnumWithNameForceIntSizeI14SafeBinaryRead11IndexFormatEvRT_RT0_PKc17TransferMetaFlags
E2h:_Array_InternalArray__get_Item_TisCustomAttributeTypedArgument_t2723150157_m2639399822_gshared
Z1e:_BigInteger_GenerateRandom_m3141592944
uvb:__Z29Transfer_Blittable_ArrayFieldI24GenerateTypeTreeTransfer4AABBEvRT_R9ArrayInfoRK23StaticTransferFieldInfo
Chf:_Interval_Contains_m1454846757
S9c:_Graphic_CacheCanvas_m1120385152
gte:_InternalEnumerator_1_MoveNext_m1262906009_gshared
N8c:_U3CDelayedDestroyDropdownListU3Ec__Iterator0_Dispose_m100123149
guj:_emscripten_GetProcAddress
PEi:__ZL25UnresolvedVirtualCall_202P12Il2CppObject23SpriteState_t1362986479PK10MethodInfo
f2f:_List_1_System_Collections_Generic_IEnumerableU3CTU3E_GetEnumerator_m944444416_gshared
Ca:invoke_fiiifii
Cvj:_modff
CYa:__ZN20SphericalHarmonicsL219AddDirectionalLightERKN4math7_float3ERKNS0_7_float4E
Xef:_X509ChainElementCollection_get_IsSynchronized_m3980338507
Kea:__Z26ScheduleJobForEachInternalR8JobFencePFvPvjES1_iPFvS1_E11JobPriority
YKb:__ZZ23InitPlayerLoopCallbacksvEN41PostLateUpdateProfilerEndFrameRegistrator7ForwardEv
Obc:__ZN9Scripting18RaiseMonoExceptionEPKcz
hNc:__ZN2UI13UIInstruction19ClearSharedMeshDataER8JobFence
Q7b:__ZN10GameObject17WillHandleMessageERK17MessageIdentifier
zmf:_StrongNamePublicKeyBlob_Equals_m3655422942
wnf:_SecurityContext__ctor_m1730177197
VIi:_RectTransformUtility_GetTransposed_m3952754222
U5b:__ZN9ShaderLab16FastPropertyName15InitBy28BitHashEj
WLi:__ZN6il2cpp2vm5Class7GetNameEP11Il2CppClass
I0g:_List_1_System_Collections_IList_set_Item_m4182383657_gshared
GWf:_EqualityComparer_1_System_Collections_IEqualityComparer_GetHashCode_m3723747923_gshared
j$h:_Array_Resize_TisOrderBlock_t1585977831_m3449774576_gshared
QFg:__Z96RuntimeInvoker_Void_t1185182177_Int32_t2950945753_Single_t1397266774_RuntimeObject_RuntimeObjectPFvvEPK10MethodInfoPvPS4_
b5h:_ReadOnlyCollection_1_CopyTo_m3722791265_gshared
KWg:__Z59RuntimeInvoker_Int32_t2950945753_KeyValuePair_2_t3699644050PFvvEPK10MethodInfoPvPS4_
Pve:_Enumerator_System_Collections_IDictionaryEnumerator_get_Key_m195047678_AdjustorThunk
Hvf:_DateTimeFormatInfo_get_RawAbbreviatedMonthNames_m2395953416
JHi:_Canvas_get_pixelPerfect_m333060872
Z9a:__ZN17PackedFloatVector12UnpackFloatsEPfiiii
E_d:_TypeBuilder_ToString_m3497908325
Cz:__ZN17AnimationPlayable28UpdateInternalStateRecursiveILi3ELb0EEEvPK35AnimationPlayableEvaluationConstant
Dsa:__ZN13GfxDeviceGLES21DestroyComputeProgramER12ObjectHandleI18ComputeProgram_TagPvE
Cpi:_PatternCompiler_EmitIfDefined_m2075050865
Lxf:_Decimal_System_IConvertible_ToInt64_m1446427516_AdjustorThunk
xca:__ZN17UniqueIDGenerator16DestroyPureIndexEj
UQd:_NotImplementedException__ctor_m3095902440
W$:__ZL21AppendNestedClassName17ScriptingClassPtrRN4core17string_with_labelILi1EEE
via:__ZN14SafeBinaryRead21TransferSTLStyleArrayINSt3__26vectorIN9ShaderLab20SerializedSubProgram12UAVParameterENS1_9allocatorIS5_EEEEEEvRT_17TransferMetaFlags
EGi:_FontTextureRebuildCallback_Invoke_m3604797831
xta:__ZN13GfxDeviceGLES32InitStereoGlobalsBuffersPlatformEiijPKv
TV:__ZNK13BaseAllocator10IsAssignedEv
AS:__ZN24TextDOMTransferWriteBaseI9JSONWriteE12PushMetaFlagEi
uth:__ZL59_PropertyBuilder_t1366136710_CustomAttributesCacheGeneratorP21CustomAttributesCache
uE:__ZZN8Animator15InitializeClassEvEN31FunctorImpl_420kDidDeleteMotion4CallEPviR11MessageData
iBa:__ZN6prcoreL26RemapGenericIntegerToFloatI17TexFormatARGB888815TexFormatRFloatEEvPKNS_9InnerInfoE
gW:__ZN5Mutex6UnlockEv
qTi:__ZN6il2cpp2vm10ThreadPool10InitializeEv
g4g:_List_1__ctor_m808270210_gshared
kXi:__ZN6il2cpp2vm17TypeNameParseInfoD2Ev
_Zf:_PrimeHelper_ToPrime_m3704362632_gshared
YI:__ZN4FMOD7Channel7setModeEj
txf:_Decimal_System_IConvertible_ToType_m2919262279
fzg:_Vector2_get_right_m1027081661
vX:__ZNK8Renderer8GetLayerEv
QLd:_Stream_Close_m771352034
Pte:__ZN21InterfaceFuncInvoker1Ii19TimeSpan_t881159249E6InvokeEjP11Il2CppClassP12Il2CppObjectS0_
Dy:__ZN7mecanim9animation22DestroyBlendTreeOutputEPNS0_15BlendTreeOutputERNS_6memory9AllocatorE
qPb:__ZNK6Camera20GetReplacementShaderEv
g7g:_List_1_System_Collections_IList_Remove_m4226673807_gshared
Erj:__ZNSt3__26__treeINS_12__value_typeINS_12basic_stringIcNS_11char_traitsIcEENS_9allocatorIcEEEEPFvvEEENS_19__map_value_compareIS7_SA_NS_4lessIS7_EELb1EEENS5_ISA_EEE4findIS7_EENS_15__tree_iteratorISA_PNS_11__tree_nodeISA_PvEEiEERKT_
xya:__ZL23stbir__calculate_memoryP11stbir__info
H_i:__ZNK15dense_hashtableINSt3__24pairIK10KeyWrapperINS1_IPK10MethodInfoP11Il2CppClassEEEjEES9_17ReflectionMapHashIS8_EN14dense_hash_mapIS9_jSD_NS9_14EqualsComparerINS0_8equal_toIS8_EEEENS0_9allocatorISB_EEE9SelectKeyESI_SK_E12test_deletedERK24dense_hashtable_iteratorISB_S9_SD_SM_SI_SK_E
Mgf:_Interpreter_Close_m126356671
zdh:_Collection_1_InsertItem_m168969280_gshared
zNc:__ZNSt3__227__insertion_sort_incompleteIRPFbPN2UI6CanvasES3_EPS3_EEbT0_S8_T_
s9a:__ZNK6Camera18GetRenderRectangleEv
eQi:__ZN6il2cpp5utils13dynamic_arrayIPK10Il2CppTypeLj4EE7reserveEj
O7a:__ZN13sorted_vectorIN4core12basic_stringIcNS0_20StringStorageDefaultIcEEEENSt3__24lessIS4_EE13stl_allocatorIS4_L18MemLabelIdentifier81ELi16EEE4findIS4_EENS5_11__wrap_iterIPS4_EERKT_
vqi:_Parser_HandleExplicitNumericGroups_m1412234891
b3h:_Array_InternalArray__get_Item_TisRaycastHit2D_t2279581989_m2440275162_gshared
kUd:_CustomAttributeNamedArgument_Equals_m1414002036
guc:__ZL26Transfer_SimpleNativeClassI8JSONRead10RectOffsetLb1EEvRK29SerializationCommandArgumentsR31RuntimeSerializationCommandInfo
hpg:_Material_SetInt_m475299667
SQc:__Z44CanvasRenderer_CUSTOM_INTERNAL_CALL_SetColorP12Il2CppObjectRK10ColorRGBAf
uXd:_FieldBuilder_GetFieldOffset_m725157755
AAe:_Enumerator_MoveNext_m3045873697_AdjustorThunk
x$f:_Enumerator_System_Collections_IEnumerator_Reset_m959124362_AdjustorThunk
WBf:_Enum_ToObject_m121831801
pFh:__ZL57AsyncOperation_t1445031843_CustomAttributesCacheGeneratorP21CustomAttributesCache
fcd:_Image_get_hasBorder_m3423344180
Xqc:__Z18Transfer_BlittableI9JSONWriteLb1EsEvRK29SerializationCommandArgumentsR31RuntimeSerializationCommandInfo
m2:__ZN6ObjectD2Ev
vcc:__ZN9Transform16SetLocalRotationERK11Quaternionf
m9c:_FontData_set_richText_m993590067
HLb:__ZN13RenderManager37RenderCamerasWithScriptableRenderLoopEi
Ndd:_RuntimeMethodHandle__ctor_m2229201676
jbg:_TimeSpan__ctor_m3689759052
ckh:__ZL49UInt16_t2177724958_CustomAttributesCacheGeneratorP21CustomAttributesCache
tB:__ZN7mecanim8skeleton25SkeletonPoseComputeLocalQEPKNS0_8SkeletonEPKNS0_13SkeletonPoseTIN4math4trsXEEEPS7_ii
G$g:__Z37RuntimeInvoker_Enumerator_t3123848928PFvvEPK10MethodInfoPvPS4_
$dj:__ZN6il2cpp2os19ReleaseSocketHandleEj
cO:__ZN11AudioModule16GetDSPSampleRateEv
pjj:__ZN15dense_hashtableINSt3__24pairIK10KeyWrapperIPK19Il2CppGenericMethodEP10MethodInfoEES6_N6il2cpp8metadata23Il2CppGenericMethodHashEN14dense_hash_mapIS6_S9_SD_NS6_14EqualsComparerINSC_26Il2CppGenericMethodCompareEEENS0_9allocatorISA_EEE9SelectKeyESH_SJ_E5clearEv
Z8b:__ZN16PropertyAccessor5ClearEv
xIb:__ZN15InstancingProps11NewConstantERKN9ShaderLab16FastPropertyNameEj15ShaderParamTypehhjjP6Object
kIe:_AsyncResult_get_AsyncDelegate_m3808237550
jcd:_Image_OnBeforeSerialize_m3415525254
VOe:_InputField_get_characterValidation_m4196664041
Bcg:_Type_get_Attributes_m58528356
JPb:__ZN6Camera28DefaultPerformRenderFunctionD0Ev
xjd:_Array_GetUpperBound_m4018715963
foi:_X509Store__ctor_m2736551756
agj:__ZN6il2cpp2os5posix15PosixWaitObjectC2ENS2_4TypeE
DNb:__ZN6Camera21PostMultiCustomRenderENS_10RenderFlagEb
VPf:_Array_InternalArray__Insert_TisMonoResource_t4103430009_m1997865927_gshared
vkf:_SHA512Managed_HashFinal_m2173184560
Whf:_RIPEMD160__ctor_m860963627
lIb:__ZN23ShaderVariantCollection13WarmupShadersEv
$Yb:__ZNK4PPtrI8MaterialEptEv
X3b:__ZN13ProduceHelperI9TransformLb0EE7ProduceE10MemLabelId18ObjectCreationMode
$fe:_SslStreamBase_Finalize_m3260913635
E$:__Z25GetCommonScriptingClassesv
Zgb:__Z27scripting_gc_collect_unsafei
o8d:_MD5SHA1_HashFinal_m4115488658
hO:__ZN11AudioModule20SuspendVideoTexturesEv
qNf:_Array_InternalArray__ICollection_Add_TisKeyValuePair_2_t71524366_m3468275433_gshared
PAi:_AudioSettings_InvokeOnAudioManagerUpdate_m4044425648
mQ:__Z59Register_UnityEngine_AudioExtensionManager_GetAudioListenerv
fph:__ZL78Calendar_t1661121569_CustomAttributesCacheGenerator_Calendar_Clone_m1356182658P21CustomAttributesCache
Nub:__Z26Transfer_UnityEngineObjectI24GenerateTypeTreeTransferLb0EEvRK29SerializationCommandArgumentsR31RuntimeSerializationCommandInfo
tAd:_Convert_ToDouble_m278900635
iAc:_UNITY_FT_GlyphLoader_CheckPoints
Hlg:_DebugLogHandler_LogException_m302830419
QQe:_InputField_LineDownCharacterPosition_m2798128425
YZf:_PrimeHelper_TestPrime_m2318568626_gshared
koh:__ZL63KeyNotFoundException_t2292407383_CustomAttributesCacheGeneratorP21CustomAttributesCache
pxe:_Enumerator_System_Collections_IDictionaryEnumerator_get_Value_m684446183_AdjustorThunk
xUa:__ZN15SharedLightData7PrecalcEv
N1:__ZN10Matrix4x4fmLERKS_
Cq:__ZN4PPtrI9TransformE8TransferI18StreamedBinaryReadILb0EEEEvRT_
ytg:_Vector2__ctor_m3970636864
jyb:__Z35Transfer_Blittable_FixedBufferFieldI18StreamedBinaryReadILb1EEsEvRK29SerializationCommandArgumentsR31RuntimeSerializationCommandInfo
kR:__ZNK4PPtrI4MeshEdeEv
sCf:_Environment_InternalGetFolderPath_m468390978
YNa:__ZN15ArchiveReadFileD0Ev
cCh:__ZL65StackOverflowException_t3629451388_CustomAttributesCacheGeneratorP21CustomAttributesCache
t3g:_List_1_System_Collections_Generic_ICollectionU3CTU3E_get_IsReadOnly_m2562366358_gshared
r8d:_RSASslSignatureFormatter__ctor_m1299283008
hUc:__ZN11UnityEngine15PlatformWrapper18GetOperatingSystemEv
woa:__ZNSt3__26vectorIP14DataBufferGLESNS_9allocatorIS2_EEE21__push_back_slow_pathIKS2_EEvRT_
eof:_SecurityFrame_ToString_m339310712
xCh:__ZL54ThreadStart_t1006689297_CustomAttributesCacheGeneratorP21CustomAttributesCache
pnh:__ZL62ParamArrayAttribute_t3664765590_CustomAttributesCacheGeneratorP21CustomAttributesCache
Kuc:__ZN8GUIStyle8TransferI8JSONReadEEvRT_
wJh:__ZL98Transform_t3600365921_CustomAttributesCacheGenerator_Transform_INTERNAL_set_localScale_m1089294020P21CustomAttributesCache
$wi:_GUIStyleState_t1397964415_marshal_pinvoke
vp:__ZN15SerializeTraitsI13dynamic_arrayIiLj4EEE19ResizeSTLStyleArrayERS1_i
z$h:_Array_Resize_TisVector4_t3319028937_m1507893064_gshared
syh:__ZL94Interlocked_t2273387594_CustomAttributesCacheGenerator_Interlocked_CompareExchange_m3023855514P21CustomAttributesCache
Kjf:_SHA1Managed_HashFinal_m2365675383
a3c:_TouchInputModule_ProcessTouchPress_m3504077560
zZe:_Selectable_IsInteractable_m2611421038
Nzc:_FT_MSB
WVf:_EqualityComparer_1_get_Default_m2572737998_gshared
pGj:_emscripten_glReadPixels__wrapper
p_f:_HashSet_1_Add_m1971460364_gshared
Urj:__ZN6il2cpp6icalls8mscorlib4Mono8Security12Cryptography18KeyPairPersistence10_CanSecureEP12Il2CppString
W7d:_MD4__ctor_m919379109
zHf:_Array_InternalArray__ICollection_Contains_TisParameterModifier_t1461694466_m1000453323_gshared
Frh:__ZL57FieldAttributes_t400321159_CustomAttributesCacheGeneratorP21CustomAttributesCache
fSf:_Dictionary_2_System_Collections_ICollection_CopyTo_m4047192178_gshared
TVi:__ZN6il2cpp2os4File11GetFileStatERKNSt3__212basic_stringIcNS2_11char_traitsIcEENS2_9allocatorIcEEEEPNS0_8FileStatEPi
Yhf:_RIPEMD160Managed_Initialize_m2173168986
huh:__ZL54IMessageCtrl_t317049502_CustomAttributesCacheGeneratorP21CustomAttributesCache
H5b:__ZN9TransformC2E10MemLabelId18ObjectCreationMode
Poa:__ZN13GfxDeviceGLES14SetRasterStateEPK17DeviceRasterState
USd:_Assembly_ToString_m2053237013
fpb:__Z30TransferField_LinearCollectionI14SafeBinaryReadEvRK29SerializationCommandArgumentsR31RuntimeSerializationCommandInfo
Mpg:_Vector4_Equals_m1779210055
fAf:_Exception_set_HResult_m3489164646
cCc:_otv_Coverage_get_count
F2d:_ParameterModifier_t1461694466_marshal_pinvoke_back
E2:__ZN14SafeBinaryRead11EndTransferEv
xYf:_EqualityComparer_1__cctor_m2741186979_gshared
zpb:__ZN14SafeBinaryRead8TransferI8MonoPPtrEEvRT_PKc17TransferMetaFlags
AEh:__ZL70Uri_t100236324_CustomAttributesCacheGenerator_Uri_Unescape_m3373094076P21CustomAttributesCache
LYe:_ScrollRect_set_verticalNormalizedPosition_m1452826170
MBf:_Enum_System_IConvertible_ToUInt16_m4216751959
LQg:__Z61RuntimeInvoker_Boolean_t97287965_PlayableHandleU26_t645981773PFvvEPK10MethodInfoPvPS4_
oGa:__ZN21UniformBufferTFMethod13MapBoneBufferEj
cGi:_StringExtension_Anagram_m968226828
MPf:_Array_InternalArray__Insert_TisInt32_t2950945753_m4073217122_gshared
zif:_RNGCryptoServiceProvider_RngClose_m3915778345
vyd:_SortedList_Remove_m2784369438
vxa:__ZN4crnd12crn_unpacker10unpack_dxnEPPhjjj
Buf:_DateTime_get_Kind_m2154871796_AdjustorThunk
uFb:__ZN9TextAsset15ThreadedCleanupEv
Voi:_MatchCollection_get_SyncRoot_m1957585059
m0:__ZN14SerializedFileD2Ev
Lea:__Z21CompleteFenceInternalR8JobFence
Inc:__Z30Event_Get_Custom_PropModifiersP12Il2CppObject
a0g:__Z79RuntimeInvoker_RuntimeObject_OrderBlock_t1585977831_RuntimeObject_RuntimeObjectPFvvEPK10MethodInfoPvPS4_
hu:__ZN7mecanim9animation16CreateClipOutputEPKNS0_4ClipERNS_6memory9AllocatorE
OKe:_SoapAttribute_SetReflectionObject_m4109300849
vVe:_RawImage_get_mainTexture_m2396337033
gYi:__ZN6il2cpp2vm10Reflection17GetAssemblyObjectEPK14Il2CppAssembly
psf:_DecoderFallbackBuffer_Reset_m3069554060
ZCb:__ZNSt3__218__stable_sort_moveIRN10vector_mapI17ScriptingClassPtrPKN5Unity4TypeENS_4lessIS2_EENS_9allocatorINS_4pairIS2_S6_EEEEE13value_compareENS_11__wrap_iterIPSB_EEEEvT0_SJ_T_NS_15iterator_traitsISJ_E15difference_typeEPNSM_10value_typeE
Zga:__ZN6Shader21AwakeFromLoadThreadedEv
kAa:__ZN6prcoreL17RemapGenericFloatI17TexFormatRGBFloat17TexFormatRGBAHalfEEvPKNS_9InnerInfoE
U1e:_BigInteger__ctor_m3991350270
Uyg:_Vector2_GetHashCode_m3916089713_AdjustorThunk
_Yc:__ZN13RuntimeStaticINSt3__26vectorIjNS0_9allocatorIjEEEELb0EE16StaticInitializeEPv
_T:__ZN13UploadHandler10OnSentDataEj
etj:__ZN6il2cpp2os9SemaphoreC2Eii
Bpb:__ZNSt3__26vectorI8MonoPPtr13stl_allocatorIS1_L18MemLabelIdentifier1ELi16EEE8__appendEj
gOb:__ZN14qsort_internal30FindAndMovePivotToLastPositionIP17RODataReplacementi19ROSorterReplacementEEvT_S4_T0_T1_
zGa:__ZN15UniformTFMethod20IsBoneCountSupportedEi
e6h:_ReadOnlyCollection_1_System_Collections_IList_get_Item_m3076053687_gshared
Ogg:_UnauthorizedAccessException__ctor_m246605039
a5b:__Z12BuildTextureIA4_tPFvP9Texture2DPS0_iiiiEES2_PKcii13TextureFormatRKT0_17TextureColorSpaceb
Tzj:dynCall_viidi
Jt:__ZN8Playable18OnApplicationPauseEb
U_:__ZN24ScriptingMethodFiltering17FilterOnSignatureENS_18MethodSearchFilterE
gji:_ListPool_1_U3Cs_ListPoolU3Em__0_m2283646495_gshared
IZb:__ZN18ScreenManagerWebGL13SetLockCursorE14CursorLockMode
vae:_CipherSuite_DecryptRecord_m1495386860
Wmi:_X509Certificate_VerifySignature_m3538124832
ULd:_StreamAsyncResult_SetComplete_m1102187093
Asi:_CharacterClass_GetIntervalCost_m4036989868
v3b:__ZN13MonoBehaviour19HandleNotificationsEPviR11MessageData
vug:_RectOffset_Init_m2028508611
Htj:__ZN6il2cpp2os9EventImpl5ResetEv
S5g:_List_1_Sort_m933660666_gshared
z9d:_Alert__ctor_m3135936936
iGd:_Int64_System_IConvertible_ToInt32_m772105781
Nji:_TlsClientSettings__ctor_m3220697265
h0i:__ZNK15dense_hashtableINSt3__24pairIK10KeyWrapperINS1_IPK9EventInfoP11Il2CppClassEEEjEES9_17ReflectionMapHashIS8_EN14dense_hash_mapIS9_jSD_NS9_14EqualsComparerINS0_8equal_toIS8_EEEENS0_9allocatorISB_EEE9SelectKeyESI_SK_E23find_position_with_hashERSA_j
dsi:_CaptureAssertion_set_CapturingGroup_m2003123956
mDj:b58
SRg:__Z103RuntimeInvoker_Boolean_t97287965_RuntimeObject_Vector2_t2156229523_RuntimeObject_Vector2U26_t2376273893PFvvEPK10MethodInfoPvPS4_
xRf:_Dictionary_2_make_pair_m2250450206_gshared
s6f:_ForwardingDecoder_GetChars_m4228908854
fhf:_InterpreterFactory_get_GroupCount_m2226373271
fDj:b53
UCj:b50
VCj:b51
kDj:b56
lDj:b57
iDj:b54
jDj:b55
n3f:_List_1_System_Collections_IList_get_IsReadOnly_m3531293387_gshared
HL:__ZN4PPtrI15AudioMixerGroupE8TransferI18StreamedBinaryReadILb0EEEEvRT_
O0e:_SimpleCollator_IsSafe_m310268646
PKf:_Array_InternalArray__IEnumerable_GetEnumerator_TisWorkRequest_t1354518612_m2622205355_gshared
qqd:_Byte_System_IConvertible_ToByte_m162267264_AdjustorThunk
Ijd:_X509Certificate_get_RawData_m2387471414
REj:_glDetachShader__wrapper
pod:_ArrayTypeMismatchException__ctor_m3375008173
Iye:_Transform_1_BeginInvoke_m1757796657_gshared
HXi:__ZNSt3__214__split_bufferINS_12basic_stringIcNS_11char_traitsIcEENS_9allocatorIcEEEERNS4_IS6_EEEC2EjjS8_
b$f:_KeyValuePair_2__ctor_m1794021352_AdjustorThunk
pWg:__Z88RuntimeInvoker_Int32_t2950945753_UIVertex_t4057497605_UIVertex_t4057497605_RuntimeObjectPFvvEPK10MethodInfoPvPS4_
j7b:__ZN10GameObject12CleanupClassEv
Dpa:__ZN9GfxDevice25SetShaderPropertiesSharedERK19ShaderPropertySheet
V3c:_BaseMeshEffect_get_graphic_m1852367505
Gvd:_CaseInsensitiveHashCodeProvider_GetHashCode_m2168170016
eFb:__ZN10MonoScript17MainThreadCleanupEv
rrf:_String_CreateString_m3400201881
$re:_InternalEnumerator_1_Dispose_m28687982_AdjustorThunk
D6b:__ZL25InitializeDefaultMaterialv
rRc:__Z53Register_UnityEngine_CanvasRenderer_get_materialCountv
XZd:_PropertyBuilder_GetCustomAttributes_m3798356764
xJd:_Stream__ctor_m3881936881
J2d:_PropertyInfo_get_MemberType_m2794839864
GOa:__ZN19FileAccessorHandlerD2Ev
N1f:_Enumerator_Dispose_m2367589020_AdjustorThunk
Lue:_Comparer_1_System_Collections_IComparer_Compare_m4179495191_gshared
jMa:__ZN17PersistentManager12UnloadStreamERKN4core12basic_stringIcNS0_20StringStorageDefaultIcEEEEb
XOa:__ZN10MemoryFile4ReadEyyPvPy
rQf:_Array_InternalArray__Insert_TisUICharInfo_t75501106_m2924156520_gshared
yXf:_EqualityComparer_1_System_Collections_IEqualityComparer_Equals_m3139704160_gshared
gNf:_MonoProperty_GetterAdapterFrame_TisRuntimeObject_TisRuntimeObject_m458718082_gshared
X5a:__ZN13ScreenManager17RequestResolutionEiibi
o4i:_il2cpp_unity_liveness_calculation_from_statics
Qx:__ZNK26AnimatorControllerPlayable11DerivesFromE17ScriptingClassPtr
LKe:_SoapAttribute__ctor_m1857608874
gse:_InternalEnumerator_1_System_Collections_IEnumerator_get_Current_m2649471526_gshared
CWf:_EqualityComparer_1_System_Collections_IEqualityComparer_Equals_m3218482536_gshared
_5:__ZN8Renderer8TransferI17RemapPPtrTransferEEvRT_
vji:_InternalAsyncResult_get_AsyncState_m1436290550
Xie:_InternalEnumerator_1_Dispose_m2018798800_AdjustorThunk
bpa:__ZN13GfxDeviceGLES26UpdateViewProjectionMatrixEv
Lve:_Enumerator_System_Collections_IDictionaryEnumerator_get_Entry_m522483686_gshared
P5e:_PrivateKeyInfo_RemoveLeadingZero_m3921889925
T9f:_Thread_get_CurrentContext_m1695017876
H3h:_Mesh_GetAllocArrayFromChannel_TisColor32_t2600501292_m3180365313_gshared
GXb:__Z24LookRotationToQuaternionRK8Vector3fS1_P11Quaternionf
EXb:__ZN16ReflectionProbes9GetCameraEv
Rma:__ZL18IsGpuProgramUsable20ShaderGpuProgramTypePK6Shader
TPc:__ZN2UI6Canvas17SetSortingLayerIDEi
b4c:_Button_get_onClick_m2332132945
Zfj:__ZN6il2cpp2vm11MethodStack23CleanupForCurrentThreadEv
A4h:_Collection_1_ConvertItem_m618594517_gshared
sVh:__ZL61Image_t2670269651_CustomAttributesCacheGenerator_m_FillMethodP21CustomAttributesCache
oCd:_Convert_ToUInt64_m388601487
tVa:__ZN20TierGraphicsSettings8TransferI24GenerateTypeTreeTransferEEvRT_
SPi:__ZN15dense_hashtableINSt3__24pairIK10KeyWrapperIN6il2cpp5utils13dynamic_arrayIPK10Il2CppTypeLj4EEEEPFvvEEESA_NS3_8metadata19Il2CppSignatureHashEN14dense_hash_mapISA_SD_SG_NSA_14EqualsComparerINSF_22Il2CppSignatureCompareEEENS0_9allocatorISE_EEE9SelectKeyESK_SM_E16reset_thresholdsEv
hqg:_Mesh_get_vertices_m3585684815
orb:__ZN14SafeBinaryRead21TransferSTLStyleArrayI13dynamic_arrayI4AABBLj4EEEEvRT_17TransferMetaFlags
yxg:_TouchScreenKeyboard_get_text_m1797464608
OYb:__ZN26CustomRenderTextureManager25UpdateCustomRenderTextureEP19CustomRenderTexturei
Ofa:__ZNSt3__26__treeINS_12__value_typeIiN11TypeManager18TypeCallbackStructEEENS_19__map_value_compareIiS4_NS_4lessIiEELb1EEENS_9allocatorIS4_EEE7destroyEPNS_11__tree_nodeIS4_PvEE
vXh:__ZL60Slider_t3903728902_CustomAttributesCacheGenerator_m_FillRectP21CustomAttributesCache
UEb:__ZN13MonoBehaviour18TransferEngineDataI24GenerateTypeTreeTransferEE4PPtrI10MonoScriptERT_
UUg:__Z71RuntimeInvoker_Void_t1185182177_CornerU26_t2243868623_Int32_t2950945753PFvvEPK10MethodInfoPvPS4_
wng:_TextureMixerPlayable_Equals_m1074187513_AdjustorThunk
T8b:__ZNK14PlayableOutput23GetSourcePlayableUnsafeEv
eTc:__ZN11UnityEngine7Connect17XRDeviceInfoEventD0Ev
zuh:__ZL60SoapTypeAttribute_t1750930817_CustomAttributesCacheGeneratorP21CustomAttributesCache
ATd:_Binder_ConvertArgs_m2124461494
PV:__ZN21UnityDefaultAllocatorI17LowLevelAllocatorE10DeallocateEPv
ts:__ZN15PackedIntVector8TransferI14SafeBinaryReadEEvRT_
hzg:_Vector3__ctor_m3353183577_AdjustorThunk
Wke:_InternalEnumerator_1_System_Collections_IEnumerator_get_Current_m1514266661_gshared
n8d:_MD5SHA1_Initialize_m675470944
bOf:_Array_InternalArray__ICollection_Add_TisKeyframe_t4206410242_m442111799_gshared
J4g:_List_1_CheckMatch_m3263549496_gshared
uyh:__ZL58ManualResetEvent_t451242010_CustomAttributesCacheGeneratorP21CustomAttributesCache
T8h:_ReadOnlyCollection_1_System_Collections_IList_get_IsReadOnly_m2041535988_gshared
Hmi:_X509Certificate_set_KeyAlgorithmParameters_m2010117999
AH:__ZN13AudioListener8DoUpdateEv
VFd:_Int32_GetTypeCode_m1648562395_AdjustorThunk
Dzd:__Z13bankers_roundd
Zdb:__ZN14SafeBinaryRead8TransferI5RectTIfEEEvRT_PKc17TransferMetaFlags
ri:_emscripten_glGenFramebuffers
Ifa:__ZN17BaseObjectManager16StaticInitializeEPv
Fha:__ZNSt3__26vectorIN9ShaderLab26SerializedShaderDependencyENS_9allocatorIS2_EEE26__swap_out_circular_bufferERNS_14__split_bufferIS2_RS4_EE
qzh:__ZL80Convert_t2465617642_CustomAttributesCacheGenerator_Convert_ToBoolean_m3613483153P21CustomAttributesCache
F4f:_List_1_CheckCollection_m2602703205_gshared
eKa:__ZN9Behaviour23VirtualRedirectTransferER17RemapPPtrTransfer
Drc:__Z18Transfer_BlittableI9JSONWriteLb0EyEvRK29SerializationCommandArgumentsR31RuntimeSerializationCommandInfo
q_a:__ZN13RenderTexture15ThreadedCleanupEv
ycf:_X509BasicConstraintsExtension__ctor_m3721156175
H1a:__ZN12CubemapArray23VirtualRedirectTransferER14SafeBinaryRead
KRh:__ZL70EventSystem_t1003666588_CustomAttributesCacheGenerator_m_DragThresholdP21CustomAttributesCache
lu:__ZN21AnimationClipPlayable16ProcessHumanPassEPK35AnimationPlayableEvaluationConstantPK32AnimationPlayableEvaluationInputP33AnimationPlayableEvaluationOutput
uId:_Path_GetFileName_m1354558116
a4e:_BitConverterLE_ToDouble_m1601000678
PDj:_emscripten_glUniform3i__wrapper
dug:_Rect_Contains_m1232228501_AdjustorThunk
JEa:__ZN18ProceduralMaterial9ReloadAllEbb
iic:__Z43RectTransform_CUSTOM_INTERNAL_set_sizeDeltaP12Il2CppObjectRK13Vector2fIcall
rGd:_Int64_System_IConvertible_ToType_m3223988955_AdjustorThunk
Pbj:__ZN15dense_hashtableINSt3__24pairIK10KeyWrapperINS1_IPKcS4_EEEiEES6_24NamespaceAndNamePairHashN14dense_hash_mapIS6_iS9_NS6_14EqualsComparerI26NamespaceAndNamePairEqualsEENS0_9allocatorIS8_EEE9SelectKeyESD_SF_E6insertERKS8_
X5:__ZN24GenerateTypeTreeTransfer18BeginArrayTransferEPKcS1_Ri17TransferMetaFlags
$2h:_Array_InternalArray__get_Item_TisPlayableBinding_t354260709_m3837494573_gshared
om:___syscall51
qmc:__Z26BeforeDomainReloadCallbackv
Roi:_MatchCollection_get_FullList_m1829231879
sm:___syscall54
pCi:__ZL24UnresolvedVirtualCall_68P12Il2CppObject17OpCode_t123070264S0_PK10MethodInfo
end:_Array_GetValue_m2528415604
iuh:__ZL55IMessageSink_t2514424906_CustomAttributesCacheGeneratorP21CustomAttributesCache
Hkf:_SymmetricAlgorithm_Clear_m3302238152
lvg:_Transform_INTERNAL_CALL_TransformPoint_m4261269221
zGf:_Guid_AppendShort_m791023083
RSh:__ZL109PointerEventData_t3807901092_CustomAttributesCacheGenerator_PointerEventData_get_eligibleForClick_m3788762543P21CustomAttributesCache
d5g:_List_1__ctor_m4212503576_gshared
X7f:_UTF32Encoding_GetBytes_m2832872594
_na:__ZN9ShaderLab9SubShader19CreateFromSubShaderERKS0_
Mwb:__Z18Transfer_BlittableI19StreamedBinaryWriteILb0EELb1EjEvRK29SerializationCommandArgumentsR31RuntimeSerializationCommandInfo
jAc:_cff_builder_add_point1
Ycj:__ZN6il2cpp2vm5Image21GetCachedResourceDataEPK11Il2CppImageRKNSt3__212basic_stringIcNS5_11char_traitsIcEENS5_9allocatorIcEEEE
iob:__Z18Transfer_BlittableI14SafeBinaryReadLb0E10ColorRGBAfEvRK29SerializationCommandArgumentsR31RuntimeSerializationCommandInfo
za:invoke_iiiiiiiiii
bmg:_DrivenRectTransformTracker_Clear_m371772582
OP:__ZN11AudioSource25GetNumExtensionPropertiesEv
nPf:_Array_InternalArray__ICollection_CopyTo_TisUILineInfo_t4195266810_m104406798_gshared
SN:__ZNK7Texture10GetVRUsageEv
vsd:_Char_ToLowerInvariant_m1926695830
TTf:_DefaultComparer__ctor_m41012692_gshared
tlg:_Debug_LogErrorFormat_m3558239521
O9c:_Graphic_get_canvas_m3320066409
nQe:_InputField_ActivateInputFieldInternal_m3360893886
A9g:_List_1_Insert_m1781696722_gshared
fG:__ZN4FMOD7SystemI11createSoundEPKcjP22FMOD_CREATESOUNDEXINFOPPNS_5SoundE
Q$b:__ZN10FileSystem19SetCurrentDirectoryERKN4core12basic_stringIcNS0_20StringStorageDefaultIcEEEE
Bkg:_Component_get_gameObject_m442555142
AOd:_Math_Log_m2526073084
Nec:__Z47Register_UnityEngine_Coroutine_ReleaseCoroutinev
lI:__ZN15AudioReverbZone13SetFMODValuesEv
GZ:__ZN14SafeBinaryRead4InitERK16TypeTreeIteratorxx24TransferInstructionFlags10MemLabelId
Tga:__ZL19StaticDestroyShaderPv
ae:_glRenderbufferStorageMultisample
C8b:__ZN8Playable4PlayEv
Xxd:_SyncHashtable_Clone_m3726939774
$y:__ZN23AnimationPlayableOutput17SetTargetAnimatorEP8Animator
Urh:__ZL62ParameterAttributes_t1826424051_CustomAttributesCacheGeneratorP21CustomAttributesCache
_sc:__ZN9JSONWrite8TransferI13dynamic_arrayIN4math12int3_storageELj4EEEEvRT_PKc17TransferMetaFlags
wQb:__ZN22MotionVectorRenderLoopD2Ev
QKd:_MemoryStream_get_CanRead_m1639425566
vlg:_Debug_LogException_m2207318968
wsf:_DecoderReplacementFallback_GetHashCode_m1611165826
Acd:_Image_get_minWidth_m755066479
uJj:_pthread_cond_broadcast__wrapper
kNf:_Array_InternalArray__ICollection_Add_TisClientCertificateType_t1004704908_m2622721177_gshared
Bs:__ZN17PackedFloatVector8TransferI18StreamedBinaryReadILb0EEEEvRT_
I2a:__ZN7Cubemap23VirtualRedirectTransferER17RemapPPtrTransfer
Nkc:__Z37Register_UnityEngine_Screen_get_widthv
fui:_Uri_get_Authority_m3816772302
R9b:__ZN22BlockMemoryCacheWriter11GetPathNameEv
Tbf:_X509BasicConstraintsExtension__ctor_m1244152959
pxg:_Touch_get_position_m3109777936
U1d:_ParameterInfo__ctor_m3269320476
zff:_X509SubjectKeyIdentifierExtension_FromHexChars_m3244835916
Rof:_Single_CompareTo_m2785801815
Fli:_PKCS12_MAC_m3355614022
luh:__ZL63IMethodReturnMessage_t3705538073_CustomAttributesCacheGeneratorP21CustomAttributesCache
_o:stackAlloc
ffc:__Z44Camera_CUSTOM_INTERNAL_CALL_ScreenPointToRayP12Il2CppObjectRK8Vector3fR3Ray
hPa:__ZN25SingleBlockMemoryFileData4LockEPPv
jlb:__ZN12HandlerChain5TouchER13FileEntryData
uHj:_glProgramParameteri__wrapper
ubi:_ReadOnlyCollection_1_System_Collections_Generic_ICollectionU3CTU3E_get_IsReadOnly_m1215739200_gshared
BZ:__ZN17PersistentManager23PostReadActivationQueueEiPK8TypeTreeb
Khg:_AnimationCurve_t3046754366_marshal_pinvoke
Kgc:__Z32RectOffset_Get_Custom_PropBottomP12Il2CppObject
plg:_Debug_LogError_m2850623458
nhh:_Collection_1_CheckWritable_m3225530705_gshared
UHj:_emscripten_glGetObjectParameterivARB__wrapper
HYh:__ZL74LayoutElement_t1785403678_CustomAttributesCacheGenerator_m_PreferredHeightP21CustomAttributesCache
Ovj:_stat
q4:__ZN9ShaderLab10SubProgram7CompileEv
zIb:__ZN15InstancingProps14CombineBuiltinEN10Instancing11BuiltinPropES1_S1_
D5g:_List_1_Contains_m353222571_gshared
QZd:_PropertyBuilder_get_CanRead_m3783190070
p0:__ZN14SerializedFile14SerializedTypeD2Ev
hCh:__ZL64ThreadStaticAttribute_t3840787420_CustomAttributesCacheGeneratorP21CustomAttributesCache
rNf:_Array_InternalArray__ICollection_Add_TisKeyValuePair_2_t3699644050_m4052349323_gshared
Iae:_CipherSuiteCollection_System_Collections_IList_get_Item_m2175128671
dSa:__ZN6CameraD2Ev
la:invoke_iiiiiiiiiiii
fuf:_DateTime_System_IConvertible_ToType_m1242864300_AdjustorThunk
BBe:_ValueCollection_get_Count_m994935123_gshared
qre:_InternalEnumerator_1_get_Current_m2446410893_AdjustorThunk
cWa:__Z29CalculateDefaultChannelsToAdd17ShaderChannelMaskS_
$Lh:__ZL89PlayableBinding_t354260709_CustomAttributesCacheGenerator_U3CstreamTypeU3Ek__BackingFieldP21CustomAttributesCache
IRa:__ZN10TagManager13RegisterLayerEjRKN4core12basic_stringIcNS0_20StringStorageDefaultIcEEEE
lIa:__ZNSt3__26__treeI20DeviceBlendStateGLES14MemoryCompLessI16DeviceBlendStateENS_9allocatorIS1_EEE7destroyEPNS_11__tree_nodeIS1_PvEE
tIi:_CanvasRenderer_SetMaterial_m633746949
hL:__ZN10AudioMixer12RebindOutputEv
J5i:__ZNK15dense_hashtableINSt3__24pairIK10KeyWrapperIP11Il2CppClassES4_EES5_N6il2cpp8metadata16SZArrayClassHashEN14dense_hash_mapIS5_S4_SA_NS5_14EqualsComparerINS9_19SZArrayClassCompareEEENS0_9allocatorIS7_EEE9SelectKeyESE_SG_E5beginEv
ble:_InternalEnumerator_1__ctor_m819716934_gshared
rTe:_LayoutRebuilder_PerformLayoutControl_m4241054021
uLi:__ZN6il2cpp2vm17SetupFieldsLockedEP11Il2CppClassRKNS_2os12FastAutoLockE
dTe:_U3CDelayedSetDirtyU3Ec__Iterator0_System_Collections_IEnumerator_get_Current_m3096581881
lHb:__ZNK9GfxDevice20IsViewportFullscreenEv
Gye:_Transform_1__ctor_m2638607165_gshared
ZCa:__ZN18GlslGpuProgramGLES13SwitchProgramEj
VPa:__ZN20ArchiveStorageReaderC2E10MemLabelId
gCg:__Z132RuntimeInvoker_Int32_t2950945753_RuntimeObject_Int32_t2950945753_Int32_t2950945753_RuntimeObject_Int32_t2950945753_Int32_t2950945753PFvvEPK10MethodInfoPvPS4_
Bmb:__ZN16MemoryFileSystem4NameEv
oof:_Single_System_IConvertible_ToBoolean_m1716619219_AdjustorThunk
Ikc:__Z13SetCopyBufferRKN4core12basic_stringIcNS_20StringStorageDefaultIcEEEE
n0f:_Enumerator_get_Current_m2468920150_AdjustorThunk
dki:_TlsException__ctor_m818940807
Wjd:_X509CertificateEnumerator_System_Collections_IEnumerator_get_Current_m418791713
IKc:_UNITY_FT_New_Size
ddc:__Z42ScriptingGetComponentsOfTypeFromGameObjectRK26ScriptingGetComponentsArgs
mdi:_Func_3_BeginInvoke_m2985061395_gshared
kLh:__ZL73ArgumentCache_t2187958399_CustomAttributesCacheGenerator_m_ObjectArgumentP21CustomAttributesCache
ilg:_StateChanged_EndInvoke_m3313423087
H0h:_Array_swap_TisRaycastResult_t3360306849_TisRaycastResult_t3360306849_m3400922624_gshared
sAi:_AudioListener_ReadExtensionName_m929423100
Gfd:_CspParameters__ctor_m2741097571
mWd:_EnumBuilder_get_DeclaringType_m4266754303
Q0a:__ZNSt3__27__sort4IRPFbRKNS_4pairIN9ShaderLab16FastPropertyNameEN18UnityPropertySheet11UnityTexEnvEEES8_EPS6_EEjT0_SD_SD_SD_T_
Hqi:_Assertion_get_TrueExpression_m2743006331
hzc:_cf2_hintmap_build
$wg:_Texture_get_width_m888163864
qIc:_Line_Up
Yzb:__Z29Transfer_Blittable_ArrayFieldI18StreamedBinaryReadILb1EExEvRT_R9ArrayInfoRK23StaticTransferFieldInfo
n$h:_Array_Resize_TisRaycastResult_t3360306849_m1277390301_gshared
he:_emscripten_glBufferSubData
Pqf:_String_ReplaceUnchecked_m1381393810
q6e:_SymmetricTransform_CBC_m435753239
Ssb:__Z18Transfer_BlittableI17RemapPPtrTransferLb1EyEvRK29SerializationCommandArgumentsR31RuntimeSerializationCommandInfo
nYh:__ZL76ContentSizeFitter_t3850442145_CustomAttributesCacheGenerator_m_HorizontalFitP21CustomAttributesCache
Ute:_DefaultComparer_Compare_m3278268937_gshared
Rp:__Z17CalculateGlobalRS23TransformAccessReadOnly
F_i:__ZN24dense_hashtable_iteratorINSt3__24pairIK10KeyWrapperINS1_IPK10MethodInfoP11Il2CppClassEEEjEES9_17ReflectionMapHashIS8_EN14dense_hash_mapIS9_jSD_NS9_14EqualsComparerINS0_8equal_toIS8_EEEENS0_9allocatorISB_EEE9SelectKeyESI_SK_E30advance_past_empty_and_deletedEv
rqj:__ZNSt3__210__list_impIPN6il2cpp5utils10MemoryPool6RegionENS_9allocatorIS5_EEE5clearEv
yDi:__ZL25UnresolvedVirtualCall_131P12Il2CppObject19Vector2_t2156229523S0_PK10MethodInfo
YYc:__ZN13RuntimeStaticINSt3__26vectorIN5physx25PxVehicleWheelQueryResultENS0_9allocatorIS3_EEEELb0EE16StaticInitializeEPv
krb:__ZN14SafeBinaryRead21TransferSTLStyleArrayI13dynamic_arrayI9BoundsIntLj4EEEEvRT_17TransferMetaFlags
Tib:__ZN22MemoryCacherReadBlocks14LockCacheBlockEjPPhS1_
VLd:_StreamAsyncResult_get_NBytes_m548041729
VWi:__ZN6il2cpp2vm14TypeNameParser17ParseAssemblyNameEv
n9a:__ZNK9GfxDevice26GetSinglePassStereoEyeMaskEv
Elg:_DebugLogHandler_Internal_Log_m4175774469
zkj:__ZN4utf88internal15increase_safelyIPKcEENS0_9utf_errorERT_S5_
vLi:__ZN6il2cpp2vmL21SetupPropertiesLockedEP11Il2CppClassRKNS_2os12FastAutoLockE
znf:_SecurityContext_get_CompressedStack_m3401528670
XJc:__ZN20TextRenderingPrivate8FontImpl16CacheFontForTextEPtiifjPK13dynamic_arrayINS_16TextFormatChangeELj4EE
Gsd:_CharEnumerator_get_Current_m525608209
poe:_InternalEnumerator_1_Dispose_m887344916_AdjustorThunk
D_c:__Z21ArrayElementTypeCheckP11Il2CppArrayPv
zGj:_emscripten_glTexSubImage2D__wrapper
Zzf:_StackTrace_init_frames_m641783388
lcf:_PublicKey_DecodeRSA_m1824703659
Gxj:__ZNSt3__212basic_stringIcNS_11char_traitsIcEENS_9allocatorIcEEE6appendEjc
PCb:__Z13TransferFieldI18StreamedBinaryReadILb0EELb0E16Converter_StringEvRK23StaticTransferFieldInfoR31RuntimeSerializationCommandInfoRT1_
xSc:__Z42Register_UnityEngine_Canvas_get_rootCanvasv
ozh:__ZL78Convert_t2465617642_CustomAttributesCacheGenerator_Convert_ToBoolean_m40300963P21CustomAttributesCache
Ctd:_ArrayListWrapper_set_Item_m3849584877
Qe:_TTF_RenderText_Solid
$2f:_List_1__ctor_m3947764094_gshared
Jjh:__ZL52IComparable_t36111218_CustomAttributesCacheGeneratorP21CustomAttributesCache
Ysi:_Parser_IsIgnorePatternWhitespace_m2107132682
x9e:_HttpRequestCreator_Create_m400548686
QWc:__ZN11UnityEngine7Connect16PersistentValuesC2Ev
WHg:__Z49RuntimeInvoker_RuntimeObject_StringU26_t181565287PFvvEPK10MethodInfoPvPS4_
vai:_ReadOnlyCollection_1_System_Collections_IList_Insert_m134149130_gshared
hrc:__Z18Transfer_BlittableI9JSONWriteLb0E5RectTIiEEvRK29SerializationCommandArgumentsR31RuntimeSerializationCommandInfo
Y1e:_BigInteger_get_Rng_m4216817480
qyc:_cf2_getStdVW
pIf:_Array_InternalArray__ICollection_Remove_TisDateTime_t3738529785_m2250893026_gshared
Bwh:__ZL67RijndaelManagedTransform_t4102601014_CustomAttributesCacheGeneratorP21CustomAttributesCache
pDa:__Z15IsIEEE754Format14GraphicsFormat
etb:__Z19TransferField_ArrayI17RemapPPtrTransfer27Converter_UnityEngineObjectEvRK23StaticTransferFieldInfoR31RuntimeSerializationCommandInfoRT0_
Za:invoke_iifiii
twd:_KeyNotFoundException__ctor_m541499307
vba:__ZN13RuntimeStaticINSt3__23mapIN4core12basic_stringIcNS2_20StringStorageDefaultIcEEEES6_NS0_4lessIS6_EE13stl_allocatorINS0_4pairIKS6_S6_EEL18MemLabelIdentifier13ELi16EEEELb0EE16StaticInitializeEPv
LJf:_SetPropertyUtility_SetStruct_TisSpriteState_t1362986479_m665096788_gshared
CCg:__Z61RuntimeInvoker_Single_t1397266774_RuntimeObject_RuntimeObjectPFvvEPK10MethodInfoPvPS4_
qoi:_Enumerator__ctor_m1228633090
vIf:_Array_InternalArray__ICollection_Remove_TisIntPtr_t_m3807208150_gshared
lPg:__Z71RuntimeInvoker_Void_t1185182177_Vector3_t3722313464_Vector3_t3722313464PFvvEPK10MethodInfoPvPS4_
_ne:_InternalEnumerator_1_get_Current_m2316281569_AdjustorThunk
itf:_DateTime__ctor_m1095105629
Yqa:__ZN13GfxDeviceGLES15UploadTexture2DE9TextureID16TextureDimensionPKhiii14GraphicsFormati18TextureUploadFlags16TextureUsageMode
UZg:__Z41RuntimeInvoker_KeyValuePair_2_t3699644050PFvvEPK10MethodInfoPvPS4_
Mui:_Event_Cleanup_m2477919477
dK:__ZN4FMOD6System9createDSPEP20FMOD_DSP_DESCRIPTIONPPNS_3DSPE
Kyh:__ZL87Thread_t2300836069_CustomAttributesCacheGenerator_Thread_GetCompressedStack_m2923422412P21CustomAttributesCache
owg:_HitInfo_t3229609740_marshal_pinvoke_back
Rfe:_SslClientStream_get_ClientCertificates_m998716871
iEe:__ZN21InterfaceFuncInvoker0IP8String_tE6InvokeEjP11Il2CppClassP12Il2CppObject
dG:__ZN4FMOD8ChannelI11EndCallbackEv
lnc:__ZN8GUIStyle14SetDefaultFontEPN13TextRendering4FontE
M4f:_List_1_ToArray_m2860284581_gshared
p5a:__ZN15QualitySettings23VirtualRedirectTransferER24GenerateTypeTreeTransfer
tNe:_ObjectReader_ReadValue_m3145979203
jAg:_TypeInferenceRuleAttribute_ToString_m4089326196
K4c:_CanvasScaler_OnDisable_m3424669401
Kze:_Transform_1_BeginInvoke_m500585065_gshared
Ita:__ZThn9568_N13GfxDeviceGLES32InitStereoGlobalsBuffersPlatformEiijPKv
EWh:__ZL68Scrollbar_t1494447233_CustomAttributesCacheGenerator_m_NumberOfStepsP21CustomAttributesCache
uXe:_ScrollRect_set_content_m321343743
fOi:__ZN30dense_hashtable_const_iteratorINSt3__24pairIK10KeyWrapperIPK19Il2CppGenericMethodEPK26Il2CppGenericMethodIndicesEES6_N6il2cpp8metadata23Il2CppGenericMethodHashEN14dense_hash_mapIS6_SA_SE_NS6_14EqualsComparerINSD_26Il2CppGenericMethodCompareEEENS0_9allocatorISB_EEE9SelectKeyESI_SK_EppEv
Wxc:_UNITY_FT_Request_Metrics
_Za:__ZN7Texture8TransferI18StreamedBinaryReadILb0EEEEvRT_
Kaj:__ZN6il2cpp6icalls8mscorlib6System10Reflection10MonoMethod29get_IsGenericMethodDefinitionEP22Il2CppReflectionMethod
d7i:__ZN6il2cpp2vm6Thread21AllocThreadStaticDataEi
yRh:__ZL63AnalyticsSessionState_t681173134_CustomAttributesCacheGeneratorP21CustomAttributesCache
kFf:_NumberFormatInfo_get_PercentNegativePattern_m1304634118
FTd:_Default_SelectMethod_m469311730
iog:_Input_get_mousePosition_m1616496925
Qn:FUNCTION_TABLE_difi
vjj:__ZN30dense_hashtable_const_iteratorINSt3__24pairIK10KeyWrapperIPK19Il2CppGenericMethodEP10MethodInfoEES6_N6il2cpp8metadata23Il2CppGenericMethodHashEN14dense_hash_mapIS6_S9_SD_NS6_14EqualsComparerINSC_26Il2CppGenericMethodCompareEEENS0_9allocatorISA_EEE9SelectKeyESH_SJ_EppEv
Lfg:_UInt32_ToString_m2066897296_AdjustorThunk
$O:__Z13RegisterClassI13AudioListenerEvv
pjb:__ZN24GenerateTypeTreeTransfer19TransferSTLStyleMapINSt3__23mapI4PPtrI6ShaderEN4core12basic_stringIcNS6_20StringStorageDefaultIcEEEENS1_4lessIS5_EENS1_9allocatorINS1_4pairIKS5_SA_EEEEEEEEvRT_17TransferMetaFlags
Kwd:_Enumerator_Reset_m4274366540
Gqc:__Z18Transfer_BlittableI9JSONWriteLb0E8Vector3fEvRK29SerializationCommandArgumentsR31RuntimeSerializationCommandInfo
qca:__ZN13RuntimeStaticI17UniqueIDGeneratorLb0EE13StaticDestroyEPv
Pf:_emscripten_glUniform4i
eCc:_otv_FeatureList_validate
$e:_emscripten_glUniform4f
yj:___unlock
smj:_GC_default_oom_fn
mBc:_otv_validate
k_b:__ZN13sorted_vectorINSt3__24pairIN4core12basic_stringIcNS2_20StringStorageDefaultIcEEEES6_EEN10vector_mapIS6_S6_27compare_tstring_insensitiveIS6_E13stl_allocatorIS7_L18MemLabelIdentifier38ELi16EEE13value_compareESD_E9erase_oneIS6_EEjRKT_
gUf:_DefaultComparer__ctor_m963958896_gshared
Qlf:_X509Certificate_Equals_m3784196370
T8g:_List_1__ctor_m3376067838_gshared
xM:__ZN20SoundChannelInstance19setReverbPropertiesEP29FMOD_REVERB_CHANNELPROPERTIES
f1f:_Enumerator_MoveNext_m1446151600_gshared
Ejf:_SHA1Internal_ProcessFinalBlock_m1403775421
LQh:__ZL87Canvas_t3310196443_CustomAttributesCacheGenerator_Canvas_get_sortingLayerID_m3685979122P21CustomAttributesCache
HBh:__ZL69Math_t1671470975_CustomAttributesCacheGenerator_Math_Sqrt_m1297338011P21CustomAttributesCache
pkc:__Z40Register_UnityEngine_Transform_IsChildOfv
DLe:_RemotingServices_GetOrCreateClientIdentity_m648299611
ste:_InternalEnumerator_1_get_Current_m2356858238_AdjustorThunk
Vfc:__Z45Register_UnityEngine_Display_GetSystemExtImplv
d6e:_RSAManaged_ImportParameters_m1844641996
mrh:__ZL67AssemblyProductAttribute_t1000945320_CustomAttributesCacheGeneratorP21CustomAttributesCache
BJa:__ZN9GfxDevice31DrawIndexedNullGeometryIndirectE16GfxPrimitiveTypeP9GfxBuffer15ComputeBufferIDj
Sve:_Enumerator_System_Collections_IDictionaryEnumerator_get_Value_m3325938730_AdjustorThunk
lv:__ZN7mecanim9animation23TransformValuesFromClipEiiiRKNS_10ValueArrayERKNS0_10ClipOutputERKNS0_12ClipBindingsERS1_RNS_14ValueArrayMaskEb
K_h:_Array_qsort_TisOrderBlock_t1585977831_TisOrderBlock_t1585977831_m1675918557_gshared
yBe:_ValueCollection_System_Collections_ICollection_get_SyncRoot_m1114275063_gshared
fKi:__ZL17log2withScale_128yyi
pGf:_Guid_Equals_m1866984197
COc:__ZNSt3__218__insertion_sort_3IRNS_6__lessIN2UI14DepthSortEntryES3_EEPS3_EEvT0_S7_T_
$we:_Enumerator__ctor_m65667165_gshared
mSd:_PlatformNotSupportedException__ctor_m1787918017
Gda:__ZN13RuntimeStaticI15DirectorManagerLb0EE16StaticInitializeEPv
B7h:_ReadOnlyCollection_1_System_Collections_ICollection_CopyTo_m2643246984_gshared
Lcb:__ZN11TimeManager6UpdateEv
X1f:_Enumerator_System_Collections_IEnumerator_get_Current_m209407522_gshared
Edd:_StreamingContext_GetHashCode_m2281950854_AdjustorThunk
Eje:_InternalEnumerator_1__ctor_m619554185_AdjustorThunk
D4c:_CanvasScaler_get_fallbackScreenDPI_m2811935689
VLe:_WellKnownServiceTypeEntry_get_ObjectUri_m560402900
_tf:_DateTimeFormatInfo_ReadOnly_m890935083
t9h:_ReadOnlyCollection_1_System_Collections_ICollection_get_SyncRoot_m1280260618_gshared
zlj:__ZN6il2cpp2vm3CCW9CreateCCWEP12Il2CppObject
Vvj:_fflush
G3:__ZN17LightProbeContext4InitERK16LightmapSettingsRK14RenderSettings
lFg:__Z82RuntimeInvoker_Int32_t2950945753_RuntimeObject_Int32_t2950945753_SByte_t1669577662PFvvEPK10MethodInfoPvPS4_
DTb:__ZN18DeferredRenderLoop14RenderLightingER21ActiveLightingContextP13RenderTexture9TextureIDPS3_iRK8Vector4fRK14LightingLayersR10MinMaxAABBb12ObjectHandleI17RenderSurface_TagP17RenderSurfaceBaseE
Xvg:_SceneManager_Internal_ActiveSceneChanged_m3676176255
Zmi:_X509Certificate_GetIssuerName_m1142198382
Fsi:_ExpressionAssertion_set_Negate_m1236561973
xAf:_Double_System_IConvertible_ToInt16_m3591921965
y8a:__ZN9Texture3DD2Ev
Vhh:_Collection_1_set_Item_m4280581817_gshared
Tbd:_Image_get_fillMethod_m1027254375
zXh:__ZL60Slider_t3903728902_CustomAttributesCacheGenerator_m_MaxValueP21CustomAttributesCache
l7:__ZN10ColorRGBAf8TransferI19StreamedBinaryWriteILb0EEEEvRT_
oyh:__ZL97CompressedStack_t1202932761_CustomAttributesCacheGenerator_CompressedStack_CreateCopy_m2591279216P21CustomAttributesCache
Vzd:_Convert_ToChar_m2796006345
qQf:_Array_InternalArray__Insert_TisContentType_t1787303396_m3566390691_gshared
mEi:__ZL25UnresolvedVirtualCall_173P12Il2CppObject39CustomAttributeNamedArgument_t287865710S1_PK10MethodInfo
Ufj:__ZNSt3__26vectorI20Il2CppStackFrameInfoNS_9allocatorIS1_EEE7reserveEj
ruh:__ZL82MethodDictionary_t207894204_CustomAttributesCacheGenerator_U3CU3Ef__switchU24map21P21CustomAttributesCache
Xtd:_ArrayListWrapper_GetEnumerator_m2336495952
VVb:__Z34ProcessIndexListIsNodeVisibleStep2RK22SceneCullingParametersPK9SceneNodePK4AABBR9IndexList
cFb:__ZN10MonoScriptD2Ev
Dza:__ZN6prcoreL12RemapGenericI17TexFormatARGB888817TexFormatBGRA8888EEvPKNS_9InnerInfoE
mHa:__ZN19ConstantBuffersGLES8UpdateCBE5CbKeyPKvj
k4c:_U3COnFinishSubmitU3Ec__Iterator0_System_Collections_Generic_IEnumeratorU3CobjectU3E_get_Current_m2586882303
Yzi:_AudioSource_get_spatializeInternal_m2117549793
fhc:__Z39Input_CUSTOM_INTERNAL_get_mousePositionP8Vector3f
and:_SimpleEnumerator__ctor_m353509656
TDc:_tt_cmap13_char_next
MRh:__ZL117EventSystem_t1003666588_CustomAttributesCacheGenerator_EventSystem_t1003666588____lastSelectedGameObject_PropertyInfoP21CustomAttributesCache
Xna:__ZN9ShaderLab4Pass16SetupPassOptionsEv
y8g:_List_1_GetIndex_m1042356532_gshared
dh:_JS_Sound_ReleaseInstance
Vpa:__ZN13GfxDeviceGLES19DrawBuffersIndirectEP9GfxBufferPK18VertexStreamSourceiP17VertexDeclaration17ShaderChannelMask16GfxPrimitiveType15ComputeBufferIDj
bGf:_Guid_CheckArray_m921056615
uFe:_ConfigHandler_ReadLifetine_m208994800
EVc:__ZN20UnityConnectSettings16CheckConsistencyEv
k_i:__ZNK15dense_hashtableINSt3__24pairIK10KeyWrapperINS1_IPK10MethodInfoP11Il2CppClassEEEjEES9_17ReflectionMapHashIS8_EN14dense_hash_mapIS9_jSD_NS9_14EqualsComparerINS0_8equal_toIS8_EEEENS0_9allocatorISB_EEE9SelectKeyESI_SK_E12test_deletedEj
_dg:_UInt16_System_IConvertible_ToByte_m3185614807_AdjustorThunk
Bfe:_SecurityParameters_set_ServerWriteMAC_m3003817350
fCb:__Z29Transfer_Blittable_ArrayFieldI18StreamedBinaryReadILb0EEaEvRT_R9ArrayInfoRK23StaticTransferFieldInfo
Jtg:_Rect_get_max_m350137314_AdjustorThunk
Cm:FUNCTION_TABLE_diddi
q7i:__ZN6il2cpp6icalls8mscorlib6System5Array8FastCopyEP11Il2CppArrayiS5_ii
zic:__Z26Material_CUSTOM_SetIntImplP12Il2CppObjectii
TZa:__Z32TransferEnumWithNameForceIntSizeI14SafeBinaryRead15TextureWrapModeEvRT_RT0_PKc17TransferMetaFlags
pUi:__ZNSt3__26vectorIPK10MethodInfoNS_9allocatorIS3_EEE21__push_back_slow_pathIRKS3_EEvOT_
MVg:__Z54RuntimeInvoker_Boolean_t97287965_LabelFixup_t858502054PFvvEPK10MethodInfoPvPS4_
S6b:__ZN8GUILayerD2Ev
z6g:_List_1_Clear_m2244610185_gshared
Xgc:__Z42Register_UnityEngine_RectOffset_get_bottomv
Gph:__ZL55BinaryReader_t2428077293_CustomAttributesCacheGeneratorP21CustomAttributesCache
wvj:_newlocale
VRd:_ObjectDisposedException_get_Message_m1666887471
lrb:__ZN9BoundsInt8TransferI14SafeBinaryReadEEvRT_
DEj:_emscripten_glUniform1f__wrapper
Czj:dynCall_di
Jjd:_X509Certificate_get_SubjectName_m3160893681
pmg:_BaseInvokableCall_AllowInvoke_m878393606
uEi:__ZL25UnresolvedVirtualCall_181P12Il2CppObject19Vector2_t2156229523S1_PK10MethodInfo
nqc:__Z28RegisterModule_JSONSerializev
C4i:_il2cpp_monitor_enter
Jjb:__ZN2UI13RectTransform8TransferI14SafeBinaryReadEEvRT_
zrc:__Z35Transfer_Blittable_FixedBufferFieldI9JSONWriteaEvRK29SerializationCommandArgumentsR31RuntimeSerializationCommandInfo
Iig:_Behaviour_get_enabled_m753527255
obc:__Z20IsHumanControllingUsv
KAe:_Enumerator_MoveNext_m181298207_gshared
d_g:__Z44RuntimeInvoker_ParameterModifier_t1461694466PFvvEPK10MethodInfoPvPS4_
EW:__ZNK20DynamicHeapAllocatorI17LowLevelAllocatorE10GetPtrSizeEPKv
f9g:_List_1_System_Collections_IList_get_IsReadOnly_m3278465421_gshared
Aph:__ZL51TextInfo_t3810425522_CustomAttributesCacheGeneratorP21CustomAttributesCache
yMa:__ZN10systeminfo21GetPersistentDataPathEv
Qxi:_SymmetricTransform_get_KeepLastBlock_m2492071306
Ipa:__ZN13GfxDeviceGLES17DestroyGpuProgramEPK10GpuProgram
o_h:_Array_InternalArray__set_Item_TisRaycastResult_t3360306849_m730888808_gshared
Hnb:__Z44InitializeTransferFunctionScriptingTraitsForI18StreamedBinaryReadILb0EEEvR31TransferFunctionScriptingTraits
lAe:_Enumerator_System_Collections_IEnumerator_Reset_m53411943_gshared
ZRb:__ZNSt3__218__insertion_sort_3IR23CompareReflectionProbesP31RuntimeReflectionProbeBlendInfoEEvT0_S5_T_
otb:__ZN12NativeBufferI27Converter_SimpleNativeClassI8GradientEE15SetupForWritingER9ArrayInfo
E2e:_Kernel_RightShift_m2207393597
oga:__ZNSt3__213__stable_sortIRNS_4lessIN4core12basic_stringIcNS2_20StringStorageDefaultIcEEEEEENS_11__wrap_iterIPS6_EEEEvT0_SC_T_NS_15iterator_traitsISC_E15difference_typeEPNSF_10value_typeEi
JZh:__ZL48Shadow_t773074319_CustomAttributesCacheGeneratorP21CustomAttributesCache
i8:__ZN12_GLOBAL__N_113StaticDestroyEPv
_Di:__ZL25UnresolvedVirtualCall_159P12Il2CppObject25RaycastResult_t3360306849S1_PK10MethodInfo
oJj:_glUnmapBuffer__wrapper
sze:_Transform_1__ctor_m3369371265_gshared
fvc:__ZN8JSONRead21TransferSTLStyleArrayINSt3__26vectorI8Gradient13stl_allocatorIS3_L18MemLabelIdentifier1ELi16EEEEEEvRT_17TransferMetaFlags
gdb:__ZNSt3__218__insertion_sort_3IRNS_6__lessINS_4pairIPKN5Unity4TypeE7Hash128EES8_EEPS8_EEvT0_SC_T_
R3c:_U3CDelayUpdateU3Ec__Iterator0_Dispose_m2972384857
rPe:_InputField_set_onValueChanged_m3658917578
Yub:__ZN10RectOffset8TransferI24GenerateTypeTreeTransferEEvRT_
Sji:_TlsClientSettings_get_ClientCertificate_m3139459118
GHd:_BinaryReader__ctor_m2266204403
uae:__ZN21InterfaceFuncInvoker5IiP22ByteU5BU5D_t4116647657iiS1_iE6InvokeEjP11Il2CppClassP12Il2CppObjectS1_iiS1_i
O$f:_Enumerator_VerifyState_m3047769867_AdjustorThunk
iub:__Z18Transfer_BlittableI24GenerateTypeTreeTransferLb1E5RectTIiEEvRK29SerializationCommandArgumentsR31RuntimeSerializationCommandInfo
anc:__ZN16GUIKeyboardStateD2Ev
mOc:__ZN2UI13CanvasManager19RemoveDirtyRendererEPNS_6CanvasEPNS_14CanvasRendererE
yuj:_isspace
aMe:_BinaryFormatter__ctor_m2620705134
EGb:__Z15GetIApplicationv
VTc:__ZN11UnityEngine15PlatformWrapper25GetGraphicsRendererStringEv
e8f:_UTF7Encoding_InternalGetBytes_m797138468
lV:__ZN11UnityEngine15CloudWebService17WebFileDownloaderINS0_20WebRequestRestClientENS0_23WebRequestRestHeaderMapEED2Ev
Qb:invoke_vi
ykd:_SmallXmlParser_HandleWhitespaces_m549588711
Osc:__ZN9JSONWrite8TransferI13dynamic_arrayI9BoundsIntLj4EEEEvRT_PKc17TransferMetaFlags
Ob:invoke_vd
pb:invoke_vf
Noi:_Regex_get_RightToLeft_m2317867572
p3:__ZNK10GameObject8IsActiveEv
Cfc:__Z34Component_Get_Custom_PropTransformP12Il2CppObject
NQh:__ZL83Canvas_t3310196443_CustomAttributesCacheGenerator_Canvas_get_rootCanvas_m3165691493P21CustomAttributesCache
rQh:__ZL67g_UnityEngine_PhysicsModule_Assembly_CustomAttributesCacheGeneratorP21CustomAttributesCache
Omi:_X509Certificate_get_SignatureAlgorithm_m122054440
OCa:__ZN18GfxFramebufferGLES23SetupDefaultFramebufferEPP17RenderSurfaceBaseS2_N2gl6HandleILNS3_10ObjectTypeE9EEE
P6h:_ReadOnlyCollection_1_get_Item_m3437922467_gshared
u7c:_DefaultControls_CreateDropdown_m3286664171
t6a:__ZN13ScreenManager18RequestOrientationE17ScreenOrientation
TLi:__ZN6il2cpp2vm5Class12SetupMethodsEP11Il2CppClass
Ecc:__Z39DeleteLastPathNameComponentWithAnySlashRKN4core12basic_stringIcNS_20StringStorageDefaultIcEEEE
lmc:__ZN10GUIManager14InitGUIManagerEv
WNg:__Z77RuntimeInvoker_Void_t1185182177_RegexOptionsU26_t1638284957_SByte_t1669577662PFvvEPK10MethodInfoPvPS4_
XYh:__ZL78LayoutRebuilder_t541313304_CustomAttributesCacheGenerator_U3CU3Ef__amU24cache1P21CustomAttributesCache
VUi:__ZNSt3__26vectorIP11Il2CppClassNS_9allocatorIS2_EEE26__swap_out_circular_bufferERNS_14__split_bufferIS2_RS4_EE
Aeg:_UInt16_Equals_m642257745
Gmd:_Array_System_Collections_IList_IndexOf_m3301661616
cTd:_AssemblyFileVersionAttribute__ctor_m3720707642
Y3d:_RuntimeResourceSet_CloneDisposableObjectIfPossible_m2725520898
xhd:_HMACSHA384_set_ProduceLegacyHmacValues_m76936446
uoc:__Z37Register_UnityEngine_GUIStyle_Cleanupv
Ma:invoke_iiifii
PZe:_SliderEvent__ctor_m3149452941
Sid:_DeriveBytes__cctor_m1212925033
f3c:_UIBehaviour_OnDestroy_m1613239498
V6b:__ZN8GUILayer12AddToManagerEv
cad:_Graphic_OnDisable_m1097930217
IUi:__ZN6il2cpp6icalls8mscorlib6System8MonoType13IsPointerImplEP20Il2CppReflectionType
Qi:_emscripten_glFramebufferRenderbuffer
IUb:__ZN19CullingGroupManager17CullAndSendEventsERK22SceneCullingParametersiRK13CullingOutputRK8JobFence
lEe:__ZN21InterfaceFuncInvoker3IP12Il2CppObjectP8String_tS1_PS3_E6InvokeEjP11Il2CppClassS1_S3_S1_S4_
hJi:_AnimationLayerMixerPlayable_GetHandle_m3854437798_AdjustorThunk
h1g:_List_1_ToArray_m2949058867_gshared
DIh:__ZL98DataUtility_t2196215967_CustomAttributesCacheGenerator_DataUtility_Internal_GetMinSize_m2628270685P21CustomAttributesCache
fRa:__ZN9Transform30EnsureTransformHierarchyExistsEv
ycg:_Type_FilterName_impl_m2651733559
und:_Array_GetValue_m116098292
$Rf:_Dictionary_2_System_Collections_Generic_ICollectionU3CSystem_Collections_Generic_KeyValuePairU3CTKeyU2CTValueU3EU3E_Add_m1448015620_gshared
wec:__Z46Register_UnityEngine_Application_get_isPlayingv
k4h:_Collection_1_ClearItems_m2182923889_gshared
_Zb:__ZNSt3__26vectorINS_4pairIN4core12basic_stringIcNS2_20StringStorageDefaultIcEEEEPK17MessageIdentifierEENS_9allocatorISA_EEE12__move_rangeEPSA_SE_SE_
hOb:__ZN14qsort_internal17MedianOfThreeSwapIP17RODataReplacement19ROSorterReplacementEEvT_S4_S4_T0_
Qpf:_String_Split_m3646115398
Jug:_RectOffset_ToString_m2007443979
JKi:__ZNK15dense_hashtableINSt3__24pairIK10KeyWrapperIPK22Il2CppGenericParameterEP11Il2CppClassEES6_N6il2cpp5utils11PointerHashIS4_EEN14dense_hash_mapIS6_S9_SE_NS6_14EqualsComparerINS0_8equal_toIS5_EEEENS0_9allocatorISA_EEE9SelectKeyESJ_SL_E3endEv
Acc:__ZN17TransformInternal36OnScaleChangedCalculateTransformTypeE15TransformAccess
kNa:__ZN17ArchiveFileSystem10ToAbsoluteEPKc
HUc:__ZN19UnityConnectService15GetPlayerUserIdEv
Efi:_InvokableCall_1__ctor_m2610016537_gshared
AMf:_Array_InternalArray__IndexOf_TisSByte_t1669577662_m4156538463_gshared
ir:__ZN7mecanim6CRCKeyENS_7eStringE
iac:__ZL12SetPrefValueRKN4core12basic_stringIcNS_20StringStorageDefaultIcEEEERK9PrefValue
ZOh:__ZL81GUIStyle_t3956901511_CustomAttributesCacheGenerator_GUIStyle_get_name_m2109418832P21CustomAttributesCache
eia:__ZL30ReconstructParamNamesFromTableIN9ShaderLab20SerializedSubProgram15MatrixParameterEEvRK14dense_hash_mapIiN4core17string_with_labelILi1EEE18SInt32HashFunctionNSt3__28equal_toIiEE13stl_allocatorINS8_4pairIKiS6_EEL18MemLabelIdentifier1ELi16EEERNS8_6vectorIT_NS8_9allocatorISL_EEEE
a9a:__ZN19ShaderPropertySheet20ReservePropertyCountEj
fkj:__ZN6il2cpp5utils11StringUtils6PrintfEPKcz
Z5i:__ZNSt3__26vectorIN6il2cpp8metadata18GenericArrayMethodENS_9allocatorIS3_EEE7reserveEj
Bma:__ZN15NameToObjectMapI6ShaderNSt3__23mapI4PPtrIS0_EN4core12basic_stringIcNS5_20StringStorageDefaultIcEEEENS1_4lessIS4_EENS1_9allocatorINS1_4pairIKS4_S9_EEEEEENS1_8multimapIS9_S4_NSA_IS9_EENSC_INSD_IKS9_S4_EEEEEEE4FindERSK_
f2a:__ZN24GenerateTypeTreeTransfer21TransferResourceImageE19ActiveResourceImagePKcR13StreamingInfoPvjiPKN5Unity4TypeE
r0h:_Array_Sort_TisVector3_t3722313464_m1030213405_gshared
zfj:__ZN6il2cpp2vm6Object5CloneEP12Il2CppObject
gNh:__ZL94TextGenerator_t3211863866_CustomAttributesCacheGenerator_TextGenerator_Dispose_cpp_m1826354328P21CustomAttributesCache
Srj:__ZN6il2cpp6icalls8mscorlib6System9Threading5Mutex20CreateMutex_internalEbP12Il2CppStringPb
KIj:_emscripten_glLinkProgram__wrapper
Qkg:_Coroutine_Finalize_m1957108547
Cxi:_KeyBuilder_Key_m2503211157
IXa:__ZNSt3__212__deque_baseI18ReflectionProbeJobNS_9allocatorIS1_EEED2Ev
Ez:__ZN11UnityEngine9Animation27DestroyAnimationSetBindingsEPNS0_20AnimationSetBindingsERN7mecanim6memory9AllocatorE
kia:__ZN15dense_hashtableINSt3__24pairIKiN4core17string_with_labelILi1EEEEEi18SInt32HashFunctionN14dense_hash_mapIiS5_S7_NS0_8equal_toIiEE13stl_allocatorIS6_L18MemLabelIdentifier1ELi16EEE9SelectKeyESA_SD_E13set_empty_keyERKS6_
Ekg:_Component_GetComponentInChildren_m388868270
AZf:_GenericEqualityComparer_1_Equals_m1705889345_gshared
oE:__ZN8Animator12CleanupClassEv
dvc:__Z13TransferFieldI8JSONReadLb0E27Converter_SimpleNativeClassI10RectOffsetEEvRK23StaticTransferFieldInfoR31RuntimeSerializationCommandInfoRT1_
Uad:__ZN21InterfaceFuncInvoker0IiE6InvokeEjP11Il2CppClassP12Il2CppObject
t9e:_FtpWebRequest__cctor_m699542155
$cj:__GLOBAL__sub_I_GenericMetadata_cpp
Slh:__ZL70RuntimeArray_CustomAttributesCacheGenerator_Array_SetValue_m3412648248P21CustomAttributesCache
s8e:_NameObjectCollectionBase_GetEnumerator_m3677320185
wVb:__Z24CalculateSpotLightBoundsffRK10Matrix4x4fR15SpotLightBounds
dji:_ListPool_1_Get_m3176656818_gshared
ADe:_Dictionary_2_TryGetValue_m3495031886_gshared
zZa:__ZNK13RenderTexture21GetShadowSamplingModeEv
yR:__ZN23CloudWebServicesManager23VirtualRedirectTransferER14SafeBinaryRead
u7e:_PKCS12_AddCertificate_m3857004455
UVe:_GetRayIntersectionAllCallback__ctor_m391992746
KEb:__Z19ShouldTransferFieldR32SerializationCommandQueueBuilder17ScriptingClassPtriR18TransferField_InfoRK20CoreScriptingClasses
twh:__ZL67RSACryptoServiceProvider_t2683512874_CustomAttributesCacheGeneratorP21CustomAttributesCache
m$g:__Z56RuntimeInvoker_Int32_t2950945753_SpriteState_t1362986479PFvvEPK10MethodInfoPvPS4_
gnf:_SecurityElement_IsValidText_m1346599242
f1b:__Z33PPtrToObjectDontLoadNoThreadCheckI8MaterialEPT_4PPtrIS1_E
MHa:__ZN26SinglePassStereoSupportExt21SetStereoMatrixCommonE21MonoOrStereoscopicEye24BuiltinShaderMatrixParamRK10Matrix4x4f
NK:__ZN5audio5mixer22UpdateAudioMixerMemoryERKNS0_18AudioMixerConstantERNS0_16AudioMixerMemoryEfPN4FMOD6SystemEf
hxc:__ZL21InitializeCachedStripPv
hRf:_Dictionary_2_System_Collections_Generic_ICollectionU3CSystem_Collections_Generic_KeyValuePairU3CTKeyU2CTValueU3EU3E_Add_m3652125112_gshared
Jyh:__ZL80Thread_t2300836069_CustomAttributesCacheGenerator_Thread_GetHashCode_m3479107071P21CustomAttributesCache
l8i:__ZN6il2cpp6icalls8mscorlib6System9Threading6Thread23GetCachedCurrentCultureEP12Il2CppThread
gY:__ZNK6Camera22GetWorldToCameraMatrixEv
Nyj:runPostSets
Pfj:__ZN6il2cpp2vm12GenericClass11IsValueTypeEP18Il2CppGenericClass
FDb:__ZN13MonoBehaviour7SetNameEPKc
JJe:_MethodDictionary_IsOverridenKey_m946843558
VJd:_FileStream_BeginRead_m2419864669
sii:_U3CStartU3Ec__Iterator0_MoveNext_m4270440387_gshared
BPi:__ZN10KeyWrapperIN6il2cpp5utils13dynamic_arrayIPK10Il2CppTypeLj4EEEEC2ERKS7_
AIb:__ZN17InstancingBatcher22FindCBUpperBoundKonstsEv
W7:__GLOBAL__sub_I_runtime_shaders_shaderimpl_0_cpp
Egb:__ZN18AwakeFromLoadQueue5ClearEv
rKd:_FileStream_SetLength_m99749826
ZTb:__ZNSt3__27__sort5IR15ReflProbeSorterPP15ReflectionProbeEEjT0_S6_S6_S6_S6_T_
tea:__ZN8Playable10DisconnectEPS_i
uk:_glGenTransformFeedbacks
aMa:__ZN13LoadOperationD2Ev
MQh:__ZL86Canvas_t3310196443_CustomAttributesCacheGenerator_Canvas_set_sortingLayerID_m861680532P21CustomAttributesCache
p2f:_List_1_System_Collections_ICollection_get_SyncRoot_m1990178029_gshared
dDd:_Int16_System_IConvertible_ToType_m3672347013
YUe:_Navigation_set_mode_m3709908198_AdjustorThunk
pdg:_Type_GetProperty_m4206634422
fld:_AttrListImpl_GetValue_m3657391095
vHb:__Z21PlayerStartFirstSceneb
z9g:_List_1_CheckIndex_m3933537097_gshared
R0a:__ZNSt3__27__sort5IRPFbRKNS_4pairIN9ShaderLab16FastPropertyNameEN18UnityPropertySheet11UnityTexEnvEEES8_EPS6_EEjT0_SD_SD_SD_SD_T_
$ua:__ZNK7ApiGLES18GetExtensionStringEv
_8g:_List_1_System_Collections_IList_IndexOf_m2444653486_gshared
DMg:__Z50RuntimeInvoker_SecurityCompressionType_t4242483129PFvvEPK10MethodInfoPvPS4_
EEj:_emscripten_glVertexAttrib1f__wrapper
hUf:_DefaultComparer_GetHashCode_m402448534_gshared
Kkb:__ZNK12HandlerChain4SizeERK13FileEntryData
Yo:FUNCTION_TABLE_iiiiiiiii
yxe:_Enumerator_Dispose_m1360775770_AdjustorThunk
_bh:_Collection_1_ClearItems_m1096166028_gshared
_7h:_ReadOnlyCollection_1_System_Collections_Generic_ICollectionU3CTU3E_Remove_m4177779688_gshared
lsd:_Char_IsLetter_m3996985877
pah:_Queue_1_Peek_m2302800625_gshared
nlh:__ZL51Delegate_t1188392813_CustomAttributesCacheGeneratorP21CustomAttributesCache
sCh:__ZL56WeakReference_t1334886716_CustomAttributesCacheGeneratorP21CustomAttributesCache
L0g:_List_1_AddCollection_m4263017124_gshared
Rmj:_GC_allochblk
eHe:__ZN21InterfaceFuncInvoker1IbP19Context_t3285446944E6InvokeEjP11Il2CppClassP12Il2CppObjectS1_
Ogb:__Z15UnloadGameScenev
gPf:_Array_InternalArray__ICollection_CopyTo_TisKeyframe_t4206410242_m2132255743_gshared
jJj:_glCheckFramebufferStatus__wrapper
Kbd:_Image__ctor_m2551076292
rCe:_Dictionary_2_System_Collections_ICollection_CopyTo_m3143696177_gshared
o1i:__ZN15dense_hashtableINSt3__24pairIK10KeyWrapperIPK14Il2CppAssemblyEPK22Il2CppMonoAssemblyNameEES6_N6il2cpp5utils11PointerHashIS4_EEN14dense_hash_mapIS6_SA_SF_NS6_14EqualsComparerINS0_8equal_toIS5_EEEENS0_9allocatorISB_EEE9SelectKeyESK_SM_E5clearEv
BEg:__Z103RuntimeInvoker_Void_t1185182177_Int32_t2950945753_Int32_t2950945753_Int32_t2950945753_SByte_t1669577662PFvvEPK10MethodInfoPvPS4_
SD:__ZN16MecanimAnimationD0Ev
Tkc:__Z36Renderer_Get_Custom_PropSortingOrderP12Il2CppObject
DZi:__ZNK15dense_hashtableINSt3__24pairIK10KeyWrapperIPK10Il2CppTypeEjEES6_N6il2cpp8metadata14Il2CppTypeHashEN14dense_hash_mapIS6_jSB_NS6_14EqualsComparerINSA_26Il2CppTypeEqualityComparerEEENS0_9allocatorIS8_EEE9SelectKeyESF_SH_E13find_positionERS7_
pZa:__ZN7Texture5ResetEv
Ktb:__Z18Transfer_BlittableI24GenerateTypeTreeTransferLb0E8Vector2fEvRK29SerializationCommandArgumentsR31RuntimeSerializationCommandInfo
Iwh:__ZL54SHA384Managed_t74158575_CustomAttributesCacheGeneratorP21CustomAttributesCache
MGe:_Context_get_HasDynamicSinks_m3952434387
u6f:_Latin1Encoding_GetByteCount_m1145650505
ztb:__Z18Transfer_BlittableI24GenerateTypeTreeTransferLb1EhEvRK29SerializationCommandArgumentsR31RuntimeSerializationCommandInfo
Mmc:__ZN8GUIState18CycleKeyboardFocusERNSt3__26vectorIP6IDListNS0_9allocatorIS3_EEEEb
tAb:__Z13TransferFieldI18StreamedBinaryReadILb1EELb0E16Converter_StringEvRK23StaticTransferFieldInfoR31RuntimeSerializationCommandInfoRT1_
XUf:_DefaultComparer_GetHashCode_m177499767_gshared
_ab:__ZN10VertexData10DeallocateEv
dXi:__ZNSt3__214__split_bufferIiRNS_9allocatorIiEEEC2EjjS3_
fec:__ZNK16TypeTreeIterator10ByteOffsetEv
Xzj:dynCall_iiifii
pda:__ZnwjRKSt9nothrow_t
PC:__ZN8Animator11ClearObjectEv
Hdi:_Nullable_1_GetHashCode_m4232053575_gshared
$ld:_ApplicationException__ctor_m2557611022
K$a:__ZN14SafeBinaryRead19TransferSTLStyleMapINSt3__23mapI39DeprecatedFastPropertyNameSerializationN18UnityPropertySheet11UnityTexEnvENS1_4lessIS3_EENS1_9allocatorINS1_4pairIKS3_S5_EEEEEEEEvRT_17TransferMetaFlags
D6g:_List_1_CheckMatch_m579516778_gshared
jqd:_Buffer_ByteLengthInternal_m1388208719
ySh:__ZL92PointerEventData_t3807901092_CustomAttributesCacheGenerator_U3CworldNormalU3Ek__BackingFieldP21CustomAttributesCache
IOf:_Array_InternalArray__ICollection_CopyTo_TisInt64_t3736567304_m2845057751_gshared
aec:__Z35UnregisterSerializationCacheBuilderPFv17ScriptingClassPtrR23CachedSerializationDataRbE
Dkh:__ZL52ICloneable_t724424198_CustomAttributesCacheGeneratorP21CustomAttributesCache
vGd:_Int64_System_IConvertible_ToUInt32_m109903525_AdjustorThunk
Z3:__Z30GetBuiltinVectorParamArraySize24BuiltinShaderVectorParam
mPf:_Array_InternalArray__ICollection_CopyTo_TisUICharInfo_t75501106_m4268526610_gshared
JYi:__ZNSt3__218uninitialized_copyIPNS_4pairIK10KeyWrapperINS1_IPK14Il2CppAssemblyP11Il2CppClassEEEjEESC_EET0_T_SE_SD_
iZa:__ZN13RenderTextureC2E10MemLabelId18ObjectCreationMode
tDd:_Int32_GetFormatException_m519586683
Rxh:__ZL46StringBuilder_t_CustomAttributesCacheGeneratorP21CustomAttributesCache
r$f:_Enumerator_MoveNext_m1131351993_gshared
tSd:_RankException__ctor_m2226473861
i3h:_Array_InternalArray__get_Item_TisVector2_t2156229523_m2502961026_gshared
x6:__ZN21RendererUpdateManager11AddRendererER8Renderer
J2b:__Z13RegisterClassI15ResourceManagerEvv
OAi:_AudioConfigurationChangeHandler_Invoke_m1233557945
qob:__Z35Transfer_Blittable_FixedBufferFieldI14SafeBinaryReadsEvRK29SerializationCommandArgumentsR31RuntimeSerializationCommandInfo
dab:__ZN14SafeBinaryRead21TransferSTLStyleArrayI13dynamic_arrayIfLj4EEEEvRT_17TransferMetaFlags
Zzd:_Convert_ToDateTime_m3802186295
gkj:__ZN6il2cpp5utils11StringUtils11Utf16ToUtf8EPKDs
nfb:__ZN18StreamedBinaryReadILb0EE21TransferSTLStyleArrayINSt3__26vectorIN15ResourceManager10DependencyE13stl_allocatorIS5_L18MemLabelIdentifier52ELi16EEEEEEvRT_17TransferMetaFlags
tgg:_UInt64_CompareTo_m1614517204_AdjustorThunk
kUc:__ZN11UnityEngine15PlatformWrapper20IsRootedOrJailbrokenEv
eLb:__ZZ23InitPlayerLoopCallbacksvEN52PreLateUpdateScriptRunBehaviourLateUpdateRegistrator7ForwardEv
rVb:__Z33IntersectAABBPlaneBoundsOptimizedRK4AABBPKN4math7_float4Ei
xYb:__ZN19ScriptingInvocation6InvokeI28ScriptingSystemTypeObjectPtrEET_P21ScriptingExceptionPtrb
Zpa:__ZN9GfxDevice19EndGeometryJobFrameEv
yvi:_GUILayoutUtility_Layout_m1159951704
AOe:_InputField_get_shouldActivateOnSelect_m3055465770
GUf:_DefaultComparer_Equals_m2269092119_gshared
ttb:__ZN27Converter_SimpleNativeClassI17AnimationCurveTplIfEE17ScriptingToNativeER18ScriptingObjectPtrPS1_
xcg:_Type__cctor_m2371893800
Dsj:__ZN6il2cpp8metadata24Il2CppGenericInstCompare7CompareERK10KeyWrapperIPK17Il2CppGenericInstES8_
cOi:__ZNK15dense_hashtableINSt3__24pairIK10KeyWrapperIPK19Il2CppGenericMethodEPK26Il2CppGenericMethodIndicesEES6_N6il2cpp8metadata23Il2CppGenericMethodHashEN14dense_hash_mapIS6_SA_SE_NS6_14EqualsComparerINSD_26Il2CppGenericMethodCompareEEENS0_9allocatorISB_EEE9SelectKeyESI_SK_E5beginEv
G$c:_ExecuteEvents_Execute_m3049310229
xt:__ZN27AnimationLayerMixerPlayable21UpdateLayerParametersEv
ZIh:__ZL84Object_t631007953_CustomAttributesCacheGenerator_Object_DestroyImmediate_m2288369078P21CustomAttributesCache
yYd:__ZN21InterfaceFuncInvoker1IiP12MemberInfo_tE6InvokeEjP11Il2CppClassP12Il2CppObjectS1_
Xmd:_Array_get_IsSynchronized_m3066873806
bw:__ZN7mecanim9animation16CopyMotionOutputEPKNS0_18AnimationNodeStateEPS1_bbRKNS_6bitsetILj83EEE
S0b:__ZNK17AnimationCurveTplIfE8EvaluateEfPNS0_5CacheE
iKb:__Z31ManagerContextInitializeClassesv
h8h:_ReadOnlyCollection_1_System_Collections_IList_Contains_m2650112051_gshared
UGf:_Array_get_swapper_TisVector3_t3722313464_m1221246401_gshared
R7h:_ReadOnlyCollection_1_CopyTo_m1950082901_gshared
$Ec:_ft_smooth_transform
vFc:_UNITY_FT_List_Finalize
ksj:__ZN6il2cpp6icalls8mscorlib6System7Runtime8Remoting10Activation18ActivationServices34AllocateUninitializedClassInstanceEP20Il2CppReflectionType
kPb:__Z20LightAttenuateApproxRKfS0_
n7:__ZN9Scripting30SetCachedPtrOnScriptingWrapperE18ScriptingObjectPtrP6Object
txd:_HashKeys_get_IsSynchronized_m174400341
TW:__ZN17LowLevelAllocator6MallocEj
JWg:__Z57RuntimeInvoker_Int32_t2950945753_KeyValuePair_2_t71524366PFvvEPK10MethodInfoPvPS4_
ghi:_UnityEvent_1__ctor_m1789019280_gshared
Ugf:_RepeatContext_get_IsMinimum_m3640286252
PBg:__Z64RuntimeInvoker_Boolean_t97287965_RuntimeObject_Int32_t2950945753PFvvEPK10MethodInfoPvPS4_
ime:_InternalEnumerator_1__ctor_m4055378331_AdjustorThunk
cOe:_ObjectRecord_ChainFixup_m1889316362
LUa:__ZN18BlockRangeInternal16PopLastNodeIndexEP10BlockRangeji
Blj:__ZN6il2cpp2vm13CachedCCWBaseINS0_13ManagedObjectEE6AddRefEv
N_i:__ZN6il2cpp2gc19AppendOnlyGCHashMapINSt3__24pairIPK11Il2CppImageP11Il2CppClassEEP22Il2CppReflectionModule17ReflectionMapHashIS9_ENS2_8equal_toIS9_EEE10CopyValuesEPv
V2c:_TouchInputModule_UpdateModule_m2582897964
z9a:__ZN4MeshD0Ev
iZc:__ZL42RequestRecreateEyeTexturesBeforeNextUpdatev
FEa:__ZNK6Camera20IsCurrentlyRenderingEv
kv:__ZN21AnimationClipPlayable23ProcessRootMotionNoClipEPK35AnimationPlayableEvaluationConstantPK32AnimationPlayableEvaluationInputP33AnimationPlayableEvaluationOutput
$Qc:__Z36CanvasRenderer_CUSTOM_SetPopMaterialP12Il2CppObjectS0_i
Grc:__Z18Transfer_BlittableI9JSONWriteLb0EdEvRK29SerializationCommandArgumentsR31RuntimeSerializationCommandInfo
ypf:_String_System_IConvertible_ToDouble_m3740733360
ESa:__ZN6Camera8TransferI19StreamedBinaryWriteILb0EEEEvRT_
Pwf:_DBNull_System_IConvertible_ToSByte_m3533624679
Tuj:_wctomb
bsd:_Char_CompareTo_m42489266
jYg:__Z67RuntimeInvoker_Void_t1185182177_Int32_t2950945753_Double_t594665363PFvvEPK10MethodInfoPvPS4_
ifc:__Z27Camera_CUSTOM_GetAllCamerasP11Il2CppArray
GDb:__ZNK13MonoBehaviour25GetNeedsPerObjectTypeTreeEv
CAb:__Z35Transfer_Blittable_FixedBufferFieldI18StreamedBinaryReadILb0EEiEvRK29SerializationCommandArgumentsR31RuntimeSerializationCommandInfo
Wc:___cxa_rethrow
y2d:_ParameterInfo_GetCustomAttributes_m2376494592
jtc:__Z18Transfer_BlittableI8JSONReadLb1EhEvRK29SerializationCommandArgumentsR31RuntimeSerializationCommandInfo
W9c:_Graphic_get_canvasRenderer_m315509948
Deh:_Collection_1_System_Collections_IList_Contains_m3397768605_gshared
$Ue:_Navigation_set_selectOnUp_m827629728_AdjustorThunk
UPg:__Z90RuntimeInvoker_Void_t1185182177_Int64_t3736567304_Int32_t2950945753_RuntimeObject_IntPtr_tPFvvEPK10MethodInfoPvPS4_
KEj:_glBindRenderbuffer__wrapper
q1h:_Dictionary_2_Do_CopyTo_TisInt32_t2950945753_TisInt32_t2950945753_m3384108308_gshared
$bc:__ZN10systeminfo23SupportsLocationServiceEv
HEf:_CultureInfo_construct_internal_locale_from_name_m3254739477
ufe:_RSASslSignatureDeformatter_VerifySignature_m1061897602
V5e:_RSAManaged_remove_KeyGenerated_m2046909903
aid:_RandomNumberGenerator_Create_m4162970280
TPf:_Array_InternalArray__Insert_TisLabelFixup_t858502054_m171542753_gshared
Mse:_InternalEnumerator_1_System_Collections_IEnumerator_get_Current_m3539708496_AdjustorThunk
ylb:__ZN20LocalFileSystemPosix4ReadER13FileEntryDatayyPvPy
ISb:__ZNSt3__211__sift_downIRN23ForwardShaderRenderLoop18RenderObjectSorterILb0EEEP21ForwardRenderPassDataEEvT0_S7_T_NS_15iterator_traitsIS7_E15difference_typeES7_
Tlf:_SecurityPermission__ctor_m1462427327
jBj:dynCall_iiiiiiffiiiiiiiiiffffiiii
VDb:__ZN13MonoBehaviour5DoGUIENS_13GUILayoutTypeEii
AEe:_ChannelData_get_ClientProviders_m594662942
cqi:_QuickSearch_GetChar_m1297698557
SKa:__ZNK12TLSAllocatorI14StackAllocatorE8ContainsEPKv
Ncb:__ZN11TimeManager8TransferI18StreamedBinaryReadILb0EEEEvRT_
TAg:__Z68RuntimeInvoker_Boolean_t97287965_Int16_t2552820387_SByte_t1669577662PFvvEPK10MethodInfoPvPS4_
mvf:_DateTime__ParseEnum_m253019513
bCd:_Convert_ToUInt32_m2194577773
Cmf:_PermissionSet__ctor_m2328457660
M6:__ZN15dense_hashtableINSt3__24pairIKyP17VertexDeclarationEEy14GfxGenericHashIyEN14GfxDoubleCacheIyS4_S7_NS0_8equal_toIyEEN31GfxDoubleCacheConcurrencyPolicy11LocklessGetE42GfxDoubleCacheDefaultEmptyDeletedGeneratorIyEE9SelectKeyESA_13stl_allocatorIS5_L18MemLabelIdentifier24ELi16EEE12resize_deltaEjj
cxd:_Hashtable_Remove_m4032631466
ouc:__Z18Transfer_BlittableI8JSONReadLb1EyEvRK29SerializationCommandArgumentsR31RuntimeSerializationCommandInfo
oDh:__ZL91RSASslSignatureFormatter_t2709678514_CustomAttributesCacheGenerator_U3CU3Ef__switchU24map16P21CustomAttributesCache
T1a:__ZN7Texture25ReloadFromStorageIfNeededEPvb
WLf:_Array_InternalArray__IndexOf_TisBoolean_t97287965_m1161209222_gshared
urj:__ZN6il2cpp2os12Cryptography24OpenCryptographyProviderEv
qQh:__ZL55RaycastHit2D_t2279581989_CustomAttributesCacheGeneratorP21CustomAttributesCache
Jud:_SynchronizedArrayListWrapper_Clear_m2191301493
xGc:_Update_Max
z7i:__ZN6il2cpp6icalls8mscorlib6SystemL15ThrowNoWideningEv
b1b:__ZNK23TransformChangeDispatch24GetChangeMaskForInterestENS_12InterestTypeE
D8b:__ZN8Playable5PauseEv
Vjc:__Z45Transform_CUSTOM_INTERNAL_CALL_TransformPointP12Il2CppObjectRK8Vector3fRS1_
TXd:_GenericTypeParameterBuilder_InvokeMember_m1647304778
Hbd:_HorizontalOrVerticalLayoutGroup_set_childControlWidth_m3261460516
$$a:__ZNSt3__26__treeINS_12__value_typeI39DeprecatedFastPropertyNameSerializationfEENS_19__map_value_compareIS2_S3_NS_4lessIS2_EELb1EEENS_9allocatorIS3_EEE7destroyEPNS_11__tree_nodeIS3_PvEE
rEc:_tt_cmap4_char_index
C3c:_AspectRatioFitter_GetParentSize_m3159144324
bof:_SecurityFrame_get_Assembly_m2874566710
uje:_InternalEnumerator_1__ctor_m2336656763_AdjustorThunk
Q9g:_Enumerator_System_Collections_IEnumerator_Reset_m1487823313_gshared
Ukb:__ZNK12HandlerChain8IsHiddenERK13FileEntryData
F0g:_List_1_System_Collections_IList_get_IsFixedSize_m1752888098_gshared
Jsb:__ZL26Transfer_SimpleNativeClassI17RemapPPtrTransfer10RectOffsetLb0EEvRK29SerializationCommandArgumentsR31RuntimeSerializationCommandInfo
rLc:__Z14ValidateFormatR13dynamic_arrayIN20TextRenderingPrivate16TextFormatChangeELj4EE
RYe:_ScrollRect_CalculateLayoutInputVertical_m3155297482
UFd:_Int32_ToString_m2507389746_AdjustorThunk
Yyf:_Decimal_op_Explicit_m438967917
Iuh:__ZL55IChannelInfo_t3866172133_CustomAttributesCacheGeneratorP21CustomAttributesCache
BJi:_AnimatorControllerPlayable_SetHandle_m2260644454_AdjustorThunk
jCf:_Environment_get_SocketSecurityEnabled_m190813817
sPg:__Z53RuntimeInvoker_Void_t1185182177_Vector4U26_t200349727PFvvEPK10MethodInfoPvPS4_
BLh:__ZL57UnityEventBase_t3960448221_CustomAttributesCacheGeneratorP21CustomAttributesCache
BLd:_NullStream_Flush_m3382897993
Eja:__ZNSt3__26vectorIN9ShaderLab20SerializedSubProgram13BufferBindingENS_9allocatorIS3_EEEC2ERKS6_
lPe:_InputField_set_selectionColor_m2084640295
o1h:_Dictionary_2_Do_CopyTo_TisKeyValuePair_2_t2401056908_TisKeyValuePair_2_t2401056908_m676905794_gshared
V3:__ZNK9ShaderLab20ShaderBlendStateDesc15ToGfxBlendStateEPK19ShaderPropertySheetS3_R13GfxBlendState
oFe:_ConfigHandler_OnIgnorableWhitespace_m278399491
Wzh:__ZL77Convert_t2465617642_CustomAttributesCacheGenerator_Convert_ToInt64_m260173354P21CustomAttributesCache
iz:__ZN11UnityEngine9AnimationL22GenericBindingCallbackEPvS1_i
cGc:_Compute_Point_Displacement
doa:__ZN9ShaderLab9IntShaderC2Ev
kdi:_Func_3__ctor_m1375075958_gshared
PUi:__ZN6il2cpp6icalls8mscorlib6SystemL9IsPrivateEPK9EventInfo
lrj:__ZN6il2cpp6icalls8mscorlib6System10Reflection4Emit11TypeBuilder20setup_internal_classEP27Il2CppReflectionTypeBuilderS7_
Tac:__Z18TransformPoints3x4RK10Matrix4x4fPK8Vector3fjPS2_ji
YCh:__ZL72PKCS12_t4101533061_CustomAttributesCacheGenerator_U3CU3Ef__switchU24mapCP21CustomAttributesCache
tMf:_Array_InternalArray__IndexOf_TisILTokenInfo_t2325775114_m2602704009_gshared
UHh:__ZL52Matrix4x4_t1817901843_CustomAttributesCacheGeneratorP21CustomAttributesCache
qRf:_Dictionary_2_System_Collections_IDictionary_GetEnumerator_m972834308_gshared
r4g:_List_1_System_Collections_ICollection_get_IsSynchronized_m967177678_gshared
j7f:_StringBuilder_AppendFormat_m3255666490
iSd:_OverflowException__ctor_m4029085969
I_d:_TypeBuilder_GetGenericArguments_m2872156836
CJe:_MethodCall_get_Uri_m1720935531
tKi:__ZN13Il2CppHashMapIPK22Il2CppGenericParameterP11Il2CppClassN6il2cpp5utils11PointerHashIS1_EENSt3__28equal_toIS2_EENS9_9allocatorINS9_4pairIK10KeyWrapperIS2_ES4_EEEEEC2EjRKS8_RKSB_
i5e:_KeyPairPersistence_Remove_m1876145547
AMa:__Z15CreateDirectoryRKN4core12basic_stringIcNS_20StringStorageDefaultIcEEEE
xYa:__Z21CalculateGlobalMatrix23TransformAccessReadOnly
J_d:_TypeBuilder_GetGenericTypeDefinition_m1632720438
hHf:_Array_InternalArray__ICollection_Contains_TisLink_t544317964_m163190451_gshared
dwf:_DateTimeOffset_System_IComparable_CompareTo_m176229495_AdjustorThunk
Tog:_ManagedStreamHelpers_ValidateLoadFromStream_m580138133
tPh:__ZL104GUIUtility_t1868551600_CustomAttributesCacheGenerator_GUIUtility_EndContainerGUIFromException_m530164245P21CustomAttributesCache
Scb:__ZNK13BuildSettings22GetTypeVirtualInternalEv
j9c:_FontData_get_alignByGeometry_m2805576119
dne:_InternalEnumerator_1__ctor_m1486034688_gshared
Nxb:__Z35Transfer_Blittable_FixedBufferFieldI18StreamedBinaryReadILb1EEhEvRK29SerializationCommandArgumentsR31RuntimeSerializationCommandInfo
bzh:__ZL56AppDomainSetup_t123196401_CustomAttributesCacheGeneratorP21CustomAttributesCache
F7g:_List_1_CheckIndex_m2250397830_gshared
H2b:__Z13RegisterClassI14RenderSettingsEvv
lsg:_PlayableOutput_GetHandle_m777137769_AdjustorThunk
KGi:_FontTextureRebuildCallback_EndInvoke_m3732346867
z:tempBigIntI
rhf:_Interval_get_Empty_m3617514670
i_g:__Z31RuntimeInvoker_Mark_t3471605523PFvvEPK10MethodInfoPvPS4_
QSd:_Assembly_GetName_m981771927
qEh:__ZL53RegexOptions_t92845595_CustomAttributesCacheGeneratorP21CustomAttributesCache
zx:__ZN7mecanim12statemachine24CreateStateMachineOutputEPKNS0_20StateMachineConstantEjRNS_6memory9AllocatorE
Nfj:__ZN6il2cpp2vm12GenericClass8GetClassEP18Il2CppGenericClass
yqa:__ZNK9GfxDevice27GetActiveRenderSurfaceWidthEv
aEi:__ZL25UnresolvedVirtualCall_161P12Il2CppObject20UICharInfo_t75501106S1_PK10MethodInfo
ATh:__ZL114StandaloneInputModule_t2760469101_CustomAttributesCacheGenerator_StandaloneInputModule_ForceAutoSelect_m2837047882P21CustomAttributesCache
XTc:__ZN11UnityEngine15PlatformWrapper28GetCleanGraphicsFixedVersionEv
MUe:_MaskableGraphic_RecalculateClipping_m1772937317
fOd:_UnmanagedMemoryStream_SetLength_m3752964620
pmb:__ZN16MemoryFileSystem5WriteER13FileEntryDatayyPvPy
oge:_SslStreamBase_RaiseLocalPrivateKeySelection_m4112368540
LXi:__ZN6il2cpp2vm4Type7GetTypeEPK10Il2CppType
CKc:_open_face_PS_from_sfnt_stream
Gne:_InternalEnumerator_1_get_Current_m165106323_AdjustorThunk
V7f:_UTF32Encoding_GetByteCount_m3610769032
rAa:__ZN6prcoreL17RemapGenericFloatI18TexFormatRGBAFloat17TexFormatRGBAHalfEEvPKNS_9InnerInfoE
ILb:__Z16FindCameraStacksRKNSt3__24listI4PPtrI6CameraENS_9allocatorIS3_EEEERNS_6vectorI11CameraStackNS4_ISA_EEEE
Woi:_MatchCollection_CopyTo_m3807326147
q4a:__ZN10GISettings8TransferI14SafeBinaryReadEEvRT_
un:FUNCTION_TABLE_vifff
JXh:__ZL54Text_t1901882714_CustomAttributesCacheGenerator_m_TextP21CustomAttributesCache
Rhd:_MD5CryptoServiceProvider__ctor_m3271163125
dZb:__ZN19CustomRenderTexture12ClearGPUDataEv
Pii:_ListPool_1_Get_m2875520964_gshared
myh:__ZL95UnicodeEncoding_t1959134050_CustomAttributesCacheGenerator_UnicodeEncoding_GetBytes_m3223155660P21CustomAttributesCache
yZa:__ZN13RenderTexture13ApplySettingsEv
dNe:_ObjectReader_RegisterObject_m1853376334
uZd:_ModuleBuilderTokenGenerator_GetToken_m2588853565
vpd:_Boolean_System_IConvertible_ToDecimal_m3176932461_AdjustorThunk
Ue:_JS_Sound_SetListenerPosition
mn:FUNCTION_TABLE_fiffi
VOg:__Z54RuntimeInvoker_Int32_t2950945753_LayerMask_t3493934918PFvvEPK10MethodInfoPvPS4_
xYe:_ScrollRect_OnInitializePotentialDrag_m3139711961
TKa:__ZNK12TLSAllocatorI14StackAllocatorE10GetPtrSizeEPKv
b8h:_ReadOnlyCollection_1_System_Collections_Generic_IListU3CTU3E_set_Item_m711370667_gshared
ucj:__ZNK15dense_hashtableINSt3__24pairIK10KeyWrapperINS1_IPKcS4_EEEiEES6_24NamespaceAndNamePairHashN14dense_hash_mapIS6_iS9_NS6_14EqualsComparerI26NamespaceAndNamePairEqualsEENS0_9allocatorIS8_EEE9SelectKeyESD_SF_E10test_emptyERK24dense_hashtable_iteratorIS8_S6_S9_SH_SD_SF_E
QTd:_Default_check_arguments_with_score_m3467814020
nGj:_glGetActiveUniform__wrapper
JMd:_StreamWriter_LowLevelWrite_m1081676583
v1f:_Enumerator__ctor_m3875432026_AdjustorThunk
Pda:__ZZN15DirectorManager15InitializeClassEvEN45FixedUpdateDirectorFixedSampleTimeRegistrator7ForwardEv
Kib:__ZNK8Material16MarkDependenciesER27GarbageCollectorThreadState
WZe:_Slider_set_handleRect_m1101657556
rwf:_DateTimeOffset_ToString_m3985341516_AdjustorThunk
Sih:_Collection_1_System_Collections_IList_Contains_m3348135931_gshared
Jrc:__ZL17Transfer_GUIStyleI9JSONWriteLb0EEvRK29SerializationCommandArgumentsR31RuntimeSerializationCommandInfo
cQb:__Z28GetHaloVertexPositionsStereoP8Vector3fRKS_S2_f
gBa:__ZN6prcoreL27StretchGenericFloatBilinearI15TexFormatRGHalfEEvPKNS_9InnerInfoE
AFi:__ZL25UnresolvedVirtualCall_241P12Il2CppObjectiPK10MethodInfo
S7:__GLOBAL__sub_I_runtime_misc_0_cpp
uCe:_Dictionary_2_System_Collections_IDictionary_GetEnumerator_m751864982_gshared
PFf:_SortKey_GetHashCode_m3547067087
_Ab:__Z18Transfer_BlittableI18StreamedBinaryReadILb0EELb1E9BoundsIntEvRK29SerializationCommandArgumentsR31RuntimeSerializationCommandInfo
FXh:__ZL71SpriteState_t1362986479_CustomAttributesCacheGenerator_m_DisabledSpriteP21CustomAttributesCache
mcf:_PublicKey_DecodeDSA_m3490622362
xic:__Z49Register_UnityEngine_Resources_GetBuiltinResourcev
mdg:_Type_GetMethod_m1479779718
eEc:_tt_cmap10_char_index
eki:_TlsException__ctor_m3242533711
h7d:_BitConverterLE_GetUIntBytes_m795219058
C5:__Z18GetITerrainManagerv
ayd:_SortedList__ctor_m3676552745
XKi:__ZN15dense_hashtableINSt3__24pairIK10KeyWrapperIPK22Il2CppGenericParameterEP11Il2CppClassEES6_N6il2cpp5utils11PointerHashIS4_EEN14dense_hash_mapIS6_S9_SE_NS6_14EqualsComparerINS0_8equal_toIS5_EEEENS0_9allocatorISA_EEE9SelectKeyESJ_SL_E3endEv
dNi:__ZNK15dense_hashtableINSt3__24pairIK10KeyWrapperIPK11Il2CppClassEPKcEES6_N6il2cpp5utils11PointerHashIS3_EEN14dense_hash_mapIS6_S9_SE_NS6_14EqualsComparerINS0_8equal_toIS5_EEEENS0_9allocatorISA_EEE9SelectKeyESJ_SL_E8min_sizeEjj
fqb:__Z35Transfer_Blittable_SingleValueFieldI14SafeBinaryReadjEvRT_R17GeneralMonoObjectRK23StaticTransferFieldInfo
SP:__ZN11AudioSource24ClearExtensionPropertiesE12PropertyName
n_h:_Array_InternalArray__set_Item_TisColor32_t2600501292_m1891325855_gshared
Kla:__ZN9ShaderLab22SerializedBindChannels8TransferI19StreamedBinaryWriteILb0EEEEvRT_
oDg:__Z52RuntimeInvoker_Decimal_t2948259380_Int32_t2950945753PFvvEPK10MethodInfoPvPS4_
Vqb:__ZN15SerializeTraitsI5RectTIiEE8TransferI14SafeBinaryReadEEvRS1_RT_
onc:__ZN5IMGUI20MoveWindowFromLayoutER8GUIStateiRK5RectTIfE
jKg:__Z50RuntimeInvoker_SByte_t1669577662_Int64_t3736567304PFvvEPK10MethodInfoPvPS4_
KAc:_UNITY_FT_Stream_ReadUShort
igh:_Collection_1_System_Collections_IList_get_Item_m1677338752_gshared
$gc:__Z51Register_UnityEngine_GUILayer_INTERNAL_CALL_HitTestv
Pha:__ZNSt3__26__treeINS_12__value_typeIN4core12basic_stringIcNS2_20StringStorageDefaultIcEEEES6_EENS_19__map_value_compareIS6_S7_NS_4lessIS6_EELb1EEE13stl_allocatorIS7_L18MemLabelIdentifier1ELi16EEE7destroyEPNS_11__tree_nodeIS7_PvEE
SVd:_DerivedType_IsAssignableFrom_m1623073368
KYf:_EqualityComparer_1_get_Default_m1095255266_gshared
gwa:__Z13IsDepthFormat14GraphicsFormat
deb:__ZN12AspectRatios8TransferI24GenerateTypeTreeTransferEEvRT_
ZPd:_MonoType_GetFields_m4176012508
Hwc:__Z12FormatBufferPciPKcz
Usf:_CurrentSystemTimeZone_GetTimeZoneData_m2641861607
UIc:__ZN15SerializeTraitsI13dynamic_arrayI4PPtrIN13TextRendering4FontEELj4EEE19ResizeSTLStyleArrayERS5_i
LWf:_EqualityComparer_1_System_Collections_IEqualityComparer_GetHashCode_m3423304513_gshared
Yph:__ZL57FileSystemInfo_t3745885336_CustomAttributesCacheGeneratorP21CustomAttributesCache
iLi:__ZN6il2cpp2vm5Class13GetArrayClassEP11Il2CppClassj
n2c:_StandaloneInputModule_set_inputActionsPerSecond_m4057208843
HHb:__ZN19RuntimeSceneManager18LoadSceneAsyncIntoER10UnitySceneRKN4core12basic_stringIcNS2_20StringStorageDefaultIcEEEENS_11LoadingModeEb
BNd:_TextWriter_Write_m164803641
crc:__Z35Transfer_Blittable_FixedBufferFieldI9JSONWritetEvRK29SerializationCommandArgumentsR31RuntimeSerializationCommandInfo
vnc:__ZN11IMGUIModule12AddGUIScriptER8ListNodeI13MonoBehaviourE
nb:invoke_difi
vvi:_GUILayoutUtility_BeginWindow_m2240221150
iFj:_glDeleteSamplers__wrapper
K4e:_KeyGeneratedEventHandler_EndInvoke_m1628355235
H7e:_HybridDictionary_set_Item_m2997363718
pQb:__ZN29MotionVectorRenderLoopScratch15ThreadedCleanupEv
YLa:__ZNSt3__26__treeIiNS_4lessIiEE13stl_allocatorIiL18MemLabelIdentifier1ELi16EEE7destroyEPNS_11__tree_nodeIiPvEE
ite:_InternalEnumerator_1_get_Current_m1477715453_AdjustorThunk
uja:__ZN15SerializeTraitsI13dynamic_arrayItLj2EEE19ResizeSTLStyleArrayERS1_i
lgg:_UInt64_System_IConvertible_ToUInt32_m2784653358
Nva:__ZN21GLESGpuProgramApplier11ApplyVectorERKN20GpuProgramParameters14ValueParameterEPK8Vector4ft
NUb:__Z17PrepareSceneNodesP11CullResults
dBa:__ZN6prcoreL27StretchGenericFloatBilinearI18TexFormatRGBAFloatEEvPKNS_9InnerInfoE
$aj:__ZN15dense_hashtableINSt3__24pairIK10KeyWrapperIP14Il2CppIUnknownEjEES5_N6il2cpp5utils11PointerHashIS3_EEN14dense_hash_mapIS5_jSB_NS5_14EqualsComparerINS0_8equal_toIS4_EEEENS0_9allocatorIS7_EEE9SelectKeyESG_SI_E12expand_arrayEjN21dense_hash_map_traits17integral_constantIbLb0EEE
jed:_SByte_System_IConvertible_ToDecimal_m2548745278
Kxc:_cff_size_done
mVb:__ZN29ExtractProjectionPlanesHelperILb1EE5ApplyERK10Matrix4x4fP5Plane
m7b:__ZN13ProduceHelperI7CubemapLb0EE7ProduceE10MemLabelId18ObjectCreationMode
vZb:__ZN6Camera34UpdatePreviousViewProjectionMatrixEv
Ema:__ZN9ShaderLab11ShaderState25RemoveUnsupportedProgramsEPK6Shader
pMc:__Z28Font_Get_Custom_PropMaterialP12Il2CppObject
mpg:_Mathf_Abs_m3281243566
iNd:_SynchronizedWriter_WriteLine_m1552352268
c4d:_DefaultDependencyAttribute__ctor_m502524668
lNg:__Z44RuntimeInvoker_X509KeyUsageFlags_t1431795504PFvvEPK10MethodInfoPvPS4_
Wbc:__Z26scripting_class_has_parent17ScriptingClassPtrS_
Rba:__ZN13RuntimeStaticI21AssetReferenceStorageLb0EE16StaticInitializeEPv
vVc:__ZNSt3__26__treeINS_12__value_typeIN4core12basic_stringIcNS2_20StringStorageDefaultIcEEEEN11UnityEngine7Connect19RemoteSettingsValueEEENS_19__map_value_compareIS6_SA_NS_4lessIS6_EELb1EEE13stl_allocatorISA_L18MemLabelIdentifier6ELi16EEE16__construct_nodeERKNS_4pairIKS6_S9_EE
_Ed:_Int32_System_IConvertible_ToByte_m3832391412_AdjustorThunk
CQ:__Z71Register_UnityEngine_AudioSource_INTERNAL_CALL_ClearExtensionPropertiesv
Ylh:__ZL81RuntimeArray_CustomAttributesCacheGenerator_Array_GetValue_m116098292____indices0P21CustomAttributesCache
zC:__ZNK8Animator20IsInMatchTargetStateEv
spe:_InternalEnumerator_1_System_Collections_IEnumerator_get_Current_m4088805473_gshared
aoc:__Z36Register_UnityEngine_GUI_set_changedv
VGe:_Context_GetServerContextSinkChain_m3154465897
f4d:_FixedBufferAttribute_get_Length_m1478886548
XVe:_GetRayIntersectionAllCallback_EndInvoke_m1583561415
nwi:_GUIStyle_get_fixedHeight_m2868324709
eBd:_Convert_ToInt64_m2075293963
Mrj:__GLOBAL__sub_I_Il2CppCodeRegistration_cpp
Ww:__ZN27AnimationLayerMixerPlayable18SetInputConnectionEP8Playablei
Fw:__ZN7mecanim28TransformValueArrayBlendNodeEiiiRKNS_10ValueArrayERKNS_14ValueArrayMaskERS0_RS3_RNS_16ValueArrayWeightEf
nLf:__ZN21InterfaceFuncInvoker2Ii20UICharInfo_t75501106S0_E6InvokeEjP11Il2CppClassP12Il2CppObjectS0_S0_
Cgi:_UnityAction_2_BeginInvoke_m1322091188_gshared
Y7c:_Dropdown_set_value_m1048320169
AVa:__ZN20TierGraphicsSettings8TransferI18StreamedBinaryReadILb0EEEEvRT_
xFd:_Int32_System_IConvertible_ToUInt64_m2502338186_AdjustorThunk
yfa:__Z33CleanupCubemapGPUUtilityMaterialsPv
R$a:__ZN14SafeBinaryRead8TransferINSt3__24pairIN9ShaderLab16FastPropertyNameE10ColorRGBAfEEEEvRT_PKc17TransferMetaFlags
XJi:__ZL9rshift128PyS_
pkd:__ZN23InterfaceActionInvoker1IP25SmallXmlParser_t973787839E6InvokeEjP11Il2CppClassP12Il2CppObjectS1_
I0f:_Enumerator_VerifyState_m169680537_AdjustorThunk
G2i:__ZN14dense_hash_mapI10KeyWrapperINSt3__24pairIPK12PropertyInfoP11Il2CppClassEEEj17ReflectionMapHashIS8_ENS9_14EqualsComparerINS1_8equal_toIS8_EEEENS1_9allocatorINS2_IKS9_jEEEEE13set_empty_keyERSH_
Ng:_glRenderbufferStorage
Sbj:__ZNK15dense_hashtableINSt3__24pairIK10KeyWrapperINS1_IPKcS4_EEEiEES6_24NamespaceAndNamePairHashN14dense_hash_mapIS6_iS9_NS6_14EqualsComparerI26NamespaceAndNamePairEqualsEENS0_9allocatorIS8_EEE9SelectKeyESD_SF_E13find_positionERS7_
Fhc:__Z45Register_UnityEngine_Input_get_touchSupportedv
$Tc:__ZN11UnityEngine15PlatformWrapper28GetTextureFormatSupportFlagsEv
LCc:_sfnt_is_postscript
n_b:__ZNSt3__26vectorINS_4pairIN4core12basic_stringIcNS2_20StringStorageDefaultIcEEEES6_EE13stl_allocatorIS7_L18MemLabelIdentifier38ELi16EEE26__swap_out_circular_bufferERNS_14__split_bufferIS7_RSA_EEPS7_
xti:_Uri_EscapeString_m3864445955
xyc:_cf2_setError
VYh:__ZL78LayoutRebuilder_t541313304_CustomAttributesCacheGenerator_U3CU3Ef__mgU24cache0P21CustomAttributesCache
Q9a:__ZN14SafeBinaryRead21TransferSTLStyleArrayI13dynamic_arrayI12BoneWeights4Lj16EEEEvRT_17TransferMetaFlags
twe:_Enumerator_MoveNext_m465222849_AdjustorThunk
FKb:__ZZ23InitPlayerLoopCallbacksvEN35PreUpdateSendMouseEventsRegistrator7ForwardEv
ylf:_X509Certificate__ctor_m1321742168
QRe:_U3CMouseDragOutsideRectU3Ec__Iterator1_System_Collections_Generic_IEnumeratorU3CobjectU3E_get_Current_m3688496850
HEa:__ZNK6Camera25GetNormalizedViewportRectEP13RenderTextureb
Z7c:_Dropdown_Awake_m3140021404
_g:_glDisable
OXg:__Z52RuntimeInvoker_Void_t1185182177_UriScheme_t722425697PFvvEPK10MethodInfoPvPS4_
VZa:__ZN13RenderTexture8TransferI24GenerateTypeTreeTransferEEvRT_
rsh:__ZL53IsVolatile_t2097058663_CustomAttributesCacheGeneratorP21CustomAttributesCache
Yyg:_Vector2_get_sqrMagnitude_m837837635
lKa:__ZN4PPtrI9Texture2DE8TransferI14SafeBinaryReadEEvRT_
Bkj:__ZN6il2cpp5utils11StringUtils15StringDuplicateEPKDsj
sE:__ZZN8Animator15InitializeClassEvEN37FunctorImpl_417kDidModifyOverrideClip4CallEPviR11MessageData
lri:_Regex_Match_m4145799399
Dv:__ZN17AnimationPlayable17ProcessRootMotionEP35AnimationPlayableEvaluationConstantP32AnimationPlayableEvaluationInputP33AnimationPlayableEvaluationOutput
Iqf:_String_IsNullOrEmpty_m2969720369
Uze:_Enumerator_MoveNext_m2602845255_gshared
vHi:_TextGenerator_GetPreferredHeight_m3514897836
h2e:_BigInteger_LowestSetBit_m3082714978
HBg:__Z78RuntimeInvoker_Int16_t2552820387_RuntimeObject_Int32_t2950945753_RuntimeObjectPFvvEPK10MethodInfoPvPS4_
XJj:b118
YJj:b119
dJh:__ZL81Object_t631007953_CustomAttributesCacheGenerator_Object_set_hideFlags_m1648752846P21CustomAttributesCache
DLb:__ZNK8Material12GetPassCountEv
Xif:_RSAParameters_t1728406613_marshal_pinvoke
Ahf:_Interval_IsDisjoint_m1532171337_AdjustorThunk
RJj:b112
Ryj:_bitshift64Ashr
TJj:b114
UJj:b115
VJj:b116
WJj:b117
ZPi:__ZN30dense_hashtable_const_iteratorINSt3__24pairIK10KeyWrapperIN6il2cpp5utils13dynamic_arrayIPK10Il2CppTypeLj4EEEEPFvvEEESA_NS3_8metadata19Il2CppSignatureHashEN14dense_hash_mapISA_SD_SG_NSA_14EqualsComparerINSF_22Il2CppSignatureCompareEEENS0_9allocatorISE_EEE9SelectKeyESK_SM_E30advance_past_empty_and_deletedEv
mAj:dynCall_diii
MTe:_LayoutUtility_GetFlexibleWidth_m22831835
PMe:_BinaryFormatter__ctor_m971003555
wie:_ArrayReadOnlyList_1_ReadOnlyError_m865416608_gshared
JNg:__Z91RuntimeInvoker_Void_t1185182177_Int32_t2950945753_Int32U26_t1369213839_Int32U26_t1369213839PFvvEPK10MethodInfoPvPS4_
_lg:_DisplaysUpdatedDelegate_EndInvoke_m3857124817
Svd:_CollectionBase_System_Collections_IList_get_Item_m3743372945
mEf:_CultureInfo_get_Name_m3662098416
Gxa:__ZN4crnd12crn_unpacker22decode_alpha_endpointsEv
iah:_Queue_1__ctor_m2068090025_gshared
TVb:__Z23CullDynamicObjectsUmbraPK4AABBPKN5Umbra15OcclusionBufferER9IndexList
lge:_SslStreamBase_RaiseRemoteCertificateValidation2_m2908038766
sEc:_tt_cmap4_char_next
Hgg:_UIntPtr__ctor_m4250165422_AdjustorThunk
_Z:__ZN4core8hash_mapIi17ThreadedAwakeDataNS_4hashIiEENSt3__28equal_toIiEEE4growEi
EBg:__Z50RuntimeInvoker_Boolean_t97287965_Int16_t2552820387PFvvEPK10MethodInfoPvPS4_
nAd:_Convert_ToDecimal_m1233667008
Ire:_InternalEnumerator_1_MoveNext_m2734554195_gshared
ZZ:__ZN4core8hash_mapIi17ThreadedAwakeDataNS_4hashIiEENSt3__28equal_toIiEEE4growEv
w7:__GLOBAL__sub_I_runtime_assetbundles_1_cpp
p8d:_MD5SHA1_HashCore_m4171647335
KI:__ZN4FMOD7Channel11setPositionEjj
Sh:_glBindSampler
yae:_ClientContext_get_ClientHelloProtocol_m1654639078
Wh:_glGetVertexAttribiv
jAe:_Enumerator_System_Collections_IEnumerator_get_Current_m1975949486_gshared
Dpi:_PatternCompiler_EmitSub_m193323684
HLg:__Z74RuntimeInvoker_RuntimeObject_RuntimeObject_SByte_t1669577662_RuntimeObjectPFvvEPK10MethodInfoPvPS4_
JNc:__ZN2UI11CanvasGroup23VirtualRedirectTransferER18StreamedBinaryReadILb0EE
YFd:_Int64_System_IConvertible_ToByte_m375085029
Ouc:__ZN8JSONRead8TransferIbEEvRT_PKc17TransferMetaFlagsb
Zkg:_CullingGroup_t2096318768_marshal_pinvoke
dcg:_TimeSpan_ToString_m1128692466
Mvg:_RequireComponent__ctor_m886241599
lyi:_AesManaged_CreateEncryptor_m2294080233
Ugj:__ZN6il2cpp2os6Thread20SetExplicitApartmentENS0_14ApartmentStateE
bvi:_Event_GetHashCode_m3559153592
rnc:__Z26RegisterModuleICalls_IMGUIv
rma:__ZN9ShaderLab9SubShaderD2Ev
Pwc:__ZN19ControllerHitReport13onObstacleHitERKN5physx23PxControllerObstacleHitE
ZJg:__Z51RuntimeInvoker_Int16_t2552820387_Single_t1397266774PFvvEPK10MethodInfoPvPS4_
zmj:_GC_promote_black_lists
Yzd:_Convert_ToChar_m3757390865
Cvc:__Z29Transfer_Blittable_ArrayFieldI8JSONRead8Vector4fEvRT_R9ArrayInfoRK23StaticTransferFieldInfo
Sn:FUNCTION_TABLE_vf
CTd:_Binder_GetDerivedLevel_m3216810447
qo:FUNCTION_TABLE_vd
Pgf:_RepeatContext_get_Start_m1076992038
Q8:__ZN13RuntimeStaticI37UnityShaderCompilerExtPluginConfigureLb0EE16StaticInitializeEPv
k7f:_StringBuilder_AppendFormat_m2403596038
Dgd:_DSASignatureDeformatter_SetHashAlgorithm_m3186995552
M5h:_ReadOnlyCollection_1_System_Collections_Generic_ICollectionU3CTU3E_Clear_m2772202961_gshared
Rsc:__ZN9JSONWrite8TransferI13dynamic_arrayI4AABBLj4EEEEvRT_PKc17TransferMetaFlags
TE:__ZNK8Animator17HasBoundPlayablesEv
T3d:_ResourceSet_ReadResources_m3663669011
Ffh:_Collection_1_GetEnumerator_m3990758110_gshared
N9f:_SynchronizationContext_SetSynchronizationContext_m1249070039
dDh:__ZL74X509Crl_t1148767388_CustomAttributesCacheGenerator_U3CU3Ef__switchU24map13P21CustomAttributesCache
s7g:_List_1_AddEnumerable_m1267044261_gshared
SDc:_tt_cmap13_char_index
fVi:__ZN6il2cpp2vm7Runtime9SetConfigEPKc
Dpc:__ZN5Unity9rapidjson12PrettyWriterI16TempBufferWriterNS0_4UTF8IcEES4_13JSONAllocatorE10StartArrayEv
TDi:__ZL25UnresolvedVirtualCall_152P12Il2CppObject39CustomAttributeNamedArgument_t287865710PK10MethodInfo
ta:invoke_iiifiii
bvg:_RectTransform_INTERNAL_get_pivot_m2970933031
pgi:_UnityAction_1_Invoke_m927447181_gshared
x9i:__ZN6il2cpp2vm9Exception11FromNameMsgEPK11Il2CppImagePKcS6_S6_
Ocj:__ZNSt3__26__treeINS_12__value_typeIP24Il2CppReflectionAssemblyPvEENS_19__map_value_compareIS3_S5_NS_4lessIS3_EELb1EEENS_9allocatorIS5_EEE12__find_equalIS3_EERPNS_16__tree_node_baseIS4_EESH_RKT_
cn:FUNCTION_TABLE_fiiifii
Sea:__Z14GetTimeManagerv
wkg:_Color32_op_Implicit_m213813866
Dug:_RectOffset_set_top_m713260669
Omh:__ZL61ArrayReadOnlyList_1_t221793636_CustomAttributesCacheGeneratorP21CustomAttributesCache
tXc:__ZN19TransportJavaScript7CleanupEv
HPa:__Z12GUIDToStringRK9UnityGUIDPc
Pba:__ZN15FileSystemEntry4LockE12FileLockModeP12FileAccessor
WHj:_emscripten_glDrawArrays__wrapper
GFd:_Int32_Equals_m2976157357
DOg:__Z110RuntimeInvoker_Int32_t2950945753_Int32_t2950945753_Int32_t2950945753_Int32U26_t1369213839_Int32U26_t1369213839PFvvEPK10MethodInfoPvPS4_
i8g:_List_1_System_Collections_IList_get_IsReadOnly_m1601400230_gshared
evd:_BitArray_get_IsSynchronized_m3546284417
hM:__ZN11AudioSource22UnmuteActiveVideoSinksEv
cki:_TlsException__ctor_m3717683709
ykj:__ZN4utf88internal20is_overlong_sequenceIiEEbjT_
aPi:__ZN6il2cpp2vm13MetadataCache8RegisterEPK22Il2CppCodeRegistrationPK26Il2CppMetadataRegistrationPK20Il2CppCodeGenOptions
a1e:_SortKeyBuffer__ctor_m1384677558
M8c:_U3CDelayedDestroyDropdownListU3Ec__Iterator0_System_Collections_IEnumerator_get_Current_m1619733476
pAh:__ZL79Convert_t2465617642_CustomAttributesCacheGenerator_Convert_ToUInt16_m4064261444P21CustomAttributesCache
lRa:__Z9SetLocalR15TransformAccessRKN4math7_float4Ey
QRb:__Z30SetupBakedOcclusionForGeometrybRK26SharedLightmapSettingsDataRK15LightmapIndicesR17ShaderPassContext
v9:__ZN13RuntimeStaticI13ModuleManagerLb0EE13StaticDestroyEPv
Nfc:__Z41Register_UnityEngine_Cursor_get_lockStatev
mRb:__Z14SetupLightmapsRK8Vector4fS1_R17ShaderPassContext
e1i:__ZN14dense_hash_mapI10KeyWrapperIPK14Il2CppAssemblyEPK22Il2CppMonoAssemblyNameN6il2cpp5utils11PointerHashIS2_EENS4_14EqualsComparerINSt3__28equal_toIS3_EEEENSD_9allocatorINSD_4pairIKS4_S7_EEEEE13set_empty_keyERSJ_
O_a:__ZL20InitializeGUIShadersv
mGf:_Guid_CompareTo_m243656946
l1b:__Z20DestroyObjectDelayedP6Objectf
yW:__ZN20DynamicHeapAllocatorI17LowLevelAllocatorED0Ev
lHd:_IntPtr_ToPointer_m4157623054
Fce:_Context_get_LastHandshakeMsg_m2730646725
j4b:__ZN11TimeManagerC2E10MemLabelId18ObjectCreationMode
KOb:__ZN9DepthPassD2Ev
CH:__ZN11AudioFilter6GetDSPEv
r6e:_SymmetricTransform_CFB_m1051508796
wEe:_UrlAttribute_GetPropertiesForNewContext_m2281450996
Wif:_RSACryptoServiceProvider_OnKeyGenerated_m863837376
a4g:_List_1_get_Capacity_m3047075120_gshared
aTg:__Z31RuntimeInvoker_Mode_t1066900953PFvvEPK10MethodInfoPvPS4_
RWe:_Scrollbar_OnDrag_m4289602768
Caa:__ZN19RuntimeSceneManager14CanUnloadSceneEP10UnityScene
MOb:__Z22ExtractRenderNodeQueueRK11CullResults15ExtractionFlagsR15RenderNodeQueue
hZf:_GenericEqualityComparer_1_GetHashCode_m457148860_gshared
Phj:__ZN6il2cpp2vm6Method7GetNameEPK10MethodInfo
Zra:__ZN9GfxDevice16CreateTimerQueryEv
HG:__ZN24AudioScriptBufferManagerC2Ev
bKc:__ZNSt3__26vectorIh13stl_allocatorIhL18MemLabelIdentifier1ELi16EEE8__appendEj
mre:_InternalEnumerator_1_System_Collections_IEnumerator_get_Current_m3854084659_AdjustorThunk
DOe:_OnValidateInput_Invoke_m1009124904
zhe:_U3CGetEnumeratorU3Ec__Iterator0_System_Collections_IEnumerator_get_Current_m283764921_gshared
iXf:_EqualityComparer_1_System_Collections_IEqualityComparer_GetHashCode_m3578195399_gshared
dKc:__ZN20TextRenderingPrivate8FontImpl16ResetPackingDataEv
pDf:_CultureInfo_get_IcuName_m2258611679
Bqc:__Z18Transfer_BlittableI9JSONWriteLb0EfEvRK29SerializationCommandArgumentsR31RuntimeSerializationCommandInfo
Twa:__Z21GetAsyncUploadManagerv
Jj:_emscripten_glDetachShader
Cze:_Transform_1_BeginInvoke_m3697921475_gshared
qvg:_Vector2_op_Subtraction_m73004381
Hwa:__ZN17GenericDynamicVBO20ReleaseChunkInternalERK21DynamicVBOChunkHandlejj
oMc:__ZL27CleanupModule_TextRenderingv
svj:_fmodl
$ne:_InternalEnumerator_1__ctor_m39232262_gshared
s6e:_SymmetricTransform_OFB_m3842617151
HV:__Z37RegisterModuleICalls_CloudWebServicesv
PMa:__ZNSt3__26vectorIiNS_9allocatorIiEEE21__push_back_slow_pathIKiEEvRT_
MHb:__ZN19RuntimeSceneManager11CreateSceneEv
$jg:_Color__ctor_m286683560
kpi:_PatternCompiler_Emit_m1540115729
CCc:_ps_get_standard_strings
PRb:__Z27SetupBakedOcclusionForLightbRK15SharedLightDataR17ShaderPassContext
csj:__ZN6il2cpp2os5Mutex6UnlockEv
zLd:_NullStream_get_Position_m4048431226
X4f:_EncoderFallbackException__ctor_m1051987327
pih:__ZN21InterfaceFuncInvoker1I19Vector2_t2156229523iE6InvokeEjP11Il2CppClassP12Il2CppObjecti
Xce:_Context_set_RandomSC_m2364786761
Kvh:__ZL73AsymmetricSignatureDeformatter_t2681190756_CustomAttributesCacheGeneratorP21CustomAttributesCache
m4h:_Collection_1_CopyTo_m2335349786_gshared
p2e:_BigInteger_ToString_m3278248272
vxf:_Decimal_System_IConvertible_ToBoolean_m1123794670
mWg:__Z98RuntimeInvoker_Int32_t2950945753_RaycastResult_t3360306849_RaycastResult_t3360306849_RuntimeObjectPFvvEPK10MethodInfoPvPS4_
Taa:__Z17CommitBatchDeleteR11BatchDelete
XTe:_Mask__ctor_m1269055150
Syh:__ZL99WaitHandle_t1743403487_CustomAttributesCacheGenerator_WaitHandle_t1743403487____Handle_PropertyInfoP21CustomAttributesCache
lbf:_WebRequest_AddPrefix_m3187775913
nTh:__ZL98PointerEventData_t3807901092_CustomAttributesCacheGenerator_PointerEventData_get_button_m359423249P21CustomAttributesCache
Wsj:__ZNSt3__26__treeINS_12__value_typeIPFvvEPK10MethodInfoEENS_19__map_value_compareIS3_S7_NS_4lessIS3_EELb1EEENS_9allocatorIS7_EEE4findIS3_EENS_15__tree_iteratorIS7_PNS_11__tree_nodeIS7_PvEEiEERKT_
bFf:_NumberFormatInfo_get_CurrencyNegativePattern_m2134016253
BEh:__ZL85UriParser_t3890150400_CustomAttributesCacheGenerator_UriParser_OnRegister_m3283921560P21CustomAttributesCache
tUh:__ZL59Dropdown_t2274391225_CustomAttributesCacheGenerator_m_ValueP21CustomAttributesCache
gMb:__Z18RenderImageFiltersR10RenderLoopb
XQc:__Z43CanvasRenderer_Get_Custom_PropMaterialCountP12Il2CppObject
_Rb:__ZNSt3__227__insertion_sort_incompleteIR23CompareReflectionProbesP31RuntimeReflectionProbeBlendInfoEEbT0_S5_T_
U3g:_List_1_Remove_m1457733883_gshared
Xvc:__ZN8JSONRead21TransferSTLStyleArrayI13dynamic_arrayI11QuaternionfLj4EEEEvRT_17TransferMetaFlags
pp:__ZN6Object23VirtualRedirectTransferER19StreamedBinaryWriteILb1EE
nec:__ZNK9BlobWrite24HasOffsetPtrWithDebugPtrEv
zkh:__ZL80String_t_CustomAttributesCacheGenerator_String_FormatHelper_m3913915042____args3P21CustomAttributesCache
q0d:_MonoEventInfo_GetEventInfo_m873645389
qCd:_Convert_ToUInt64_m1745056470
d8d:_MD4Managed_Encode_m386285215
gca:__ZN10InputEventD2Ev
qwb:__Z18Transfer_BlittableI19StreamedBinaryWriteILb0EELb0E5RectTIfEEvRK29SerializationCommandArgumentsR31RuntimeSerializationCommandInfo
JZ:__ZL23OutOfBoundsReadingErrorPKN5Unity4TypeEiiR6Object
Nqe:_InternalEnumerator_1_MoveNext_m1590908934_AdjustorThunk
AYc:__ZN22UnityWebRequestManagerD2Ev
Rui:_Event_get_character_m1666742088
e$g:__Z112RuntimeInvoker_Boolean_t97287965_CustomAttributeNamedArgument_t287865710_CustomAttributeNamedArgument_t287865710PFvvEPK10MethodInfoPvPS4_
Zuj:_isalpha
pXe:_U3CClickRepeatU3Ec__Iterator0_Dispose_m4248496038
Uzd:_Convert_ToChar_m1442101407
nge:_SslClientStream_OnLocalPrivateKeySelection_m1934775249
gwi:_GUILayoutEntry_CalcWidth_m3962591050
Wad:__ZN21InterfaceFuncInvoker1IP19Graphic_t1660335611iE6InvokeEjP11Il2CppClassP12Il2CppObjecti
twf:_DateTimeOffset_get_Offset_m2040541042_AdjustorThunk
oMh:__ZL80Logger_t274032455_CustomAttributesCacheGenerator_U3ClogHandlerU3Ek__BackingFieldP21CustomAttributesCache
bTi:__ZN6il2cpp2vmL17IsSocketAsyncCallEP14Il2CppDelegate
Fxd:_Slot_t3975888750_marshal_pinvoke_back
Yjj:__ZN6il2cpp2vm6String6NewLenEPKcj
_4:__Z25GetBuiltinTexEnvParamNamei
GFb:__ZN17PersistentManager9AddStreamEv
Ngj:__ZN6il2cpp2os6Thread12GetApartmentEv
uJa:__ZN9GfxDevice28UpdateComputeConstantBuffersEjP12ObjectHandleI18ConstantBuffer_TagPvEjjPKhPKjS8_PKi
_k:_time
e6c:_ContentSizeFitter_set_verticalFit_m1831566876
slf:_TripleDESCryptoServiceProvider_CreateDecryptor_m740960117
Dlc:__ZN16memory_pool_implILi28EE15AutoPoolWrapper12UninitializeEPv
zSg:__Z122RuntimeInvoker_Void_t1185182177_Color_t2555686324_Single_t1397266774_SByte_t1669577662_SByte_t1669577662_SByte_t1669577662PFvvEPK10MethodInfoPvPS4_
epg:_Material_EnableKeyword_m329692301
kzc:_cf2_stack_free
okf:_SHA512Managed_HashCore_m2377807474
GGd:_Int64_Parse_m3309897583
WDf:_CompareInfo_IndexOf_m667936183
V7g:_List_1__ctor_m2203182218_gshared
rv:__ZN7mecanim9animation19EvaluateFloatValuesEPKNS0_18ClipMuscleConstantEPKNS_18ValueArrayConstantEPKNS0_12ClipBindingsEPKNS0_10ClipOutputEPNS0_18AnimationNodeStateEfbb
Ftg:_Rect_get_min_m847841034_AdjustorThunk
dD:__ZN8Animator31ClearInternalControllerPlayableEv
THa:__ZN26SinglePassStereoSupportExt18AfterSetViewMatrixEv
Nig:_Bounds__ctor_m1937678907_AdjustorThunk
uwg:_SetupCoroutine_InvokeMember_m2661944898
a_f:_HashSet_1__ctor_m620629637_gshared
Obf:_X509EnhancedKeyUsageExtension_ToString_m350388564
aZd:_MethodBuilder_get_Module_m2693263127
SYi:__ZN15dense_hashtableINSt3__24pairIK10KeyWrapperINS1_IPK9FieldInfoP11Il2CppClassEEEjEES9_17ReflectionMapHashIS8_EN14dense_hash_mapIS9_jSD_NS9_14EqualsComparerINS0_8equal_toIS8_EEEENS0_9allocatorISB_EEE9SelectKeyESI_SK_E4findERSA_
wud:_SimpleEnumerator_MoveNext_m3113120129
aed:_RuntimeTypeHandle_GetHashCode_m3999856879_AdjustorThunk
LHb:__ZN13LoadOperationC2E10MemLabelId
FOe:_InputField_SendOnValueChanged_m2560301445
lsi:_CapturingGroup_get_Name_m3747712535
uXb:__ZN13RenderTexture19SetAutoGenerateMipsEb
nya:__Z20GetTextureFormatInfo13TextureFormat
Z8e:_TypeConverterAttribute_Equals_m1580461255
h9d:_RSAManaged_ToXmlString_m2369501989
cy:__ZN26AnimatorControllerPlayable8GetFloatEiRf
HRe:_InputField_get_layoutPriority_m2945430764
zhf:_Interval_get_Size_m4163671410_AdjustorThunk
pri:_Regex_ToString_m1548107455
dNf:_NoAllocHelpers_SafeLength_TisVector2_t2156229523_m3807819939_gshared
$Nc:__ZN2UI14CanvasRenderer13AwakeFromLoadE17AwakeFromLoadMode
rkh:__ZL64String_t_CustomAttributesCacheGenerator_String_Split_m3580120853P21CustomAttributesCache
fzb:__ZN18StreamedBinaryReadILb1EE5AlignEv
uqj:__ZN6il2cpp5utils10MemoryPool6MallocEj
$F:__ZN11SoundHandle8InstanceD2Ev
D3d:_ResourceEnumerator_Reset_m3754276504
ufa:__ZN31CanvasBatchIntermediateRenderer13StaticDestroyEPv
j$:__ZNSt3__23mapIiP15MonoScriptCacheNS_4lessIiEE13stl_allocatorINS_4pairIKiS2_EEL18MemLabelIdentifier78ELi16EEEixERS7_
xRi:__ZNK15dense_hashtableINSt3__24pairIK10KeyWrapperIPK11Il2CppClassEPKcEES6_N6il2cpp5utils11PointerHashIS3_EEN14dense_hash_mapIS6_S9_SE_NS6_14EqualsComparerINS0_8equal_toIS5_EEEENS0_9allocatorISA_EEE9SelectKeyESJ_SL_E10test_emptyERK24dense_hashtable_iteratorISA_S6_SE_SN_SJ_SL_E
dRh:__ZL102CanvasRenderer_t2598313366_CustomAttributesCacheGenerator_CanvasRenderer_set_materialCount_m4286588063P21CustomAttributesCache
_Dg:__Z78RuntimeInvoker_Int32_t2950945753_RuntimeObject_RuntimeObject_Int32_t2950945753PFvvEPK10MethodInfoPvPS4_
aTa:__Z26scripting_method_get_class18ScriptingMethodPtr
HFj:_emscripten_glBindProgramARB__wrapper
Kfc:__Z41Register_UnityEngine_CullingGroup_Disposev
Hpi:_PatternCompiler_EmitRepeat_m697083858
G2a:__ZN7Cubemap23VirtualRedirectTransferER19StreamedBinaryWriteILb0EE
RDe:_ConstructionLevelActivator__ctor_m3779412964
sOa:__ZN25MultiBlocksMemoryFileData5WriteEyyPKv
wih:_Collection_1_GetEnumerator_m344341702_gshared
S$i:__ZNSt3__218uninitialized_fillIPNS_4pairIK10KeyWrapperINS1_IPK12PropertyInfoP11Il2CppClassEEEjEESB_EEvT_SD_RKT0_
g3d:_ResourceReader_Read7BitEncodedInt_m3568166465
t7c:_DefaultControls_CreateInputField_m1003102365
KKh:__ZL95Mesh_t3648964284_CustomAttributesCacheGenerator_Mesh_GetIndices_m1466450660____applyBaseVertex1P21CustomAttributesCache
dIi:_CanvasGroup_set_alpha_m4032573
Qmd:_Array_get_LongLength_m978104875
XBa:__ZL17ProgramUniform2fvPK7ApiGLESjiihPKv
BGj:b83
sBg:__Z68RuntimeInvoker_Boolean_t97287965_RuntimeObject_UInt64U26_t1265593412PFvvEPK10MethodInfoPvPS4_
ZJc:__ZN20TextRenderingPrivate8FontImpl21HasCharacterInTextureEjijfPj
fkb:__ZNSt3__227__insertion_sort_incompleteIRPFbRK23TransformAccessReadOnlyS3_EPS1_EEbT0_S8_T_
B7c:_OptionData__ctor_m2529924901
oyg:_Transform_SetAsFirstSibling_m253439912
AYh:__ZL93HorizontalOrVerticalLayoutGroup_t729725570_CustomAttributesCacheGenerator_m_ChildControlWidthP21CustomAttributesCache
huf:_DateTime_System_IConvertible_ToUInt16_m4182197229_AdjustorThunk
shf:_Interval_get_IsDiscontiguous_m3016063288
Dge:_SslStreamBase_get_CheckCertRevocationStatus_m2739906607
twj:_htonl
Xta:__Z20GetBufferManagerGLESv
AGj:b82
ykf:_SHA512Managed_Sigma1_m922902398
WBb:__ZN18StreamedBinaryReadILb0EE21TransferSTLStyleArrayI31ArrayOfManagedObjectsTransfererEEvRT_17TransferMetaFlags
zua:__ZNSt3__26__treeI22DeviceStencilStateGLES14MemoryCompLessI18DeviceStencilStateENS_9allocatorIS1_EEE12__find_equalIS1_EERPNS_16__tree_node_baseIPvEESD_RKT_
uwj:_htons
Mtc:__Z18Transfer_BlittableI8JSONReadLb0EtEvRK29SerializationCommandArgumentsR31RuntimeSerializationCommandInfo
r0i:__ZN15dense_hashtableINSt3__24pairIK10KeyWrapperINS1_IPK9EventInfoP11Il2CppClassEEEjEES9_17ReflectionMapHashIS8_EN14dense_hash_mapIS9_jSD_NS9_14EqualsComparerINS0_8equal_toIS8_EEEENS0_9allocatorISB_EEE9SelectKeyESI_SK_E12expand_arrayEjN21dense_hash_map_traits17integral_constantIbLb0EEE
uyb:__Z18Transfer_BlittableI18StreamedBinaryReadILb1EELb0E5RectTIiEEvRK29SerializationCommandArgumentsR31RuntimeSerializationCommandInfo
DZ:__Z16GenerateTypeTreeRK6ObjectR8TypeTree24TransferInstructionFlags
MEf:_CultureInfo_CreateCulture_m1493441763
klf:_TripleDES_IsWeakKey_m2147489852
U2a:__ZNK7Cubemap20GetTextureLayerCountEv
Qy:__ZN34AnimationStateMachineMixerPlayable13EndTransitionEv
QAh:__ZL79Convert_t2465617642_CustomAttributesCacheGenerator_Convert_ToUInt64_m2343585091P21CustomAttributesCache
IRg:__Z65RuntimeInvoker_Void_t1185182177_RuntimeObject_RectU26_t1284589061PFvvEPK10MethodInfoPvPS4_
kI:__ZN12AudioManager21FixMasterGroupRoutingEv
o9a:__ZNK19ShaderPropertySheet11HasPropertyERKN9ShaderLab16FastPropertyNameE
DAj:dynCall_viffffii
bC:__ZN15AllocatorTraitsIN8Animator11AnimatorJobELb0EE13CopyConstructEPS1_RKS1_10MemLabelId
kVg:__Z81RuntimeInvoker_Boolean_t97287965_NavigationU26_t1807167253_Navigation_t3049316579PFvvEPK10MethodInfoPvPS4_
NHj:_emscripten_glUniform1fv__wrapper
obd:_GridLayoutGroup_SetLayoutHorizontal_m2838109254
GMg:__Z65RuntimeInvoker_SecurityProtocolType_t1513093309_Int16_t2552820387PFvvEPK10MethodInfoPvPS4_
w7c:_Dropdown_RefreshShownValue_m2806045241
lob:__Z18Transfer_BlittableI14SafeBinaryReadLb1E4AABBEvRK29SerializationCommandArgumentsR31RuntimeSerializationCommandInfo
kgj:__ZN6il2cpp6icalls8mscorlib6System4Enum12get_hashcodeEP12Il2CppObject
xpj:_GC_set_no_dls
z5c:_ColorBlock_set_normalColor_m254595671_AdjustorThunk
Utj:__ZN6il2cpp8metadata26Il2CppGenericMethodCompare6EqualsEPK19Il2CppGenericMethodS4_
zih:_Collection_1_InsertItem_m1996433897_gshared
pqe:_InternalEnumerator_1_get_Current_m1007906068_gshared
h6a:__ZNK13ScreenManager16GetScreenTimeoutEv
XMi:__ZN15dense_hashtableINSt3__24pairIK10KeyWrapperIPK11Il2CppClassEPKcEES6_N6il2cpp5utils11PointerHashIS3_EEN14dense_hash_mapIS6_S9_SE_NS6_14EqualsComparerINS0_8equal_toIS5_EEEENS0_9allocatorISA_EEE9SelectKeyESJ_SL_E15set_deleted_keyERKSA_
yud:_SimpleEnumerator_Reset_m1520014659
dxh:__ZL53IPrincipal_t2343618843_CustomAttributesCacheGeneratorP21CustomAttributesCache
H9f:_SendOrPostCallback__ctor_m1566534627
PG:__ZN9AudioClip7WWWOpenEPKciPjPPvS4_
cob:__Z18Transfer_BlittableI14SafeBinaryReadLb0E8Vector2fEvRK29SerializationCommandArgumentsR31RuntimeSerializationCommandInfo
zce:_Context_set_ProtocolNegotiated_m2904861662
Vph:__ZL54FileOptions_t1024913468_CustomAttributesCacheGeneratorP21CustomAttributesCache
Qbj:__ZN15dense_hashtableINSt3__24pairIK10KeyWrapperINS1_IPKcS4_EEEiEES6_24NamespaceAndNamePairHashN14dense_hash_mapIS6_iS9_NS6_14EqualsComparerI26NamespaceAndNamePairEqualsEENS0_9allocatorIS8_EEE9SelectKeyESD_SF_E12resize_deltaEjj
zLe:_RemotingServices_GetRemoteObject_m2117098022
uIi:_CanvasRenderer_SetTexture_m1600559835
IWc:__ZN13dynamic_arrayIiLj4EE6insertEPiPKiS3_
xhh:_Collection_1_System_Collections_IList_IndexOf_m4256072926_gshared
QEg:__Z132RuntimeInvoker_Boolean_t97287965_RuntimeObject_Int32_t2950945753_Int32_t2950945753_RuntimeObject_Int32_t2950945753_Int32_t2950945753PFvvEPK10MethodInfoPvPS4_
zhc:__Z53Register_UnityEngine_Input_INTERNAL_get_mousePositionv
Qta:__ZN7ApiGLES12DrawElementsE16GfxPrimitiveTypePKvjjjj
J5e:_EncryptedPrivateKeyInfo_get_Salt_m3453455261
ovf:_DateTime__ParseNumber_m1240316250
Iof:_Single_System_IConvertible_ToSingle_m1939829239_AdjustorThunk
Fme:_InternalEnumerator_1_get_Current_m3839250771_gshared
mkc:__Z66Register_UnityEngine_Transform_INTERNAL_CALL_InverseTransformPointv
oEf:_CultureInfo_get_TextInfo_m2342840448
DMf:_Array_InternalArray__IndexOf_TisMark_t3471605523_m2905388260_gshared
O_c:_EventSystem_set_pixelDragThreshold_m890385646
wJa:__ZN9GfxDevice22DispatchComputeProgramE12ObjectHandleI18ComputeProgram_TagPvEjjj
fd:_SDL_GetTicks
O_i:__ZN15dense_hashtableINSt3__24pairIK10KeyWrapperINS1_IPK11Il2CppImageP11Il2CppClassEEEjEES9_17ReflectionMapHashIS8_EN14dense_hash_mapIS9_jSD_NS9_14EqualsComparerINS0_8equal_toIS8_EEEENS0_9allocatorISB_EEE9SelectKeyESI_SK_E6insertERKSB_
yVb:__Z21CreateShadowCullerJobP30CreateUmbraShadowCullerJobData
e9h:_ReadOnlyCollection_1_System_Collections_Generic_ICollectionU3CTU3E_Remove_m4072504734_gshared
PBa:__ZL18ProgramUniform2uivPK7ApiGLESjiihPKv
i4c:_U3COnFinishSubmitU3Ec__Iterator0_MoveNext_m2729496168
nHj:_glUniform4iv__wrapper
ySb:__Z33GenerateShadowCasterPartsSortDataRK16ShadowCasterDatajRK15RenderNodeQueueRKNSt3__26vectorI20ShadowCasterPartData13stl_allocatorIS7_L18MemLabelIdentifier2ELi16EEEERK10Matrix4x4fRjP20ShadowCasterSortData
UKb:__ZZ23InitPlayerLoopCallbacksvEN51PostLateUpdateTriggerEndOfFrameCallbacksRegistrator7ForwardEv
Ibg:_TimeSpan_Compare_m753151303
jrb:__Z29Transfer_Blittable_ArrayFieldI14SafeBinaryRead9BoundsIntEvRT_R9ArrayInfoRK23StaticTransferFieldInfo
ryc:_cf2_computeDarkening
gJi:_AnimationLayerMixerPlayable__ctor_m860721801_AdjustorThunk
J1d:_MonoPropertyInfo_get_property_info_m1599555644
o7g:_List_1_Add_m2298161512_gshared
agd:_DESTransform_CipherFunct_m3527261721
Vmj:_GC_expand_hp_inner
Hdj:__ZNK15dense_hashtableI10KeyWrapperIP18Il2CppGenericClassES3_N6il2cpp8metadata22Il2CppGenericClassHashEN14dense_hash_setIS3_S6_NS3_14EqualsComparerINS5_25Il2CppGenericClassCompareEEENSt3__29allocatorIS3_EEE8IdentityESA_SD_E12test_deletedEj
Mkc:__Z25Screen_Get_Custom_PropDpiv
wxb:__Z29Transfer_Blittable_ArrayFieldI19StreamedBinaryWriteILb0EEsEvRT_R9ArrayInfoRK23StaticTransferFieldInfo
gng:_UnityEventBase_RebuildPersistentCallsIfNeeded_m216788690
LTh:__ZL80PhysicsRaycaster_t437419520_CustomAttributesCacheGenerator_m_MaxRayIntersectionsP21CustomAttributesCache
nkj:__ZN4utf812find_invalidIPKcEET_S3_S3_
zQe:_InputField_OnEndDrag_m4127187089
Dbi:_ReadOnlyCollection_1_System_Collections_IList_RemoveAt_m2555465054_gshared
Enh:__ZL72RuntimeCompatibilityAttribute_t1169614002_CustomAttributesCacheGeneratorP21CustomAttributesCache
Nzf:_StackFrame__ctor_m343464319
wT:__ZN11UnityEngine15CloudWebService20WebRequestRestClient7PrepareEv
S0d:_MonoField_CheckGeneric_m453069507
MJc:__ZN20TextRenderingPrivate19NativeTextGenerator23FixLineHorizontalOffsetEiii
cVf:_DefaultComparer_Equals_m3348496647_gshared
DJe:_MethodCall_Init_m86192062
Eud:_SynchronizedArrayListWrapper_get_IsFixedSize_m3396437476
rNe:_ObjectReader_ReadArrayOfString_m3550800559
ZOd:_MonoCustomAttrs_GetCustomAttributesInternal_m648304078
aA:__ZN7mecanim9animation19DestroyAnimationSetEPNS0_12AnimationSetERNS_6memory9AllocatorE
nCj:_emscripten_glDepthRange__wrapper
i0:__ZN14SerializedFile7ReleaseEv
mmb:__ZN16MemoryFileSystem4OpenER13FileEntryData14FilePermission16FileAutoBehavior
RDf:_CompareInfo_GetSortKey_m1915852346
bHc:_ft_var_load_avar
jfa:__ZN13RuntimeStaticI13RendererSceneLb0EE13StaticDestroyEPv
Dte:_DefaultComparer_Compare_m1297750557_gshared
AW:__ZN20DynamicHeapAllocatorI17LowLevelAllocatorE10ReallocateEPvji
xP:__ZN12AudioManager12CleanupClassEv
qub:__Z18Transfer_BlittableI24GenerateTypeTreeTransferLb1E12PropertyNameEvRK29SerializationCommandArgumentsR31RuntimeSerializationCommandInfo
Oyi:_Toggle_OnEnable_m1421694809
_cb:__ZN14SafeBinaryRead21TransferSTLStyleArrayI10vector_mapIPKN5Unity4TypeE7Hash128NSt3__24lessIS5_EENS7_9allocatorINS7_4pairIS5_S6_EEEEEEEvRT_17TransferMetaFlags
OG:__ZN9AudioClip18GetQueuedAudioDataEPPvj
bMc:__ZN20TextRenderingPrivate21TextMeshGeneratorImpl14GarbageCollectEv
t4c:_CanvasScaler_get_scaleFactor_m122574367
tac:__ZNK9Texture2D17CheckHasPixelDataEv
kGi:_InputBuffer_DeleteCharacters_m244939457
dwb:__Z18Transfer_BlittableI19StreamedBinaryWriteILb0EELb0E9BoundsIntEvRK29SerializationCommandArgumentsR31RuntimeSerializationCommandInfo
tOb:__Z18SetShadowsKeywordsR17ShaderPassContext9LightType10ShadowType16ShadowProjectionbb
sad:_Graphic_GetPixelAdjustedRect_m3729397999
F2i:__ZN14dense_hash_mapI10KeyWrapperINSt3__24pairIPK12PropertyInfoP11Il2CppClassEEEj17ReflectionMapHashIS8_ENS9_14EqualsComparerINS1_8equal_toIS8_EEEENS1_9allocatorINS2_IKS9_jEEEEEC2EjRKSB_RKSF_
z6b:__ZN17CollisionMeshDataC2Ev
PCe:_Dictionary_2_ToTValue_m692436965_gshared
UXh:__ZL73AspectRatioFitter_t3312407083_CustomAttributesCacheGenerator_m_AspectModeP21CustomAttributesCache
Zri:_BalancingGroup_set_Balance_m3289053627
U4d:_Marshal_Copy_m1222846562
h4a:__ZN16LightmapSettings23VirtualRedirectTransferER19StreamedBinaryWriteILb0EE
XKb:__ZZ23InitPlayerLoopCallbacksvEN47PostLateUpdateMemoryFrameMaintenanceRegistrator7ForwardEv
Sta:__ZN7ApiGLES20SetVertexArrayAttribEjj12VertexFormathjPKv
vo:FUNCTION_TABLE_viiififii
Gnj:_GC_push_next_marked
mWf:_EqualityComparer_1_System_Collections_IEqualityComparer_GetHashCode_m3539775155_gshared
Ihb:__ZN18IDCollectorFunctor18GenerateInstanceIDEi17TransferMetaFlags
s3h:_GameObject_GetComponent_TisRuntimeObject_m2049753423_gshared
TGi:_TextGenerationSettings_Equals_m3618607189_AdjustorThunk
Ixi:_SymmetricTransform_get_CanReuseTransform_m3495714228
d$d:_FieldInfo_get_UMarshal_m1217454798
w8e:_NameObjectCollectionBase_BaseAdd_m3437748750
$cg:_Type_internal_from_handle_m3156085815
UNg:__Z63RuntimeInvoker_RuntimeObject_RuntimeObject_Int32U26_t1369213839PFvvEPK10MethodInfoPvPS4_
ZEc:_ft_smooth_init
kwh:__ZL55MACTripleDES_t1631262397_CustomAttributesCacheGeneratorP21CustomAttributesCache
kRi:__ZN6il2cpp2vm13MetadataCache25GetMethodGenericContainerEPK10MethodInfo
t7h:_ReadOnlyCollection_1_System_Collections_Generic_ICollectionU3CTU3E_Add_m69722965_gshared
yD:__ZN8Animator8TransferI19StreamedBinaryWriteILb0EEEEvRT_
F1:__ZNSt3__27__sort4IRNS_6__lessI14ObjectLoadDataS2_EEPS2_EEjT0_S6_S6_S6_T_
aNb:__ZNK25CameraStackRenderingState16GetCurrentCameraEv
hKf:_Array_InternalArray__IEnumerable_GetEnumerator_TisIntPtr_t_m2620447453_gshared
MXe:_ScrollRect_get_rectTransform_m2442061719
eMa:__ZN17PersistentManager4LockEv
guh:__ZL51IMessage_t3593512748_CustomAttributesCacheGeneratorP21CustomAttributesCache
x8b:__Z22PlayableValidityChecksRK9HPlayableb
ZHh:__ZL57AnimationCurve_t3046754366_CustomAttributesCacheGeneratorP21CustomAttributesCache
Eeb:__ZN15ResourceManagerD2Ev
Tpe:_InternalEnumerator_1__ctor_m3383770493_gshared
zfc:__Z41Register_UnityEngine_Camera_GetAllCamerasv
wmg:_InvokableCall__ctor_m2158562079
SSi:__ZN6il2cpp2gc9AllocatorIP17Il2CppAsyncResultE10deallocateEPvj
Xqi:_Assertion__ctor_m2128950829
RVc:__ZN28PerformanceReportingSettings8TransferI14SafeBinaryReadEEvRT_
mdh:_Collection_1_System_Collections_ICollection_get_SyncRoot_m2514790028_gshared
$ib:__ZN15CacheWriterBase18GetAddressOfMemoryEv
_id:_Buffer_BlockCopy_m2884209081
ywh:__ZL56RSAParameters_t1728406613_CustomAttributesCacheGeneratorP21CustomAttributesCache
Utc:__Z18Transfer_BlittableI8JSONReadLb1E5RectTIiEEvRK29SerializationCommandArgumentsR31RuntimeSerializationCommandInfo
LNh:__ZL84AudioSettings_t3587374600_CustomAttributesCacheGenerator_OnAudioConfigurationChangedP21CustomAttributesCache
$7i:__ZN6il2cpp2vm22EmbeddedResourceRecordC2ERKS1_
Gna:__ZNSt3__26vectorIN9ShaderLab20SerializedSubProgram15VectorParameterENS_9allocatorIS3_EEE21__push_back_slow_pathIKS3_EEvRT_
qIb:__ZL20DrawVBOChunkWithPassP6ShaderPN9ShaderLab4PassER17ShaderPassContextR10DynamicVBORK21DynamicVBOChunkHandle
Ndh:_Collection_1__ctor_m825528237_gshared
B2a:__ZN9Texture2D13AwakeFromLoadE17AwakeFromLoadMode
zJf:_SetPropertyUtility_SetStruct_TisColorBlock_t2139031574_m1748367426_gshared
Wqg:_PlayerConnection_get_instance_m1750121257
Efj:__ZN6il2cpp2vm3RCW14QueryInterfaceILb0EEEP14Il2CppIUnknownP15Il2CppComObjectRK10Il2CppGuid
gvh:__ZL61FormatterConverter_t2760117746_CustomAttributesCacheGeneratorP21CustomAttributesCache
sni:_X509Store_get_Certificates_m56224934
zKe:_ReturnMessage_set_Uri_m3134200303
Vza:__ZN6prcoreL17RemapGenericFloatI15TexFormatRFloat18TexFormatARGBFloatEEvPKNS_9InnerInfoE
sIg:__Z85RuntimeInvoker_Void_t1185182177_Int64_t3736567304_Int32_t2950945753_Int64_t3736567304PFvvEPK10MethodInfoPvPS4_
T9d:_CipherSuite__ctor_m2440635082
$if:_RSAPKCS1KeyExchangeFormatter_SetRSAKey_m1477802943
OKh:__ZL104SendMouseEvents_t3273302915_CustomAttributesCacheGenerator_SendMouseEvents_DoSendMouseEvents_m2140870850P21CustomAttributesCache
xjf:_SHA1CryptoServiceProvider_HashCore_m3575298072
Umf:_EvidenceEnumerator_get_Current_m1264365535
OWc:__ZN11UnityEngine15PlatformWrapper20GetPlayerPrefsUInt64ERKN4core12basic_stringIcNS1_20StringStorageDefaultIcEEEEy
T4d:_Marshal_copy_from_unmanaged_m2834266824
QAj:dynCall_iiiifii
cSb:__ZN20ReflectionProbeCacheC2ER13BatchRendererR15RenderLoopStats
pif:_RIPEMD160Managed_G_m3625715749
w_a:__ZN7Texture23VirtualRedirectTransferER18StreamedBinaryReadILb0EE
Ztg:_Rect_set_xMax_m1720695099_AdjustorThunk
eLg:__Z59RuntimeInvoker_Int32_t2950945753_DateTimeOffset_t3229287507PFvvEPK10MethodInfoPvPS4_
klb:__ZNK12HandlerChain6ExistsERK13FileEntryData
WCf:_Calendar__ctor_m106290643
OSb:__Z30FindDirectAttenuationFromProbeP18ForwardLightsBlockbiRK10RenderNodeRK23FindForwardLightsParamsf
Mac:__ZNSt3__26vectorIj13stl_allocatorIjL18MemLabelIdentifier1ELi16EEE6assignIPKjEENS_9enable_ifIXaasr21__is_forward_iteratorIT_EE5valuesr16is_constructibleIjNS_15iterator_traitsIS9_E9referenceEEE5valueEvE4typeES9_S9_
kcb:__ZN12InputManager23VirtualRedirectTransferER24GenerateTypeTreeTransfer
pkb:__ZN9Transform23VirtualRedirectTransferER24GenerateTypeTreeTransfer
O5a:__Z18GetLODGroupManagerv
imc:__ZN12GUIClipState10BeginOnGUIER10InputEvent
Ana:__ZNSt3__26vectorIN9ShaderLab20SerializedSubProgram12UAVParameterENS_9allocatorIS3_EEE21__push_back_slow_pathIKS3_EEvRT_
YQh:__ZL100CanvasGroup_t4083511760_CustomAttributesCacheGenerator_CanvasGroup_get_ignoreParentGroups_m865591534P21CustomAttributesCache
JMg:__Z87RuntimeInvoker_RuntimeObject_Byte_t1134296376_RuntimeObject_RuntimeObject_RuntimeObjectPFvvEPK10MethodInfoPvPS4_
Cbe:_HandshakeMessage_Process_m810828609
L_f:_KeyValuePair_2_get_Value_m1339120122_AdjustorThunk
wFc:_UNITY_tt_size_ready_bytecode
wIc:__ZN13TextRendering4FontD2Ev
rdb:__ZN27GenericSlowGarbageCollectorD2Ev
Nsg:_Quaternion_Inverse_m1311579081
dLc:_UNITY_FT_Stream_Open
G3c:_AspectRatioFitter_get_aspectRatio_m1928877056
Lcd:_SerializationEntry_t648286436_marshal_pinvoke_back
svb:__Z29Transfer_Blittable_ArrayFieldI24GenerateTypeTreeTransfer9BoundsIntEvRT_R9ArrayInfoRK23StaticTransferFieldInfo
_ad:_GraphicRegistry__cctor_m1805310505
Sig:_Bounds_Equals_m3920299735
bXa:__ZN8keywords18KeywordSetToStringERK16ShaderKeywordSetRN4core12basic_stringIcNS3_20StringStorageDefaultIcEEEE
hYd:_GenericTypeParameterBuilder_GetGenericArguments_m2988765390
uBc:_otv_MATH_validate
CHg:__Z77RuntimeInvoker_Void_t1185182177_Int64_t3736567304_ResourceInfoU26_t1611441338PFvvEPK10MethodInfoPvPS4_
IIb:__ZNSt3__26vectorIN22BuiltinResourceManager8ResourceENS_9allocatorIS2_EEE21__push_back_slow_pathIKS2_EEvRT_
gXg:__Z53RuntimeInvoker_Int32_t2950945753_Keyframe_t4206410242PFvvEPK10MethodInfoPvPS4_
oF:__ZN4FMOD3DSP12setParameterEif
bGb:__ZN13MemoryManager16StaticInitializeEv
qEf:_CultureInfo_Equals_m1360976324
d$f:_KeyValuePair_2_set_Key_m3170517671_AdjustorThunk
lf:___cxa_free_exception
zLh:__ZL69PersistentCall_t3407714124_CustomAttributesCacheGenerator_m_CallStateP21CustomAttributesCache
Mbi:_ReadOnlyCollection_1_GetEnumerator_m122912648_gshared
hmg:_ArgumentCache_get_floatArgument_m3471193103
sJ:__ZN4FMOD22FakeModChannelCallbackEPv
KZc:_BaseInput_get_compositionString_m1887614380
rf:_emscripten_glValidateProgram
PVa:__ZN4Mesh10CreateMeshEv
Fjd:_X509Certificate_get_IssuerName_m605048065
zid:_RijndaelManagedTransform__ctor_m1033522223
j9e:_WebHeaderCollection__ctor_m896654210
Nuf:_DateTime_CompareTo_m3889078633
Uyc:_cf2_stack_clear
Twh:__ZL61SecurityPermission_t2954997752_CustomAttributesCacheGeneratorP21CustomAttributesCache
YYf:_GenericComparer_1__ctor_m2864776302_gshared
WDd:_NumberFormatter_set_CurrentCulture_m1358228087
vXb:__ZN7Texture13SetAnisoLevelEi
KR:__ZNSt3__26__treeINS_12__value_typeIN4core12basic_stringIcNS2_20StringStorageDefaultIcEEEEjEENS_19__map_value_compareIS6_S7_NS_4lessIS6_EELb1EEE13stl_allocatorIS7_L18MemLabelIdentifier88ELi16EEE7destroyEPNS_11__tree_nodeIS7_PvEE
K6:__ZN19EndOfFrameCallbacks7EnqueueEP18EndOfFrameCallbackb
xog:_Input_set_compositionCursorPos_m1909373301
UKc:_raccess_guess_vfat
rJg:__Z78RuntimeInvoker_IntPtr_t_SByte_t1669577662_RuntimeObject_BooleanU26_t4125257963PFvvEPK10MethodInfoPvPS4_
a2c:_RaycastResult_get_gameObject_m2570051527_AdjustorThunk
dSc:__Z44Canvas_CUSTOM_GetETC1SupportedCanvasMaterialv
Gyf:_Decimal_decimalSetExponent_m3707787243
m9:__ZN33InstancedMeshIntermediateRenderer13StaticDestroyEPv
uwd:_KeyNotFoundException__ctor_m2696589580
Qaj:__ZN14dense_hash_mapI10KeyWrapperIP14Il2CppIUnknownEjN6il2cpp5utils11PointerHashIS1_EENS3_14EqualsComparerINSt3__28equal_toIS2_EEEENS9_9allocatorINS9_4pairIKS3_jEEEEE13set_empty_keyERSF_
Hva:__ZN15dense_hashtableINSt3__24pairIK9TextureIDiEES2_14GfxGenericHashIS2_EN14GfxDoubleCacheIS2_iS6_NS0_8equal_toIS2_EEN31GfxDoubleCacheConcurrencyPolicy11LocklessGetE42GfxDoubleCacheDefaultEmptyDeletedGeneratorIS2_EE9SelectKeyES9_13stl_allocatorIS4_L18MemLabelIdentifier24ELi16EEE12resize_deltaEjj
VSg:__Z50RuntimeInvoker_EditState_t3741896775_RuntimeObjectPFvvEPK10MethodInfoPvPS4_
PTa:__Z21DestroyShadowMapCacheP14ShadowMapCache
yx:__ZN7mecanim9animation25CreateControllerWorkspaceEPKNS0_18ControllerConstantERNS_6memory9AllocatorE
G2h:_Array_InternalArray__get_Item_TisLabelFixup_t858502054_m3276643490_gshared
$Zf:_HashSet_1__ctor_m4231804131_gshared
d2i:__ZN15dense_hashtableINSt3__24pairIK10KeyWrapperIPK10Il2CppTypeEjEES6_N6il2cpp8metadata14Il2CppTypeHashEN14dense_hash_mapIS6_jSB_NS6_14EqualsComparerINSA_26Il2CppTypeEqualityComparerEEENS0_9allocatorIS8_EEE9SelectKeyESF_SH_E14squash_deletedEv
Z8i:__ZN6il2cpp2vm13LivenessState5ResetEv
cqc:__ZN9JSONWrite8TransferI11KeyframeTplIfEEEvRT_PKc17TransferMetaFlags
B5b:__ZN13ProduceHelperI8RendererLb1EE7ProduceE10MemLabelId18ObjectCreationMode
lyd:_SortedList_GetImpl_m3689246167
X6h:_ReadOnlyCollection_1_System_Collections_Generic_IListU3CTU3E_set_Item_m3209059215_gshared
Swa:__ZN24BuiltinShaderParamValuesC2Ev
Eli:_PKCS12_Decode_m163534693
rqc:__ZL41CreateJSONTransferFunctionScriptingTraitsv
fha:__ZN6Shader23VirtualRedirectTransferER14SafeBinaryRead
Nxc:_cff_glyph_load
aAg:_WaitForSecondsRealtime_get_keepWaiting_m846832224
kji:_ObjectPool_1_get_countActive_m807006650_gshared
$ih:_Collection_1_System_Collections_IList_get_Item_m2087137030_gshared
dEb:__Z23GetLateBehaviourManagerv
pGg:__Z33RuntimeInvoker_Single_t1397266774PFvvEPK10MethodInfoPvPS4_
rqb:__ZN14SafeBinaryRead21TransferSTLStyleArrayINSt3__26vectorI8Gradient13stl_allocatorIS3_L18MemLabelIdentifier1ELi16EEEEEEvRT_17TransferMetaFlags
aNf:_NoAllocHelpers_SafeLength_TisInt32_t2950945753_m1263070609_gshared
TX:__ZN10MemoryPool10DeallocateEPv
wmc:__ZN8GUIState8SetEventERK10InputEvent
$Ei:__ZL25UnresolvedVirtualCall_214P12Il2CppObjecti39CustomAttributeNamedArgument_t287865710PK10MethodInfo
TQg:__Z80RuntimeInvoker_Void_t1185182177_ScriptableRenderContext_t274343796_RuntimeObjectPFvvEPK10MethodInfoPvPS4_
HNd:_NullTextWriter_Write_m432139305
uy:__ZN13dynamic_arrayI4PPtrI13MonoBehaviourELj4EE9push_backERKS2_
Lv:__ZN17AnimationPlayable22SetStateMachineMessageEN7mecanim12statemachine19StateMachineMessageE
bVf:_DefaultComparer_GetHashCode_m4122680767_gshared
uAj:dynCall_vif
vAj:dynCall_vid
BYh:__ZL94HorizontalOrVerticalLayoutGroup_t729725570_CustomAttributesCacheGenerator_m_ChildControlHeightP21CustomAttributesCache
vBd:_Convert_ToSByte_m4075629912
wAj:dynCall_vii
d6:__ZN4PPtrI8MaterialE8TransferI18StreamedBinaryReadILb0EEEEvRT_
f5e:_KeyPairPersistence_FromXml_m746585742
Xrf:_Decoder__ctor_m4046021500
LBb:__Z18Transfer_BlittableI18StreamedBinaryReadILb0EELb0EdEvRK29SerializationCommandArgumentsR31RuntimeSerializationCommandInfo
j4c:_ColorBlock_get_fadeDuration_m121071467
WTi:__ZN6il2cpp6icalls8mscorlib6System8MonoType18GetFields_internalEP20Il2CppReflectionTypeiS5_
q2:__ZN5Unity9Component16CheckConsistencyEv
A1d:_MonoMethod_get_ContainsGenericParameters_m3860345224
y8b:__Z38scripting_class_get_system_type_object17ScriptingClassPtr
IMh:__ZL101RenderPipelineManager_t4036911426_CustomAttributesCacheGenerator_U3CcurrentPipelineU3Ek__BackingFieldP21CustomAttributesCache
R4:__ZN19ShaderPropertySheet37CreateTextureAuxPropertyUninitializedEN9ShaderLab16FastPropertyNameES1_PKc
Hwb:__ZL26Transfer_SimpleNativeClassI19StreamedBinaryWriteILb0EE10RectOffsetLb1EEvRK29SerializationCommandArgumentsR31RuntimeSerializationCommandInfo
phi:_UnityEvent_1_RemoveListener_m4190968495_gshared
Bci:_Comparison_1_EndInvoke_m2438956051_gshared
nKj:b128
yZi:__ZN15dense_hashtableINSt3__24pairIK10KeyWrapperIPK10Il2CppTypeEjEES6_N6il2cpp8metadata14Il2CppTypeHashEN14dense_hash_mapIS6_jSB_NS6_14EqualsComparerINSA_26Il2CppTypeEqualityComparerEEENS0_9allocatorIS8_EEE9SelectKeyESF_SH_E3endEv
fsa:__ZN13GfxDeviceGLES17SetGpuProgramNameEP10GpuProgramPKc
JT:__ZNK11UnityEngine15CloudWebService25WebRequestDownloadHandler11GetProgressEv
GWa:__Z43IsVertexFormatCompatibleWithDynamicBatchingRK14VertexDataInfo
LNf:_Array_InternalArray__ICollection_Add_TisMonoResource_t4103430009_m2699164149_gshared
iSi:__ZN6il2cpp2vm13MetadataCache28GetMethodDefinitionFromIndexEi
pVa:__Z32TransferEnumWithNameForceIntSizeI14SafeBinaryReadN21BuiltinShaderSettings17BuiltinShaderModeEEvRT_RT0_PKc17TransferMetaFlags
Rij:__ZN6il2cpp2os20FileErrnoToErrorCodeEi
M$a:__ZN14SafeBinaryRead19TransferSTLStyleMapINSt3__23mapI39DeprecatedFastPropertyNameSerialization10ColorRGBAfNS1_4lessIS3_EENS1_9allocatorINS1_4pairIKS3_S4_EEEEEEEEvRT_17TransferMetaFlags
ixf:_Decimal_ThrowAtPos_m1170269346
RGh:__ZL98GameObject_t1113636619_CustomAttributesCacheGenerator_GameObject_SendMessage_m3720186693____value1P21CustomAttributesCache
ah:_atexit
wZe:_Selectable_set_image_m3625164794
V2d:_TypeFilter_BeginInvoke_m1623271879
Jqe:_InternalEnumerator_1_get_Current_m1232221964_gshared
Nai:_ReadOnlyCollection_1_System_Collections_Generic_IListU3CTU3E_Insert_m1818924748_gshared
G0i:__ZN6il2cpp2vmL31GetObjectForMissingDefaultValueEj
A8a:__ZN9Texture3D17MainThreadCleanupEv
x3c:_AspectRatioFitter__ctor_m2468506840
kTc:__ZN11UnityEngine15PlatformWrapper30GetVRPlayAreaBoundaryDimensionEv
Dmi:_X509Certificate_get_Hash_m410033711
Xja:__ZN9ShaderLab14SerializedPassC2ERKS0_
Aqc:__Z35Transfer_Blittable_FixedBufferFieldI9JSONWritehEvRK29SerializationCommandArgumentsR31RuntimeSerializationCommandInfo
l:STACKTOP
M4g:_List_1_IndexOf_m3567357949_gshared
NN:__ZNK7Texture14IsDepthTextureEv
_Ac:_cff_get_name_index
y4a:__ZN21EnlightenSceneMapping16BuildRemapTablesEv
x9b:__ZN17TransformInternal27UpdateDeepChildCountUpwardsER18TransformHierarchyii
a2h:_LayoutGroup_SetProperty_TisConstraint_t814224393_m1820208910_gshared
J$c:_ExecuteEvents_Execute_m3613826831
ood:_Swapper_EndInvoke_m1804951082
l7c:_Image_set_type_m2038193736
A:tempBigIntD
TWb:__ZNK25CameraStackRenderingState25CalculateCameraTargetTypeEv
a_d:_PropertyBuilder_GetSetMethod_m128670376
y:tempBigIntR
x:tempBigIntS
w:tempBigIntP
rn:FUNCTION_TABLE_viffi
cLd:_MemoryStream_SetLength_m974389318
J1:__ZN6Object18RegisterInstanceIDEPS_
Xtb:__Z18Transfer_BlittableI24GenerateTypeTreeTransferLb1EsEvRK29SerializationCommandArgumentsR31RuntimeSerializationCommandInfo
afj:__ZN15dense_hashtableINSt3__24pairIK10KeyWrapperIP12Il2CppObjectEN6il2cpp2gc9CachedCCWEEES5_NS7_5utils11PointerHashIS3_EEN14dense_hash_mapIS5_S9_SD_NS5_14EqualsComparerINS0_8equal_toIS4_EEEENS0_9allocatorISA_EEE9SelectKeyESI_SK_E11set_deletedER30dense_hashtable_const_iteratorISA_S5_SD_SM_SI_SK_E
lpa:__ZNK9GfxDevice18GetWorldViewMatrixEv
HTg:__Z70RuntimeInvoker_Single_t1397266774_Single_t1397266774_Int32_t2950945753PFvvEPK10MethodInfoPvPS4_
rNb:__Z20LookRotationToMatrixRK8Vector3fS1_P10Matrix3x3f
SBd:_Convert_ToUInt16_m3902921832
uZi:__ZNK15dense_hashtableINSt3__24pairIK10KeyWrapperINS1_IPK9FieldInfoP11Il2CppClassEEEjEES9_17ReflectionMapHashIS8_EN14dense_hash_mapIS9_jSD_NS9_14EqualsComparerINS0_8equal_toIS8_EEEENS0_9allocatorISB_EEE9SelectKeyESI_SK_E12test_deletedERK24dense_hashtable_iteratorISB_S9_SD_SM_SI_SK_E
JSd:_Assembly_GetTypes_m1724781913
Pqh:__ZL54TypeBuilder_t1073948154_CustomAttributesCacheGeneratorP21CustomAttributesCache
gcj:__ZN15dense_hashtableINSt3__24pairIK10KeyWrapperINS1_IPKcS4_EEEiEES6_24NamespaceAndNamePairHashN14dense_hash_mapIS6_iS9_NS6_14EqualsComparerI26NamespaceAndNamePairEqualsEENS0_9allocatorIS8_EEE9SelectKeyESD_SF_E12expand_arrayEjN21dense_hash_map_traits17integral_constantIbLb0EEE
Wvd:_CollectionBase_GetEnumerator_m654829872
llj:__ZN6il2cpp6icalls8mscorlib6System7Convert17Base64ToByteArrayEPDsib
Lub:__ZL12InvokeMethodI24GenerateTypeTreeTransferEvRK29SerializationCommandArgumentsR31RuntimeSerializationCommandInfo
y2f:_List_1_AddEnumerable_m376418521_gshared
bVe:_Navigation_set_selectOnDown_m1641183109
x8c:_DropdownItem_get_toggle_m2434100135
OMg:__Z79RuntimeInvoker_Void_t1185182177_Byte_t1134296376_Byte_t1134296376_RuntimeObjectPFvvEPK10MethodInfoPvPS4_
pPi:__ZNSt3__218__insertion_sort_3IRN6il2cpp5utils11collections13ArrayValueMapIPK10Il2CppType17Il2CppInteropData26InteropDataToTypeConverterNS1_8metadata14Il2CppTypeLessENSA_26Il2CppTypeEqualityComparerEE12SortComparerEPS8_EEvT0_SH_T_
JTi:__ZNSt3__26vectorINS_4pairIPK10MethodInfoP11Il2CppClassEENS_9allocatorIS7_EEE21__push_back_slow_pathIS7_EEvOT_
ppa:__ZNK9GfxDevice25GetDeviceProjectionMatrixEv
u$f:_Enumerator__ctor_m3170385166_AdjustorThunk
g6i:__ZNSt3__26vectorIP11Il2CppClassNS_9allocatorIS2_EEE21__push_back_slow_pathIS2_EEvOT_
ma:invoke_iidiii
bub:__Z18Transfer_BlittableI24GenerateTypeTreeTransferLb1EtEvRK29SerializationCommandArgumentsR31RuntimeSerializationCommandInfo
JP:__ZN12AudioManager33GetCurrentAmbisonicDefinitionNameE31UnityAudioEffectDefinitionFlags
Mcc:__ZN11UTF16StringC2EPKc10MemLabelId
Zbc:__ZN10systeminfo24GetRuntimePlatformStringEv
$Id:_MonoIO_DeleteFile_m3839141322
kKa:__ZN10SpookyHash5ShortEPKvjPyS2_
