xc:_glClearStencil
aeg:_UInt16_System_IConvertible_ToChar_m2096055221_AdjustorThunk
fJf:_Array_TrueForAll_TisRuntimeObject_m1084992726_gshared
bij:__ZN6il2cpp2vm5Array13GetByteLengthEP11Il2CppArray
Bxi:_KeyBuilder_get_Rng_m3373220441
rSa:__Z30GetIntermediateRendererManagerv
Vxa:__Z21SourceMipLevelForBlitiiii
TWa:__ZN31CanvasBatchIntermediateRenderer15AddAsRenderNodeER15RenderNodeQueueRK20DeprecatedSourceData
rbg:_TimeSpan_get_Hours_m550761902
iOd:_UnmanagedMemoryStream_Write_m930787521
yr:__ZN11UnityEngine9Animation28GenericAnimationBindingCacheD2Ev
ioi:_X509Store_LoadCrl_m1881903843
d0h:_Array_Sort_TisUICharInfo_t75501106_TisUICharInfo_t75501106_m722747892_gshared
R6a:__ZNSt3__26vectorI13dynamic_arrayI8Vector2fLj4EENS_9allocatorIS3_EEEC2INS_11__wrap_iterIPS3_EEEET_SB_RKS5_PNS_9enable_ifIXaasr21__is_forward_iteratorISB_EE5valuesr16is_constructibleIS3_NS_15iterator_traitsISB_E9referenceEEE5valueEvE4typeE
ZXb:__Z18RestoreRenderStateR20CameraRenderOldStateR17ShaderPassContext
tyb:__Z18Transfer_BlittableI18StreamedBinaryReadILb1EELb1E5RectTIfEEvRK29SerializationCommandArgumentsR31RuntimeSerializationCommandInfo
lub:__Z18Transfer_BlittableI24GenerateTypeTreeTransferLb0E11ColorRGBA32EvRK29SerializationCommandArgumentsR31RuntimeSerializationCommandInfo
eDb:__Z25scripting_class_from_name17ScriptingImagePtrPKcS1_
aMf:_Array_InternalArray__IndexOf_TisKeyValuePair_2_t3699644050_m1021241249_gshared
H2i:__ZN14dense_hash_mapI10KeyWrapperINSt3__24pairIPK12PropertyInfoP11Il2CppClassEEEj17ReflectionMapHashIS8_ENS9_14EqualsComparerINS1_8equal_toIS8_EEEENS1_9allocatorINS2_IKS9_jEEEEE15set_deleted_keyERSH_
FEb:__Z29scripting_class_enum_basetype17ScriptingClassPtr
dte:_InternalEnumerator_1_get_Current_m1477715453_gshared
Ilb:__ZNK20LocalFileSystemPosix6ParentERK13FileEntryDataRN4core12basic_stringIcNS3_20StringStorageDefaultIcEEEE
kvg:_RectTransform_GetWorldCorners_m3553547973
Heh:_Collection_1_System_Collections_IList_Remove_m1476284619_gshared
iQd:_MonoType_IsPrimitiveImpl_m2401722705
tjf:_SHA1CryptoServiceProvider__ctor_m4195188793
Ukg:_CSSMeasureFunc_BeginInvoke_m3802154595
s8c:_Dropdown_Hide_m504034854
GLa:__ZN17PersistentManager22CheckInstanceIDsLoadedEPii
O3a:__ZN9Texture2D25CreateScaledAndPaddedDataEPP17SharedTextureDataS2_
ezg:_Vector2_get_up_m2647420593
zva:__ZN7ApiGLES17CopyBufferSubDataEjjlll
bPf:_Array_InternalArray__ICollection_CopyTo_TisUInt64_t4134040092_m691431926_gshared
gaf:_IPAddress_ToString_m1181734207
Z6f:_StringBuilder_Append_m1965104174
Uoc:__ZN5Unity9rapidjson15GenericDocumentINS0_4UTF8IcEE13JSONAllocatorS4_E11ParseStreamILj1ES3_NS0_25GenericInsituStringStreamIS3_EEEERS5_RT1_
EVf:_EqualityComparer_1__cctor_m3766928733_gshared
eQb:__ZN25CameraStackRenderingState20GetOrCreateBuiltinRTE24BuiltinRenderTextureTypeii17DepthBufferFormat19RenderTextureFormatj22RenderTextureReadWrite14VRTextureUsagei
xgi:_UnityAction_1_Invoke_m610765085_gshared
vO:__ZN11AudioModule26SetDefaultMicrophoneDriverEPv
S5d:_Kernel_modInverse_m652700340
j8a:__ZNK14Texture2DArray26CanReuploadDataToGfxDeviceEv
tUb:__ZN17PrePassRenderLoop14RenderBasePassEP13RenderTextureRK14LightingLayersR13dynamic_arrayI16RenderObjectDataLj4EERbR10MinMaxAABB
Jmc:__ZN5IMGUI18RepaintModalWindowER8GUIState
i4:__ZNK15dense_hashtableINSt3__24pairIKN9ShaderLab7Program23ShaderKeywordSetAndHashEPKNS2_10SubProgramEEES4_NS3_24ShaderKeywordHashFunctorEN14dense_hash_mapIS4_S8_SA_NS0_8equal_toIS4_EE13stl_allocatorIS9_L18MemLabelIdentifier67ELi16EEE9SelectKeyESD_SG_E23find_position_with_hashERS5_j
IDf:_CompareInfo_Finalize_m404687489
U6a:__Z23SetSpriteMeshIndexCountP14SharedMeshDataj
V8f:_UTF8Decoder_GetChars_m1236346907
wxg:_TouchScreenKeyboard_Open_m231964201
W_a:__ZN7Texture13SetFilterModeEi
Djj:__ZN6il2cpp8metadata13GenericMethod9GetMethodEPK19Il2CppGenericMethod
mq:__ZNSt3__26vectorIN4core12basic_stringIcNS1_20StringStorageDefaultIcEEEENS_9allocatorIS5_EEE7reserveEj
PTd:_Default_SelectProperty_m1220817815
UDe:_RemotingConfiguration_IsRemotelyActivatedClientType_m4117048589
mvg:_Transform_TransformPoint_m226827784
spa:__ZN13GfxDeviceGLES11SetViewportERK5RectTIiE
zjc:__Z24Time_Get_Custom_PropTimev
Od:_emscripten_glDepthRange
Bge:_SslStreamBase_BeginNegotiateHandshake_m4180435790
m_b:__ZNSt3__26vectorINS_4pairIN4core12basic_stringIcNS2_20StringStorageDefaultIcEEEES6_EE13stl_allocatorIS7_L18MemLabelIdentifier38ELi16EEE12__move_rangeEPS7_SC_SC_
Cia:__Z14resize_trimmedINSt3__26vectorIN9ShaderLab20SerializedSubProgram12UAVParameterENS0_9allocatorIS4_EEEEEvRT_j
mpc:__ZN5Unity9rapidjson13GenericReaderINS0_4UTF8IcEES3_13JSONAllocatorE11ParseObjectILj1ENS0_25GenericInsituStringStreamIS3_EENS0_15GenericDocumentIS3_S4_S4_EEEEvRT0_RT1_
M2c:_StandaloneInputModule_GetRawMoveVector_m2737091079
fXh:__ZL62Selectable_t3250028441_CustomAttributesCacheGenerator_m_ColorsP21CustomAttributesCache
Uge:_SslStreamBase_EndWrite_m4073224031
H1:__ZNSt3__218__insertion_sort_3IRNS_6__lessI14ObjectLoadDataS2_EEPS2_EEvT0_S6_T_
pxa:__ZN4crndL20crnd_default_reallocEPvjPjbS0_
vxj:__ZNSt3__212basic_stringIcNS_11char_traitsIcEENS_9allocatorIcEEEC2ERKS5_
K7a:__ZN18SpriteAtlasManager19AddRequestingSpriteE4PPtrI6SpriteE
kjc:__Z33Texture_CUSTOM_Internal_GetHeightP12Il2CppObject
kBe:_ValueCollection_System_Collections_ICollection_get_SyncRoot_m3381653267_gshared
cXb:__ZN23ScriptableRenderContextC2Ev
gbd:_GridLayoutGroup_get_spacing_m2409263614
dAe:_Enumerator_MoveNext_m3051926902_gshared
K2f:_List_1_CheckIndex_m581273900_gshared
DGc:_UNITY_FT_Stream_GetChar
Uyb:__Z18Transfer_BlittableI18StreamedBinaryReadILb1EELb1EdEvRK29SerializationCommandArgumentsR31RuntimeSerializationCommandInfo
NEb:__Z26BuildSerializationCacheFor17ScriptingClassPtrRb
zDa:__ZN7ApiGLES15BlitFramebufferEN2gl6HandleILNS0_10ObjectTypeE9EEENS0_15FramebufferReadES3_S3_iiiiiiiiNS0_15FramebufferTypeE
TMg:__Z112RuntimeInvoker_RuntimeObject_RuntimeObject_RuntimeObject_RuntimeObject_RuntimeObject_RuntimeObject_RuntimeObjectPFvvEPK10MethodInfoPvPS4_
sse:_InternalEnumerator_1_System_Collections_IEnumerator_get_Current_m3553395619_AdjustorThunk
lnd:_Array_SetValue_m3998268557
Evc:__ZN8JSONRead8TransferI8Vector4fEEvRT_PKc17TransferMetaFlagsb
C5c:_ColorBlock_set_highlightedColor_m2089444414_AdjustorThunk
Xug:_RectTransform_INTERNAL_set_anchoredPosition_m939517950
mde:_Context_EndSwitchingSecurityParameters_m4148956166
HBc:_otv_PairPos_validate
aw:__ZN7mecanim9animation14CopyHumanPosesEPKNS0_18AnimationNodeStateEPS1_RKNS_6bitsetILj83EEE
BUi:__ZN6il2cpp6icalls8mscorlib6SystemL8IsStaticEPK12PropertyInfo
cGb:__Z9InitInputv
CDc:_UNITY_tt_face_build_cmaps
c_i:__ZN6il2cpp2gc19AppendOnlyGCHashMapINSt3__24pairIPK10MethodInfoP11Il2CppClassEEP22Il2CppReflectionMethod17ReflectionMapHashIS9_ENS2_8equal_toIS9_EEE3AddERKS9_SB_
Nmb:__ZN16MemoryFileSystem6DeleteER13FileEntryDatab
DHg:__Z81RuntimeInvoker_Void_t1185182177_RuntimeObject_Int64_t3736567304_Int32_t2950945753PFvvEPK10MethodInfoPvPS4_
V3f:_List_1_set_Item_m1979164443_gshared
lya:__ZL21BlitScaleStbImageImplRK14ImageReferenceRS_NS_10ColorSpaceE
Qpd:_Boolean_System_IConvertible_ToUInt16_m3465173538_AdjustorThunk
DPe:_InputField_get_keyboardType_m1248105267
cqb:__Z29Transfer_Blittable_ArrayFieldI14SafeBinaryReadyEvRT_R9ArrayInfoRK23StaticTransferFieldInfo
kM:__ZN20SoundChannelInstance15setChannelGroupEPN4FMOD12ChannelGroupE
Goi:_Match__ctor_m2425511580
lc:invoke_vifffii
u9i:__ZN6il2cpp2vm9Exception27RaiseNullReferenceExceptionEv
vOa:__ZNK25MultiBlocksMemoryFileData5CloneEv
jpj:_GC_add_ext_descriptor
tYi:__ZNK15dense_hashtableINSt3__24pairIK10KeyWrapperINS1_IPK14Il2CppAssemblyP11Il2CppClassEEEjEES9_17ReflectionMapHashIS8_EN14dense_hash_mapIS9_jSD_NS9_14EqualsComparerINS0_8equal_toIS8_EEEENS0_9allocatorISB_EEE9SelectKeyESI_SK_E23find_position_with_hashERSA_j
Z1h:_LayoutGroup_SetProperty_TisSingle_t1397266774_m793506911_gshared
sfd:_CryptoConfig_CreateFromName_m1538277313
wzj:dynCall_iiiiiiiiiiii
OPe:_InputField_set_caretPositionInternal_m3823580651
pZe:_Selectable_set_interactable_m3105888815
dXa:__ZL26KeywordSetToStringDontSortRKNSt3__26vectorIN4core12basic_stringIcNS1_20StringStorageDefaultIcEEEENS_9allocatorIS5_EEEERS5_
dAa:__ZN6prcoreL17RemapGenericFloatI16TexFormatRGFloat17TexFormatRGBAHalfEEvPKNS_9InnerInfoE
tG:__ZN12AudioManager22CreateFMODSoundFromWWWEP10IWWWStream15FMOD_SOUND_TYPE17FMOD_SOUND_FORMATjjbbP10SampleClip
S5b:__ZNK32RendererMaterialAnimationBinding15GenerateBindingERKN4core12basic_stringIcNS0_20StringStorageDefaultIcEEEEbRN11UnityEngine9Animation14GenericBindingE
Q2d:_TargetException__ctor_m4172127019
W2g:_List_1_CheckCollection_m274117203_gshared
IRh:__ZL70EventSystem_t1003666588_CustomAttributesCacheGenerator_m_FirstSelectedP21CustomAttributesCache
b_:__ZN8Remapper23GetOrGenerateInstanceIDERK26SerializedObjectIdentifier
o6c:_ColorTween_get_startColor_m3792586410_AdjustorThunk
Ya:invoke_iiiiiifffiiifii
AEg:__Z85RuntimeInvoker_Void_t1185182177_Int32_t2950945753_Int32_t2950945753_Int32_t2950945753PFvvEPK10MethodInfoPvPS4_
ERd:_CustomInfo__ctor_m426096741
f$c:_EventSystem_ToString_m3779610692
d7a:__ZN6Sprite8TransferI24GenerateTypeTreeTransferEEvRT_
okc:__Z48Register_UnityEngine_Transform_SetAsFirstSiblingv
p1a:__ZNK18DelayedCallManager22GetTypeVirtualInternalEv
g7a:__ZN7SubMesh8TransferI24GenerateTypeTreeTransferEEvRT_
CVi:_NativeTypeAttribute__ctor_m133676646
vhh:_Collection_1_System_Collections_IList_Contains_m296643274_gshared
kId:_DirectoryInfo__ctor_m126519516
p$d:_MethodBase_GetMethodFromIntPtr_m3014201362
scc:__ZN9Transform23SetSiblingIndexInternalEib
Dyd:_Enumerator_MoveNext_m635366482
bkd:_X509Extension_Equals_m1222951829
uu:__ZN7mecanim5human12HumanPoseSubERNS0_9HumanPoseERKS1_S4_
Adj:__ZN6il2cpp8metadata15GenericMetadata15GetGenericClassEiPK17Il2CppGenericInst
Dob:__Z18Transfer_BlittableI14SafeBinaryReadLb0E10Matrix4x4fEvRK29SerializationCommandArgumentsR31RuntimeSerializationCommandInfo
cEb:__Z24GetFixedBehaviourManagerv
xTi:__ZN6il2cpp2vm10ThreadPool4WaitEP17Il2CppAsyncResultPPv
w$e:_Text_UpdateGeometry_m3634850647
Uni:_X509Crl_VerifySignature_m1377612461
Kuj:_vfprintf
gnc:__ZN10GUIManager12AddGUIScriptER8ListNodeI13MonoBehaviourE
Syd:_Stack_Clear_m2010200235
lyc:_cf2_getVStore
X0c:_PointerEventData_set_pointerPressRaycast_m1363193059
aOb:__ZN20DynamicPropertySheetD0Ev
e5d:_SafeHandle_Dispose_m4229010569
q_b:__ZN14SafeBinaryRead17RegisterConverterEPKcS1_PFbPvRS_E
nKh:__ZL77RuntimePlatform_t4159857903_CustomAttributesCacheGenerator_OSXDashboardPlayerP21CustomAttributesCache
m8:__ZN35RegisterRuntimeInitializeAndCleanup8RegisterEPFvPvES2_iS0_
yli:_SubjectAltNameExtension_get_IPAddresses_m1641002124
vXd:_FieldBuilder_SetValue_m828035213
bQf:_Array_InternalArray__Insert_TisSingle_t1397266774_m3161726127_gshared
skc:__Z21Object_CUSTOM_DestroyP12Il2CppObjectf
foa:__ZN8Material26ResetAllCachedMaterialDataEP6Shader
vLg:__Z63RuntimeInvoker_Void_t1185182177_RuntimeObject_Int16_t2552820387PFvvEPK10MethodInfoPvPS4_
PGc:_UNITY_TT_Get_MM_Var
bOe:_ObjectManager_AddFixup_m2154325362
uue:_Comparer_1__cctor_m3761458313_gshared
fwf:_DateTimeOffset_CompareTo_m1350732322_AdjustorThunk
aa:invoke_diddi
OOc:__ZNK2UI6Canvas13GetRenderModeEv
Img:_PersistentCall__ctor_m1217622171
fLf:_Array_compare_TisCustomAttributeTypedArgument_t2723150157_m1384644047_gshared
U6e:_StrongName_get_TokenAlgorithm_m1794722022
Onb:__Z18Transfer_BlittableI14SafeBinaryReadLb0EiEvRK29SerializationCommandArgumentsR31RuntimeSerializationCommandInfo
jSi:__ZN6il2cpp2vm13MetadataCache30GetPropertyDefinitionFromIndexEi
Jxi:_SymmetricTransform_Transform_m1683494363
yVc:__ZN22BaseUnityConnectClient17InitializeSessionERKN4core12basic_stringIcNS0_20StringStorageDefaultIcEEEES6_N19CloudServiceHandler13InitModeFlagsE
nRg:__Z74RuntimeInvoker_RuntimeObject_Int32_t2950945753_RuntimeObject_RuntimeObjectPFvvEPK10MethodInfoPvPS4_
Q8g:_List_1_get_Item_m200663048_gshared
sFj:_emscripten_glDeleteBuffers__wrapper
Vdc:__ZN13MonoBehaviour34StopCoroutineFromEnumeratorManagedE18ScriptingObjectPtr
Yhg:_Application_set_targetFrameRate_m3682352535
jzg:_Vector3__ctor_m1719387948_AdjustorThunk
dgb:__ZN30RuntimeInitializeOnLoadManager8TransferI18StreamedBinaryReadILb0EEEEvRT_
rvf:_DateTimeOffset__ctor_m2084804982
cDc:_UNITY_tt_face_load_pclt
pdc:__ZL34GetComponentsImplementationRecurseILb1ELi0ELi2EEbR10GameObjectbRK17CompareParametersRK39GetComponentsImplementation_ReturnValue
QFa:__ZN20ComputeShaderVariantD2Ev
_og:_Material_GetTexture_m3545614349
mCg:__Z64RuntimeInvoker_RuntimeObject_Int32_t2950945753_Int16_t2552820387PFvvEPK10MethodInfoPvPS4_
AWf:_EqualityComparer_1__cctor_m4244842342_gshared
xNb:__ZNK6Camera18WorldToScreenPointERK8Vector3fPb
hwg:_SendMouseEvents_DoSendMouseEvents_m2140870850
Gpi:_PatternCompiler_EmitJump_m3915926156
ICa:__Z18IsCompressedFormat14GraphicsFormat
Pu:__ZN7mecanim9animation19AdjustPoseForMotionERKNS0_14AvatarConstantERKNS0_14SkeletonTQSMapERKN4math4trsXERNS_10ValueArrayERNS_8skeleton13SkeletonPoseTIS8_EESG_
Gbg:__Z33il2cpp_codegen_check_add_overflowxx
dZ:__ZNSt3__227__insertion_sort_incompleteIRPFbRKN18AwakeFromLoadQueue4ItemES4_EPS2_EEbT0_S9_T_
vKh:__ZL73RuntimePlatform_t4159857903_CustomAttributesCacheGenerator_MetroPlayerARMP21CustomAttributesCache
DHd:_InvalidOperationException__ctor_m1685032583
jQi:__ZN14dense_hash_mapI10KeyWrapperIN6il2cpp5utils13dynamic_arrayIPK10Il2CppTypeLj4EEEEPFvvENS1_8metadata19Il2CppSignatureHashENS8_14EqualsComparerINSB_22Il2CppSignatureCompareEEENSt3__29allocatorINSG_4pairIKS8_SA_EEEEE15set_deleted_keyERSJ_
mcg:_TimeSpan_op_Subtraction_m3592306516
yYf:_EqualityComparer_1_System_Collections_IEqualityComparer_GetHashCode_m1517903420_gshared
F4a:__ZN26EnlightenSystemInformation8TransferI14SafeBinaryReadEEvRT_
ifb:__ZN24GenerateTypeTreeTransfer8TransferINSt3__26vectorIN15ResourceManager10DependencyE13stl_allocatorIS4_L18MemLabelIdentifier52ELi16EEEEEEvRT_PKc17TransferMetaFlags
AIi:_CanvasRenderer_SplitUIVertexStreams_m2753637362
LSg:__Z119RuntimeInvoker_Void_t1185182177_RuntimeObject_Single_t1397266774_Single_t1397266774_SByte_t1669577662_Int32_t2950945753PFvvEPK10MethodInfoPvPS4_
NWc:__ZN11UnityEngine15PlatformWrapper20SetPlayerPrefsUInt64ERKN4core12basic_stringIcNS1_20StringStorageDefaultIcEEEEy
ubb:__ZN12MeshRendererD0Ev
IP:__ZN12AudioManager35GetCurrentSpatializerDefinitionNameEv
zh:_utime
_ri:_BalancingGroup_Compile_m2575117193
HB:__Z28SetExposedSkeletonTransformsRKN7mecanim9animation14AvatarConstantERKN11UnityEngine9Animation30AnimatorGenericBindingConstantERKNS_8skeleton13SkeletonPoseTIN4math4trsXEEERKNSA_INSB_7affineXEEERNS5_21AvatarBindingConstantEy
AXi:__ZNSt3__26vectorIN6il2cpp2vm17TypeNameParseInfoENS_9allocatorIS3_EEE8allocateEj
Boi:_Mark_get_Index_m3048692661_AdjustorThunk
qn:FUNCTION_TABLE_viiiiif
_te:_DefaultComparer_Compare_m3931992727_gshared
vn:FUNCTION_TABLE_viiiiii
Wse:_InternalEnumerator_1_System_Collections_IEnumerator_get_Current_m1847780851_AdjustorThunk
zwi:_GUILayoutUtility_get_spaceStyle_m3392862907
rFd:_Int32_System_IConvertible_ToType_m3009233912_AdjustorThunk
svf:_DateTimeOffset__ctor_m74032857
hD:__ZN7mecanim9animation22DestroyAvatarWorkspaceEPNS0_15AvatarWorkspaceERNS_6memory9AllocatorE
fdg:_Type_type_is_assignable_from_m76737532
xUb:__ZN15LightmapSTCacheC2ER13BatchRendererR15RenderLoopStats
i1a:__ZN14PlayableOutput17SetSourcePlayableEP8Playable
xC:__ZN7mecanim9animation29MotionOutputGetDeltaTransformEPKNS0_12MotionOutputE
nbi:_ReadOnlyCollection_1_System_Collections_Generic_ICollectionU3CTU3E_Add_m2369252587_gshared
Njc:__Z43Transform_CUSTOM_INTERNAL_get_localRotationP12Il2CppObjectP11Quaternionf
nEf:_CultureInfo_get_Parent_m672689885
Dpj:__ZN6il2cpp6icalls8mscorlib6System10Reflection4Emit13ModuleBuilder13RegisterTokenEP29Il2CppReflectionModuleBuilderP12Il2CppObjecti
yDj:_glGetShaderInfoLog__wrapper
MNe:_ObjectReader_ReadObjectGraph_m340866276
ci:_emscripten_glGetTexParameteriv
_Sc:__ZN11UnityEngine7Connect15DeviceInfoEvent7GFXInfoD2Ev
VEj:_glGenTextures__wrapper
Zia:__ZN9ShaderLab20SerializedSubProgram14ConstantBufferaSERKS1_
A2b:__Z13RegisterClassI4MeshEvv
CNh:__ZL74SharedBetweenAnimatorsAttribute_t2857104338_CustomAttributesCacheGeneratorP21CustomAttributesCache
H_a:__ZN8PlayableD0Ev
wg:emscriptenWebGLGetBufferBinding
YH:__ZN12AudioManager8TransferI19StreamedBinaryWriteILb0EEEEvRT_
SZe:_Slider_UpdateCachedReferences_m3259451627
Ige:_SslStreamBase_get_KeyExchangeStrength_m217695965
RJg:__Z50RuntimeInvoker_Double_t594665363_Double_t594665363PFvvEPK10MethodInfoPvPS4_
Kzb:__ZN18StreamedBinaryReadILb1EE21TransferSTLStyleArrayI13dynamic_arrayI11ColorRGBA32Lj4EEEEvRT_17TransferMetaFlags
m6i:__ZN15dense_hashtableINSt3__24pairIK10KeyWrapperINS1_IP11Il2CppClassjEEES4_EES6_N6il2cpp8metadata14ArrayClassHashEN14dense_hash_mapIS6_S4_SB_NS6_14EqualsComparerINSA_17ArrayClassCompareEEENS0_9allocatorIS8_EEE9SelectKeyESF_SH_E6insertERKS8_
P8c:_U3CShowU3Ec__AnonStorey1_U3CU3Em__0_m2340880019
Nki:_TlsStream_Flush_m3793197834
qlb:__ZN22LocalFileSystemHandler9MakeLocalER13FileEntryDatab
$kj:__ZN6il2cpp2vm8Profiler10AllocationEP12Il2CppObjectP11Il2CppClass
_Uh:__ZL61Graphic_t1660335611_CustomAttributesCacheGenerator_m_MaterialP21CustomAttributesCache
kLc:__ZNSt3__23mapIN20TextRenderingPrivate7FontRefENS1_6OSFontENS_4lessIS2_EENS_9allocatorINS_4pairIKS2_S3_EEEEEixERS8_
mga:__Z13FormatOrderedPKcz
YUi:__ZN6il2cpp2vm8basepathEPKc
Fdf:_X509Chain_GetAuthorityKeyIdentifier_m614536199
KIc:__ZN14SafeBinaryRead21TransferSTLStyleArrayI10vector_mapINSt3__24pairIttEEfN20TextRenderingPrivate8FontImpl14KerningCompareENS2_9allocatorINS3_IS4_fEEEEEEEvRT_17TransferMetaFlags
$be:_TlsServerFinished__ctor_m1445633918
ODd:_NumberFormatter_FastIntegerToString_m390846811
wKh:__ZL68RuntimePlatform_t4159857903_CustomAttributesCacheGenerator_WP8PlayerP21CustomAttributesCache
iUb:__ZN25DeferredRenderLoopScratchD0Ev
Sw:__ZN27AnimationLayerMixerPlayable14SetInputWeightEif
A0c:_PhysicsRaycaster_Raycast_m776323695
Eyg:_UnityException__ctor_m1456865679
qu:__ZN7mecanim9animation17EvaluateHumanPoseERKNS0_18ClipMuscleConstantERKNS0_15ClipMuscleInputEPKfRKNS0_12MotionOutputERNS_5human9HumanPoseE
hia:__ZN15dense_hashtableINSt3__24pairIKiN4core17string_with_labelILi1EEEEEi18SInt32HashFunctionN14dense_hash_mapIiS5_S7_NS0_8equal_toIiEE13stl_allocatorIS6_L18MemLabelIdentifier1ELi16EEE9SelectKeyESA_SD_E9copy_fromERKSG_j
nUd:_CustomAttributeNamedArgument_GetHashCode_m2317130892
Feb:__ZN15ResourceManagerD0Ev
oMe:_WellKnownClientTypeEntry_ToString_m1119458503
v4:__ZN22CreateGpuProgramOutputD2Ev
T7g:_List_1_get_Item_m1378751541_gshared
vjf:_SHA1CryptoServiceProvider_Finalize_m1793183797
d_f:_HashSet_1_System_Collections_Generic_ICollectionU3CTU3E_CopyTo_m408073502_gshared
I8d:_EncryptedPrivateKeyInfo_get_EncryptedData_m491452551
Bkb:__ZN12HandlerChain4OpenER13FileEntryData14FilePermission16FileAutoBehavior
EYg:__Z72RuntimeInvoker_Void_t1185182177_Int32_t2950945753_RaycastHit_t1056001966PFvvEPK10MethodInfoPvPS4_
g_i:__ZN15dense_hashtableINSt3__24pairIK10KeyWrapperINS1_IPK10MethodInfoP11Il2CppClassEEEjEES9_17ReflectionMapHashIS8_EN14dense_hash_mapIS9_jSD_NS9_14EqualsComparerINS0_8equal_toIS8_EEEENS0_9allocatorISB_EEE9SelectKeyESI_SK_E6insertERKSB_
I8f:_UTF8Encoding_GetCharCount_m2272165989
jnd:_Array_SetValue_m394135409
$0:__ZN14FileCacherReadD2Ev
Dhb:__ZN13RendererScene23UpdatePreviousFrameDataEii
Kqf:_String_Remove_m562998446
Lfc:__Z50Register_UnityEngine_CullingGroup_FinalizerFailurev
imf:_SecurityPermission_IsSubsetOf_m545000671
lib:__ZN27UnloadUnusedAssetsOperationD0Ev
EPb:__ZN28LightProbeProxyVolumeContextC2E10MemLabelId
uxj:__ZNKSt3__221__basic_string_commonILb1EE20__throw_out_of_rangeEv
jlg:_Cursor_get_lockState_m2828192107
jWi:_UpdatedEventHandler_Invoke_m1320302085
LF:__ZN9AudioClip23VirtualRedirectTransferER18StreamedBinaryReadILb0EE
p8g:_List_1_AddEnumerable_m2724989594_gshared
NRg:__Z82RuntimeInvoker_Vector2_t2156229523_Vector2_t2156229523_RuntimeObject_RuntimeObjectPFvvEPK10MethodInfoPvPS4_
qHa:__ZN18GlslGpuProgramGLESC2ERK13dynamic_arrayIhLj1EER22CreateGpuProgramOutput
tlc:__Z70Register_UnityEngine_Playables_PlayableHandle_GetPlayableType_Injectedv
B7d:_ARC4Managed_TransformBlock_m1687647868
Ej:_glCopyTexSubImage2D
Jyg:_UnitySynchronizationContext_ExecuteTasks_m1310741010
bif:_RIPEMD160Managed_CompressFinal_m497690796
GZb:__ZN18ScreenManagerWebGL13SetShowCursorEb
DJb:__ZN13DrawImmediateC2ER9GfxDevice
Vuj:_frexp
zob:__Z18Transfer_BlittableI14SafeBinaryReadLb0E5RectTIfEEvRK29SerializationCommandArgumentsR31RuntimeSerializationCommandInfo
OGd:_NumberFormatter_NumberToString_m2562899600
PBc:_otv_u_C_x_Ox
Vwa:__ZN18AsyncUploadManager19AsyncResourceUploadER9GfxDeviceii9TextureID
fua:__ZN14GfxContextGLES14GetFramebufferEv
JFj:_emscripten_glGenVertexArrays__wrapper
qhg:_Version_Clone_m1749041863
Qya:__ZN6prcoreL21CreateRemapAnyBlitterE13TextureFormatS0_
e9d:_RSAManaged_ExportParameters_m1754454264
xbc:__ZN17AnimationCurveTplIfE16StripInvalidKeysEv
bqd:_Boolean_Equals_m535526264_AdjustorThunk
VOc:__ZNK2UI6Canvas17GetSortingLayerIDEv
x4i:_il2cpp_method_has_attribute
s2b:__Z13RegisterClassI17GlobalGameManagerEvv
n6:__ZN8Renderer24SetupNewRendererForSceneEv
adg:_Type_internal_from_name_m1721940673
nCf:_Environment_get_TickCount_m2088073110
jJe:_RemotingServices_GetMethodBaseFromName_m3194612939
Otc:__Z35Transfer_Blittable_FixedBufferFieldI8JSONReadtEvRK29SerializationCommandArgumentsR31RuntimeSerializationCommandInfo
H8b:__ZN14PlayableOutput6HandleEv
C6a:__ZNK6Sprite22GetTypeVirtualInternalEv
fZc:__ZN13RuntimeStaticINSt3__26vectorI23UnityVRDeviceDefinition13stl_allocatorIS2_L18MemLabelIdentifier90ELi16EEEELb0EE13StaticDestroyEPv
pn:FUNCTION_TABLE_iiiiiiiiiiiiii
GCc:_UNITY_tt_get_cmap_info
lvb:__Z29Transfer_Blittable_ArrayFieldI24GenerateTypeTreeTransfer5RectTIiEEvRT_R9ArrayInfoRK23StaticTransferFieldInfo
KXa:__ZN16ReflectionProbes8ScheduleEN18ReflectionProbeJob7JobTypeEP15ReflectionProbei
dce:_ClientSessionInfo_KeepAlive_m1020179566
dPc:__ZN13dynamic_arrayIN2UI13UIInstructionELj4EE12emplace_backEv
kMa:__Z18IsDirectoryCreatedRKN4core12basic_stringIcNS_20StringStorageDefaultIcEEEE
Xlf:_String_FormatHelper_m3913915042
UNc:__ZN2UI13CanvasManagerD2Ev
UTd:_ConstructorInfo__cctor_m1016079270
uNi:__ZN15dense_hashtableINSt3__24pairIK10KeyWrapperIPKcEP11Il2CppClassEES5_N6il2cpp5utils11StringUtils12StringHasherIS4_EEN14dense_hash_mapIS5_S8_SE_NS5_14EqualsComparerINSB_13VmStringUtils21CaseSensitiveComparerEEENS0_9allocatorIS9_EEE9SelectKeyESJ_SL_E15set_deleted_keyERKS9_
hld:_AttrListImpl_get_Names_m977594476
NKc:_UNITY_FT_GlyphLoader_Done
I2d:_Pointer_Box_m389276611
bAf:_StackTrace_get_FrameCount_m344690939
XNd:_UnexceptionalStreamWriter_Write_m363195622
iLc:__ZN20TextRenderingPrivate25ReadFontFileAndAddToCacheERKN4core12basic_stringIcNS0_20StringStorageDefaultIcEEEE
HDc:_tt_cmap14_char_var_index
BQe:_Selectable_OnPointerDown_m1086067264
SHc:_psh_globals_new
h8c:_Dropdown_SetupTemplate_m628218778
$8f:_Thread_GetCompressedStack_m2923422412
Tud:_SynchronizedArrayListWrapper_CopyTo_m4207791406
Ubf:_X509BasicConstraintsExtension_ToString_m1809935297
Eoa:__ZN9GfxDevice20SetMaxBufferedFramesEi
Fii:_TweenRunner_1_StartTween_m1055628540_gshared
C6h:_ReadOnlyCollection_1_System_Collections_IList_Remove_m4129318771_gshared
L1h:_GameObject_GetComponents_TisRuntimeObject_m1246177135_gshared
Mzj:dynCall_vdd
GOd:_MethodAccessException__ctor_m3542088436
L$b:__Z23ConvertIntegerToTypePtrIsEbPvR14SafeBinaryRead
PVf:_EqualityComparer_1_System_Collections_IEqualityComparer_GetHashCode_m2230215241_gshared
mYh:__ZL60ContentSizeFitter_t3850442145_CustomAttributesCacheGeneratorP21CustomAttributesCache
$wd:_Hashtable_Contains_m2145146412
bFh:__ZL64UnmarshalledAttribute_t1517743549_CustomAttributesCacheGeneratorP21CustomAttributesCache
Dac:__ZN4Mesh24UpdateSubMeshVertexRangeEi
DDd:_Int32_FindCurrency_m3541026887
Jhf:_Interval_CompareTo_m3282557545
HGj:_pthread_cond_wait__wrapper
vTb:__ZNK14RenderSettings19GetFlatAmbientColorEv
qya:__ZN6prcoreL10inner_flipILj4EEEvPhS1_j
ndb:__ZN18StreamedBinaryReadILb0EE21TransferSTLStyleArrayI10vector_mapIPKN5Unity4TypeE7Hash128NSt3__24lessIS6_EENS8_9allocatorINS8_4pairIS6_S7_EEEEEEEvRT_17TransferMetaFlags
Py:__ZNK27StateMachineBehaviourPlayer15IsSenderEnabledEv
Hid:_RijndaelManagedTransform_TransformBlock_m1610137419
jkc:__Z40Register_UnityEngine_Transform_SetParentv
r8a:__ZN14Texture2DArray17UploadToGfxDeviceEv
FJ:__Z14FMODMemoryFreePvjPKc
Bmg:_NetFxCoreExtensions_GetMethodInfo_m444570327
ARb:__Z14SetSHConstantsR13BatchRendererR17ShaderPassContextRK20SphericalHarmonicsL2b
Crd:_Char_System_IConvertible_ToDecimal_m3534906463
Syc:_cf2_glyphpath_moveTo
Qwg:_StackTraceUtility_SetProjectFolder_m830524047
qv:__ZN7mecanim23TransformValueArrayLoopEiiiRKN4math4trsXES3_RNS_10ValueArrayEf
sce:_ClientSessionInfo_Finalize_m2165787049
bnc:__ZN5IMGUI14GUIWindowStateD2Ev
pbe:_ClientContext_Clear_m1774063253
Pac:__ZN4Mesh17SetIndicesComplexEPKvjj16GfxPrimitiveTypeij
Juf:_DateTime_AddSeconds_m332574389_AdjustorThunk
xyg:_RequestAtlasCallback_Invoke_m378128467
Kqd:_Byte_System_IConvertible_ToSByte_m1869482168
SHg:__Z99RuntimeInvoker_RuntimeObject_RuntimeObject_RuntimeObject_StreamingContext_t3711869237_RuntimeObjectPFvvEPK10MethodInfoPvPS4_
JB:__ZN7mecanim5human10RetargetToEPKNS0_5HumanEPKNS0_9HumanPoseES6_RKN4math4trsXEPS4_PNS_8skeleton13SkeletonPoseTIS8_EESF_
iv:__ZN7mecanim9animation8SeekClipERKNS0_12StreamedClipERNS0_18StreamedClipMemoryEf
Lng:_GameObject_Internal_AddComponentWithType_m3797731663
km:_emscripten_glIsTexture
Rk:_emscripten_glHint
byi:_Check_SourceAndPredicate_m2332465641
fRg:__Z67RuntimeInvoker_Boolean_t97287965_TextGenerationSettings_t1351628751PFvvEPK10MethodInfoPvPS4_
BGc:_ft_var_readpackeddeltas
mnf:_String_op_Inequality_m215368492
pyb:__Z35Transfer_Blittable_FixedBufferFieldI18StreamedBinaryReadILb1EEtEvRK29SerializationCommandArgumentsR31RuntimeSerializationCommandInfo
ifg:_UInt32_System_IConvertible_ToInt64_m2261037378
nm:_SDL_UpperBlit
GXa:__Z35GetTextureDecodeValuesWithIntensity16TextureUsageMode17TextureColorSpace10ColorSpacef
eIf:_Array_InternalArray__ICollection_Remove_TisChar_t3634460470_m4143749387_gshared
RJb:__ZN15dense_hashtableINSt3__24pairIK9TextureIDiEES2_14GfxGenericHashIS2_EN14GfxDoubleCacheIS2_iS6_NS0_8equal_toIS2_EEN31GfxDoubleCacheConcurrencyPolicy11LocklessGetE42GfxDoubleCacheDefaultEmptyDeletedGeneratorIS2_EE9SelectKeyES9_13stl_allocatorIS4_L18MemLabelIdentifier24ELi16EEE14squash_deletedEv
A2i:__ZN15dense_hashtableINSt3__24pairIK10KeyWrapperINS1_IPK9EventInfoP11Il2CppClassEEEjEES9_17ReflectionMapHashIS8_EN14dense_hash_mapIS9_jSD_NS9_14EqualsComparerINS0_8equal_toIS8_EEEENS0_9allocatorISB_EEE9SelectKeyESI_SK_E15set_deleted_keyERKSB_
E5f:_Encoding_GetBytes_m3823106599
buf:_GregorianCalendar__ctor_m979779718
Hfe:_SslClientStream__ctor_m2402546929
kEb:__ZN14SafeBinaryRead20OverrideRootTypeNameEPKc
g8e:_DictionaryNodeEnumerator_get_Entry_m2309234501
d1:__ZN14FileCacherRead16UnlockCacheBlockEj
r9:__ZN10InstancingL21OnGraphicsCapsChangedEv
$ag:_WaitHandle_get_Handle_m3260446580
q1f:_Enumerator_VerifyState_m1745883925_AdjustorThunk
Jc:_emscripten_glUniform1f
Yxd:_SortedList__ctor_m1261191695
qLc:__Z20ParseImageParametersR11UTF16StringRiRN20TextRenderingPrivate16TextFormatChangeE
bYh:__ZL55CanvasScaler_t2767979955_CustomAttributesCacheGeneratorP21CustomAttributesCache
Oc:_emscripten_glUniform1i
Jtb:__Z18Transfer_BlittableI24GenerateTypeTreeTransferLb1EN4math12int3_storageEEvRK29SerializationCommandArgumentsR31RuntimeSerializationCommandInfo
tWe:__Z14bankers_roundff
bka:__ZN9ShaderLab16SerializedTagMapaSERKS0_
hS:__ZN11UnityEngine15CloudWebService16SessionContainer20RestoreSessionHeaderERKN4core12basic_stringIcNS2_20StringStorageDefaultIcEEEES8_RNS0_13SessionHeaderE
trj:__ZN6il2cpp2os12Cryptography23GetCryptographyProviderEv
XC:__ZN11UnityEngine9Animation27CreateAvatarBindingConstantER9TransformPKN7mecanim9animation14AvatarConstantERNS3_6memory9AllocatorE
uPc:__ZN2UI14CanvasRenderer13SyncTransformENS0_8SyncFlagEb
gHg:__Z151RuntimeInvoker_RuntimeObject_Int32_t2950945753_RuntimeObject_ObjectU5BU5DU26_t712384779_RuntimeObject_RuntimeObject_RuntimeObject_ObjectU26_t2146539884PFvvEPK10MethodInfoPvPS4_
hec:__ZN9BlobWriteC2ER13dynamic_arrayIhLj16EE24TransferInstructionFlags19BuildTargetPlatform
T4c:_CanvasUpdateRegistry__ctor_m2005397069
r$:__ZN14MessageHandler3GetEv
e0d:_MonoMethodInfo_GetCallingConvention_m3156036493
WSe:_LayoutGroup_SetLayoutInputForAxis_m2458344630
ad:_emscripten_glAttachShader
Doa:__ZN9GfxDevice13SetActiveTierE12GraphicsTier
Jcd:_Image__cctor_m1927508576
tka:__ZNSt3__26vectorIN4core12basic_stringIcNS1_20StringStorageDefaultIcEEEENS_9allocatorIS5_EEE6assignIPS5_EENS_9enable_ifIXaasr21__is_forward_iteratorIT_EE5valuesr16is_constructibleIS5_NS_15iterator_traitsISC_E9referenceEEE5valueEvE4typeESC_SC_
qrj:__ZN6il2cpp6icalls8mscorlib6System21CurrentSystemTimeZone15GetTimeZoneDataEiPP11Il2CppArrayS6_
gob:__Z18Transfer_BlittableI14SafeBinaryReadLb0E11QuaternionfEvRK29SerializationCommandArgumentsR31RuntimeSerializationCommandInfo
vBb:__Z18Transfer_BlittableI18StreamedBinaryReadILb0EELb1E12PropertyNameEvRK29SerializationCommandArgumentsR31RuntimeSerializationCommandInfo
IW:_tlsf_walk_heap
XGg:__Z49RuntimeInvoker_Void_t1185182177_OpCode_t123070264PFvvEPK10MethodInfoPvPS4_
cCd:_Convert_ToUInt32_m3592050311
jb:invoke_vif
A1h:_Component_GetComponents_TisRuntimeObject_m2416546752_gshared
kb:invoke_vid
Mxj:__ZNSt3__212basic_stringIcNS_11char_traitsIcEENS_9allocatorIcEEE6insertEjPKc
lb:invoke_vii
YMb:__ZNK12ImageFilters8DoRenderER17ShaderPassContextP13RenderTextureS3_RKNSt3__26vectorI11ImageFilterNS4_9allocatorIS6_EEEE
ZKa:__ZN12TLSAllocatorI14StackAllocatorE16ThreadInitializeEP13BaseAllocator
vIg:__Z82RuntimeInvoker_Boolean_t97287965_SByte_t1669577662_RuntimeObject_SByte_t1669577662PFvvEPK10MethodInfoPvPS4_
cpa:__ZN9GfxDevice32UpdateStereoViewProjectionMatrixE21MonoOrStereoscopicEye
VQc:__Z41CanvasRenderer_CUSTOM_DisableRectClippingP12Il2CppObject
RPd:_MonoType_GetConstructorImpl_m441167626
p7c:_DefaultControls_CreateRawImage_m4219873755
adh:_Collection_1_IsFixedSize_m3709118201_gshared
gPa:__ZN25SingleBlockMemoryFileDataD0Ev
eLa:__ZNSt3__26vectorI14ConstantStringNS_9allocatorIS1_EEE6assignINS_11__wrap_iterIPS1_EEEENS_9enable_ifIXaasr21__is_forward_iteratorIT_EE5valuesr16is_constructibleIS1_NS_15iterator_traitsISA_E9referenceEEE5valueEvE4typeESA_SA_
cS:__ZN11UnityEngine15CloudWebService16SessionContainer21ConvertFromFolderTimeERKN4core12basic_stringIcNS2_20StringStorageDefaultIcEEEEPjPt
_ed:_CodeAccessPermission_Equals_m1555575992
Tpb:__ZNSt3__26vectorI8GUIStyle13stl_allocatorIS1_L18MemLabelIdentifier1ELi16EEE7reserveEj
r8i:__ZN6il2cpp6icalls8mscorlib6System9Threading6Thread27GetSerializedCurrentCultureEP12Il2CppThread
Pce:_Context_set_ReadSequenceNumber_m2154909392
Cid:_RijndaelTransform_SubByte_m3037693507
c1b:__Z31CalculateHierarchyTransformType23TransformAccessReadOnly
O2b:__Z13RegisterClassI11TimeManagerEvv
wJ:__ZN4FMOD8ChannelI11setPositionEjj
pog:_Input_INTERNAL_CALL_GetTouch_m3481893561
mnj:_GC_set_fl_marks
Kfb:__ZNSt3__26vectorIN30RuntimeInitializeOnLoadManager15ClassMethodInfoE13stl_allocatorIS2_L18MemLabelIdentifier13ELi16EEE7reserveEj
fpa:__ZN9GfxDevice17SetStereoViewportE15StereoscopicEyeRK5RectTIiE
Jfa:__ZN17BaseObjectManager13StaticDestroyEPv
YKa:__ZNK12TLSAllocatorI14StackAllocatorE24GetBookKeepingMemorySizeEv
lIi:_CanvasRenderer_INTERNAL_CALL_GetColor_m597074473
Gue:_Comparer_1__cctor_m3891417387_gshared
t8f:_UTF7Decoder_GetChars_m3413809261
MWd:_EnumBuilder_GetEvent_m4074915332
yh:_sysconf
Xxg:_Vector3_get_forward_m3100859705
TAf:_Double_Equals_m2309369974_AdjustorThunk
oI:__ZN4FMOD6Reverb13setPropertiesEPK22FMOD_REVERB_PROPERTIES
JOb:__ZN9DepthPass13PrepareSubsetEjRK10RenderNodeifRK17ShaderReplaceData
Wpf:_String_IndexOf_m3406607758
gja:__ZN9ShaderLab20SerializedSubProgram16TextureParameter8TransferI14SafeBinaryReadEEvRT_
Wac:__Z35SetMeshComponentFromArrayFromScriptR4Mesh30InternalScriptingShaderChannel34InternalScriptingVertexChannelTypei17ScriptingArrayPtri
GNf:_Array_InternalArray__ICollection_Add_TisCustomAttributeNamedArgument_t287865710_m4157175270_gshared
fq:__ZN4core20StringStorageDefaultIcE6assignEPKcj
ngg:_UInt64_System_IConvertible_ToUInt64_m2135047981_AdjustorThunk
j6d:_BigInteger_ModPow_m3776562770
Mej:__ZN15dense_hashtableINSt3__24pairIK10KeyWrapperIP12Il2CppObjectEN6il2cpp2gc9CachedCCWEEES5_NS7_5utils11PointerHashIS3_EEN14dense_hash_mapIS5_S9_SD_NS5_14EqualsComparerINS0_8equal_toIS4_EEEENS0_9allocatorISA_EEE9SelectKeyESI_SK_E3endEv
Oee:_RecordProtocol_ProcessChangeCipherSpec_m15839975
etd:_ArrayList_IndexOf_m305368842
KXb:__ZN6Camera6SetFarEf
GMe:_FormatterConverter_ToBoolean_m1680758923
Gza:__ZN6prcoreL12RemapGenericI17TexFormatABGR888817TexFormatARGB8888EEvPKNS_9InnerInfoE
aQa:__ZN11GameManager17MainThreadCleanupEv
E4h:_ReadOnlyCollection_1__ctor_m1345363288_gshared
BSc:__Z50Register_UnityEngine_UISystemProfilerApi_EndSamplev
Hb:invoke_vffff
FNe:_SerializationCallbacks_GetSerializationCallbacks_m2939476649
Hwd:_Hashtable__cctor_m4112166779
kFc:_UNITY_tt_slot_init
SKb:__ZZ23InitPlayerLoopCallbacksvEN41PostLateUpdateUpdateResolutionRegistrator7ForwardEv
gDb:__Z25scripting_array_class_get17ScriptingClassPtrj
Qrc:__ZL22Transfer_ManagedObjectI9JSONWriteLb1EEvRK29SerializationCommandArgumentsR31RuntimeSerializationCommandInfo
tF:__ZNK10SampleClip22GetTypeVirtualInternalEv
oqa:__ZN9GfxDevice20DestroyRenderSurfaceER12ObjectHandleI17RenderSurface_TagP17RenderSurfaceBaseE
Myd:_Stack__ctor_m2602729586
vJa:__ZN9GfxDevice22UpdateComputeResourcesEjPK9TextureIDPK16TextureDimensionPKijPKjjPK15ComputeBufferIDS7_PK20ComputeBufferCounterjSC_S2_S5_S9_SF_
U1:__ZN12_GLOBAL__N_15qAsinEff
gle:_InternalEnumerator_1_System_Collections_IEnumerator_get_Current_m2629988057_AdjustorThunk
_Ka:__ZN12TLSAllocatorI14StackAllocatorE13ThreadCleanupEv
Vkj:__ZThn4_N6il2cpp2vm13ComObjectBase16MarshalInterfaceEP13Il2CppIStreamRK10Il2CppGuidPvjS7_j
yAd:_Convert_ToDouble_m996590115
UFb:__Z27FindActiveTransformWithPathPKc
O8h:_ReadOnlyCollection_1_System_Collections_IList_Remove_m4169110229_gshared
Oeg:_UInt16_ToString_m3020002356
sTe:_LayoutRebuilder_LayoutComplete_m68578143
lwi:_GUIStyle_get_fixedWidth_m2576616348
myd:_SortedList_Find_m3363512987
nY:__ZNK6Camera7GetNearEv
CXd:_GenericTypeParameterBuilder_GetConstructorImpl_m863833310
BCa:__ZN7ApiGLES11UnmapBufferEjN2gl12BufferTargetE
hlj:__ZN6il2cpp5utilsL24Utf32CharToSurrogatePairEjRA2_Ds
k3a:__Z25GetNextAllowedTextureSizeib13TextureFormat
MFb:__ZN20LocalFileSystemWebGL4CopyER13FileEntryDataS1_
HU:__ZN19CloudServiceHandler6RetainEv
u5h:_ReadOnlyCollection_1_System_Collections_IList_IndexOf_m198887188_gshared
Mnc:__Z36Event_CUSTOM_Internal_SetNativeEventPv
L7f:_UTF32Encoding_GetBytes_m3180303867
C3:__ZN12BaseRenderer20FlattenToRenderQueueER15RenderNodeQueueRK20DeprecatedSourceData
a7h:_ReadOnlyCollection_1_System_Collections_IList_Clear_m2007013334_gshared
Aib:__Z34scripting_liveness_calculation_endPv
Ggj:__ZN6il2cpp2os6ThreadC2Ev
uwf:_DateTimeOffset_get_UtcDateTime_m1021718282_AdjustorThunk
Fu:__ZN21AnimationClipPlayable22ProcessAnimationNoClipEPK35AnimationPlayableEvaluationConstantPK32AnimationPlayableEvaluationInputP33AnimationPlayableEvaluationOutput
E7e:_HybridDictionary_get_Count_m1166314536
Iki:_TlsStream_Write_m1412844442
qtc:__Z18Transfer_BlittableI8JSONReadLb0E8Vector3fEvRK29SerializationCommandArgumentsR31RuntimeSerializationCommandInfo
J6i:__ZN6il2cpp2vm6Thread6DetachEP12Il2CppThread
jli:_GeneralNames_get_DNSNames_m3788548987
uwc:__GLOBAL__sub_I_runtime_dynamics_2_cpp
YFi:_Hacker_OnUserInput_m1095014035
bD:__ZN7mecanim8skeleton30SkeletonBuildReverseIndexArrayEPiPKiPKNS0_8SkeletonES6_
Rlc:__Z19GetGUIBlendMaterialv
wOd:_Math_Round_m3018379666
vhj:__ZN6il2cpp2os10ThreadImpl5SleepEjb
w5h:_ReadOnlyCollection_1_System_Collections_IList_Remove_m1965826685_gshared
wzf:_Delegate_CreateDelegate_m1051651521
lJf:_PlayableHandle_IsPlayableOfType_TisRuntimeObject_m503495943_AdjustorThunk
jFj:_glBindSampler__wrapper
UPa:__ZNSt3__26vectorIN20ArchiveStorageHeader12StorageBlockE13stl_allocatorIS2_L18MemLabelIdentifier55ELi16EEE8__appendEj
Hf:_emscripten_set_mouseup_callback
zpg:_Mathf_Clamp_m3350697880
IIg:__Z165RuntimeInvoker_Void_t1185182177_UInt32U26_t3735378166_Int32_t2950945753_UInt32U26_t3735378166_Int32_t2950945753_Int32_t2950945753_Int32_t2950945753_Int32_t2950945753PFvvEPK10MethodInfoPvPS4_
i3f:_List_1_System_Collections_IList_Remove_m3140917266_gshared
qqi:_CompositeExpression__ctor_m2434860303
Wef:_X509ChainElementCollection_System_Collections_IEnumerable_GetEnumerator_m3829089536
KZb:__ZNK18ScreenManagerWebGL8GetWidthEv
qF:__ZN10SampleClipD2Ev
uei:_Predicate_1_Invoke_m2389850270_gshared
Vhb:__Z13GetGISettingsv
rU:__ZN11UnityEngine15CloudWebService20WebRequestRestClientC2Ev
DAc:_cff_cmap_unicode_init
rHf:_Array_InternalArray__ICollection_Contains_TisRuntimeObject_m4067783231_gshared
Dbh:_Collection_1_IsValidItem_m3080586124_gshared
t5c:_ClipperRegistry_Register_m2407166513
mwj:_readlink
b0i:__ZN15dense_hashtableINSt3__24pairIK10KeyWrapperINS1_IPK9EventInfoP11Il2CppClassEEEjEES9_17ReflectionMapHashIS8_EN14dense_hash_mapIS9_jSD_NS9_14EqualsComparerINS0_8equal_toIS8_EEEENS0_9allocatorISB_EEE9SelectKeyESI_SK_E12resize_deltaEjj
$$d:_MonoCMethod_Invoke_m2700167622
Dxd:_KeyMarker__cctor_m2590194914
xwe:_Enumerator_Reset_m627751027_AdjustorThunk
Vbb:__ZNK6Sprite9GetBoundsE8Vector2fbb
qTa:__ZNK19RenderEventsContext21CleanupCommandBuffersEv
wHi:_TextGenerator_PopulateWithErrors_m1222498386
iua:__ZN11ContextGLES6CreateEi
h2g:_List_1_set_Capacity_m3382070520_gshared
SRe:_U3CMouseDragOutsideRectU3Ec__Iterator1_Dispose_m267465418
uyf:_Decimal_CompareTo_m3502307243_AdjustorThunk
jCb:__Z19TransferField_ArrayI18StreamedBinaryReadILb0EE27Converter_SimpleNativeClassI17AnimationCurveTplIfEEEvRK23StaticTransferFieldInfoR31RuntimeSerializationCommandInfoRT0_
BKa:__ZN14StackAllocator16FrameMaintenanceEb
MMa:__Z18ReadStringFromFilePN4core17string_with_labelILi1EEERKNS_12basic_stringIcNS_20StringStorageDefaultIcEEEE
sWe:_Scrollbar_get_value_m760470106
sY:__ZNK10GameObject20QueryComponentByTypeEPKN5Unity4TypeE
Jxf:_Decimal_System_IConvertible_ToInt32_m1488426794_AdjustorThunk
YOd:_MonoCustomAttrs_IsUserCattrProvider_m2878058089
GVh:__ZL71InputField_t3762917431_CustomAttributesCacheGenerator_m_HideMobileInputP21CustomAttributesCache
w2a:__ZN11TextureData5ResetEv
sgc:__Z53Register_UnityEngine_GameObject_get_activeInHierarchyv
hlf:_ToBase64Transform_InternalTransformFinalBlock_m360524956
old:_ActivationContext_Dispose_m2038725770
J_:__ZL30InitializeCoreScriptingClassesv
Eg:_glBlitFramebuffer
n1f:_Enumerator_System_Collections_IEnumerator_get_Current_m3594024719_gshared
Grb:__Z35Transfer_Blittable_SingleValueFieldI14SafeBinaryReadhEvRT_R17GeneralMonoObjectRK23StaticTransferFieldInfo
H9b:__ZN12CachedWriter15CompleteWritingEv
B1a:__ZNK12CubemapArray22GetTypeVirtualInternalEv
Mn:FUNCTION_TABLE_vif
Nn:FUNCTION_TABLE_vid
On:FUNCTION_TABLE_vii
Lib:__Z40scripting_liveness_calculation_from_root18ScriptingObjectPtrPv
y_a:__ZN7Texture23VirtualRedirectTransferER24GenerateTypeTreeTransfer
gKc:_UNITY_FT_Set_Transform
Pdj:__ZN6il2cpp8metadata15GenericMetadata20RegisterGenericClassEP18Il2CppGenericClass
OEj:_glDeleteFramebuffers__wrapper
dFg:__Z220RuntimeInvoker_Boolean_t97287965_RuntimeObject_Int32U26_t1369213839_Int32_t2950945753_Int32_t2950945753_Int32_t2950945753_RuntimeObject_SByte_t1669577662_Int32_t2950945753_ContractionU26_t961830454_ContextU26_t3937453398PFvvEPK10MethodInfoPvPS4_
Lyc:_cff_blend_build_vector
Yaf:_WebHeaderCollection_ToString_m1263025316
o6b:__ZZN12MeshRenderer15InitializeClassEvEN29FunctorImpl_134kDidDeleteMesh4CallEPviR11MessageData
h2d:_GetterAdapter_Invoke_m3767885970
j3g:_List_1__ctor_m747758800_gshared
trf:_String_CreateString_m2818852475
H4a:__ZN28EnlightenRendererInformation8TransferI14SafeBinaryReadEEvRT_
JIi:_CanvasRenderer_get_hasMoved_m2236392341
grg:_MessageEvent__ctor_m1231650089
vha:__ZNK15Lz4Decompressor16DecompressMemoryEPKvPjPvS2_
USa:__Z11IsCoroutine18ScriptingMethodPtrRK22CommonScriptingClasses
Q1b:__ZN4core8hash_mapINS_12basic_stringIcNS_20StringStorageDefaultIcEEEE10vector_setI4PPtrI11SpriteAtlasENSt3__24lessIS8_EE13stl_allocatorIS8_L18MemLabelIdentifier81ELi16EEENS_4hashIS4_EENS9_8equal_toIS4_EEEixERKS4_
uh:_glGetAttribLocation
y0a:__Z35UnityPropertySheet_MakeSortedColorsRKNSt3__23mapIN9ShaderLab16FastPropertyNameE10ColorRGBAfNS_4lessIS2_EENS_9allocatorINS_4pairIKS2_S3_EEEEEER10vector_mapIS2_S3_S5_NS6_INS7_IS2_S3_EEEEE
YCc:_UNITY_tt_face_load_os2
_qb:__Z29Transfer_Blittable_ArrayFieldI14SafeBinaryRead8Vector4fEvRT_R9ArrayInfoRK23StaticTransferFieldInfo
HTd:_Default_check_arguments_m3882727959
N8f:_UTF8Encoding_GetMaxCharCount_m3762459613
SUd:_ModuleBuilder_RegisterToken_m4166846047
JKb:__ZZ23InitPlayerLoopCallbacksvEN51PostLateUpdateUpdateCustomRenderTexturesRegistrator7ForwardEv
BVe:_RawImage_OnPopulateMesh_m1115858855
sSi:__ZN6il2cpp2vm13MetadataCache25GetStringLiteralFromIndexEi
Qld:_Hashtable_ToPrime_m33531354
bv:__ZN7mecanim9animation12EvaluateClipEPKNS0_4ClipEPKNS0_9ClipInputEPNS0_10ClipMemoryEPNS0_10ClipOutputE
_hh:_Collection_1_IsSynchronized_m1117613618_gshared
Tdg:_TypeInitializationException__ctor_m3546444694
ycc:__ZNK9Transform16GetLocalRotationEv
VT:__ZN11UnityEngine15CloudWebService23WebRequestUploadHandler17ConsumeUploadDataEj
eTg:__Z68RuntimeInvoker_Void_t1185182177_Single_t1397266774_SByte_t1669577662PFvvEPK10MethodInfoPvPS4_
WKd:_MemoryStream_set_Position_m3169779190
CWb:__ZN13RenderManager29SetCurrentCameraAndStackStateEP6CameraP25CameraStackRenderingState
e0c:_ExecuteEvents_get_scrollHandler_m2659345019
PRa:__ZNSt3__26__treeINS_12__value_typeIjN4core12basic_stringIcNS2_20StringStorageDefaultIcEEEEEENS_19__map_value_compareIjS7_NS_4lessIjEELb1EEE13stl_allocatorIS7_L18MemLabelIdentifier7ELi16EEE7destroyEPNS_11__tree_nodeIS7_PvEE
u6i:__ZN15dense_hashtableINSt3__24pairIK10KeyWrapperINS1_IP11Il2CppClassjEEES4_EES6_N6il2cpp8metadata14ArrayClassHashEN14dense_hash_mapIS6_S4_SB_NS6_14EqualsComparerINSA_17ArrayClassCompareEEENS0_9allocatorIS8_EEE9SelectKeyESF_SH_E12resize_deltaEjj
Th:_JS_WebRequest_Release
DS:__ZN11UnityEngine15CloudWebService14DataErrorEventD0Ev
jaj:__ZN6il2cpp6icalls8mscorlib6System4Type20internal_from_handleEi
mGe:_Context__ctor_m254302079
Ldj:__ZN6il2cpp8metadata15GenericMetadata7InflateEPK19Il2CppGenericMethodPK20Il2CppGenericContext
Y3a:__ZN19ShaderPropertySheet16SetArrayPropertyEN9ShaderLab16FastPropertyNameENS_12PropertyTypeEPKvj
aXe:_Selectable_FindSelectable_m2348614027
R8c:_DropdownItem_OnPointerEnter_m1492957598
INc:__ZN2UI11CanvasGroup23VirtualRedirectTransferER19StreamedBinaryWriteILb0EE
jnc:__ZN8GUIState8EndOnGUIEv
rFc:_UNITY_TT_Get_VMetrics
uud:_SimpleEnumerator__cctor_m2844299657
kOd:_LocalDataStoreSlot__ctor_m4104083971
f9h:_ReadOnlyCollection_1_System_Collections_Generic_IListU3CTU3E_RemoveAt_m3849058645_gshared
bAi:_AudioSource_ReadExtensionName_m725112169
jni:_X509CertificateEnumerator_System_Collections_IEnumerator_Reset_m2039524926
RLg:__Z128RuntimeInvoker_Void_t1185182177_RuntimeObject_BooleanU26_t4125257963_SByte_t1669577662_Int32U26_t1369213839_Int32U26_t1369213839PFvvEPK10MethodInfoPvPS4_
$wa:__ZN7Texture21GetMasterTextureLimitEv
rYb:__Z12CanAddScriptR10GameObject17ScriptingClassPtrPS1_S2_
b3i:__ZN6il2cpp2vm10Reflection12HasAttributeEP12Il2CppObjectP11Il2CppClass
_bi:_Comparison_1_BeginInvoke_m3263247262_gshared
N9:__ZN9ShaderLabL25StaticInitializeShaderLabEPv
U:Math_max
wYh:__ZL64HorizontalLayoutGroup_t2586782146_CustomAttributesCacheGeneratorP21CustomAttributesCache
D3i:_il2cpp_class_get_methods
qwg:_HitInfo_SendMessage_m1343099429_AdjustorThunk
Mtb:__Z18Transfer_BlittableI24GenerateTypeTreeTransferLb0EN4math12int2_storageEEvRK29SerializationCommandArgumentsR31RuntimeSerializationCommandInfo
aAf:_StackTrace_get_trace_m1194606084
Vof:_Single_CompareTo_m2785801815_AdjustorThunk
Ogj:__ZN6il2cpp2os6Thread16GetCurrentThreadEv
sQf:_Array_InternalArray__Insert_TisUILineInfo_t4195266810_m3191124053_gshared
N7b:__ZN10GameObject13ComponentPair15SetComponentPtrEPN5Unity9ComponentE
hDj:_glBlitFramebuffer__wrapper
B2b:__Z13RegisterClassI10MeshFilterEvv
VRa:__ZN10TagManager8TransferI19StreamedBinaryWriteILb0EEEEvRT_
eib:__ZN11PreloadData23VirtualRedirectTransferER18StreamedBinaryReadILb0EE
ysg:_PropertyNameUtils_PropertyNameFromString_Injected_m1259736140
Ard:_Char_System_IConvertible_ToDateTime_m3564102661
A6a:__ZN6Sprite17MainThreadCleanupEv
pDj:_glBlendFuncSeparate__wrapper
bL:__ZN10AudioMixer14UpdateMuteSoloEv
gRa:__ZN9Transform35SetLocalPositionWithoutNotificationERKN4math7_float3Ey
yLg:__Z69RuntimeInvoker_UInt64_t4134040092_Int32_t2950945753_SByte_t1669577662PFvvEPK10MethodInfoPvPS4_
Ui:_JS_Eval_ClearTimeout
bWe:_Raycast2DCallback_Invoke_m1500574149
LBa:__ZN7ApiGLES16SetPatchVerticesEi
usi:_CharacterClass_Compile_m3296067317
Fij:__ZN6il2cpp2gc16GarbageCollector16InvokeFinalizersEv
Jqd:_Byte_System_IConvertible_ToInt64_m285584218_AdjustorThunk
Ttg:_Rect_get_size_m477575021_AdjustorThunk
VKi:__ZN6il2cpp2vm5Class20FromGenericParameterEPK22Il2CppGenericParameter
eV:__ZN19CloudServiceHandler11FlushEventsEv
$ea:__ZN15GlobalCallbacksC2Ev
INf:_Array_InternalArray__ICollection_Add_TisLabelData_t360167391_m1648183135_gshared
Bve:_Comparer_1_System_Collections_IComparer_Compare_m2016223770_gshared
PKg:__Z74RuntimeInvoker_DateTime_t3738529785_DateTime_t3738529785_Int32_t2950945753PFvvEPK10MethodInfoPvPS4_
vLc:_UNITY_FT_New_Memory_Face
Feh:_Collection_1_System_Collections_IList_IndexOf_m3271188411_gshared
zJc:__ZN20TextRenderingPrivate21TextMeshGeneratorImpl5FlushEv
IKd:_MonoIO_GetFileStat_m678141354
nBc:_UNITY_FT_Load_Sfnt_Table
v7c:__Z15CastclassSealedP12Il2CppObjectP11Il2CppClass
jyf:_Decimal_IsZero_m4250358244_AdjustorThunk
YNd:_UnmanagedMemoryStream_get_CanRead_m3770815400
jXb:__ZN16ReflectionProbes40UpdateRealtimeReflectionProbesTimeslicedEv
$xf:_Decimal_u64_m3374804932
keg:_UInt16_System_IConvertible_ToInt32_m1950778303_AdjustorThunk
tfb:__ZNK30RuntimeInitializeOnLoadManager22GetTypeVirtualInternalEv
DPi:__ZN15dense_hashtableINSt3__24pairIK10KeyWrapperIN6il2cpp5utils13dynamic_arrayIPK10Il2CppTypeLj4EEEEPFvvEEESA_NS3_8metadata19Il2CppSignatureHashEN14dense_hash_mapISA_SD_SG_NSA_14EqualsComparerINSF_22Il2CppSignatureCompareEEENS0_9allocatorISE_EEE9SelectKeyESK_SM_E12resize_deltaEjj
w5b:__ZN16ReflectionProbes15InitializeClassEv
e1h:_Dictionary_2_Do_ICollectionCopyTo_TisKeyValuePair_2_t3699644050_m4159638770_gshared
Kbj:__ZN6il2cpp2vm5Image9GetCorlibEv
Bzg:_Vector3_get_left_m2428419009
eA:__ZN8Animator13BatchedFKPassERK13dynamic_arrayIP14PlayableOutputLj4EE
boj:_GC_reclaim_uninit
T$c:_ExecuteEvents_Execute_m113814934
wba:__ZN13RuntimeStaticINSt3__23mapIN4core12basic_stringIcNS2_20StringStorageDefaultIcEEEES6_NS0_4lessIS6_EE13stl_allocatorINS0_4pairIKS6_S6_EEL18MemLabelIdentifier13ELi16EEEELb0EE13StaticDestroyEPv
N_h:_Array_qsort_TisColor32_t2600501292_m1362211604_gshared
Hve:_Enumerator_System_Collections_IEnumerator_get_Current_m2979767597_AdjustorThunk
Zhd:_MD5CryptoServiceProvider_ProcessFinalBlock_m2241588515
kYe:_ScrollRect_GetBounds_m449872505
Tj:_glIsVertexArray
zkd:_SmallXmlParser_Read_m3485223434
sDd:_Int16_Parse_m2276856944
ea:invoke_fff
bwj:_mbsinit
XBj:b14
TMc:__ZN2UI6Canvas17MainThreadCleanupEv
oza:__ZN6prcoreL12RemapGenericI17TexFormatARGB155517TexFormatRGBA8888EEvPKNS_9InnerInfoE
PMi:__ZN13Il2CppHashMapIPK19Il2CppGenericMethodPK26Il2CppGenericMethodIndicesN6il2cpp8metadata23Il2CppGenericMethodHashENS7_26Il2CppGenericMethodCompareENSt3__29allocatorINSA_4pairIK10KeyWrapperIS2_ES5_EEEEEC2EjRKS8_RKS9_
w_d:_TypeBuilder_HasElementTypeImpl_m1871001960
_nf:_SecurityFrame__ctor_m2140076703_AdjustorThunk
lVf:_DefaultComparer_Equals_m2458578172_gshared
nDa:__ZN7ApiGLES13CreateProgramEv
Fwe:_Enumerator_VerifyState_m4003066746_gshared
oxa:__ZN4crnd12crn_unpackerD2Ev
ek:_emscripten_glTexImage2D
vue:_Comparer_1_System_Collections_IComparer_Compare_m2537217645_gshared
x_:__ZN18ScriptingArguments9AddStringEPKc
voj:_setup_header
zsd:_Char_ToString_m3588025615
p4e:_CryptoConvert_ToCapiKeyBlob_m3371450375
wya:__ZL23stbir__resize_arbitraryPvPKviiiS_iiiffffPfiij14stbir_datatype12stbir_filterS4_10stbir_edgeS5_16stbir_colorspace
eub:__Z18Transfer_BlittableI24GenerateTypeTreeTransferLb1E8Vector4fEvRK29SerializationCommandArgumentsR31RuntimeSerializationCommandInfo
$Bj:b18
pk:_pthread_detach
JSi:__ZN6il2cpp2vm19SocketPollingThread7RunLoopEv
x9c:_FontUpdateTracker_UntrackText_m1981515690
p8b:__ZN15DirectorManager20ScheduleGraphDestroyERK14HPlayableGraph
YCb:__ZNSt3__213__stable_sortIRN10vector_mapI17ScriptingClassPtrPKN5Unity4TypeENS_4lessIS2_EENS_9allocatorINS_4pairIS2_S6_EEEEE13value_compareENS_11__wrap_iterIPSB_EEEEvT0_SJ_T_NS_15iterator_traitsISJ_E15difference_typeEPNSM_10value_typeEi
_0e:_SimpleCollator_FillSurrogateSortKeyRaw_m725998232
y5g:_List_1_AddEnumerable_m1284696147_gshared
jaf:_IPAddress_Equals_m1823478787
dHe:_Context_CreateNewContext_m3053563976
Wka:__ZN9ShaderLab25SerializedTextureProperty8TransferI24GenerateTypeTreeTransferEEvRT_
V0i:__ZN6il2cpp2gc19AppendOnlyGCHashMapINSt3__24pairIPK14Il2CppAssemblyP11Il2CppClassEEP24Il2CppReflectionAssembly17ReflectionMapHashIS9_ENS2_8equal_toIS9_EEEC2Ev
Rwb:__Z18Transfer_BlittableI19StreamedBinaryWriteILb0EELb0EdEvRK29SerializationCommandArgumentsR31RuntimeSerializationCommandInfo
Zka:__ZN11NamedObject8TransferI18StreamedBinaryReadILb0EEEEvRT_
xmg:_InvokableCall_remove_Delegate_m1376110510
_wd:_Hashtable_Clear_m3112193608
v8f:_UTF8Encoding_InternalGetByteCount_m771565606
w4e:_DSAManaged_GenerateKeyPair_m2236915969
B0g:_List_1_System_Collections_IList_Remove_m3654336679_gshared
pHh:__ZL51GUILayer_t2783472903_CustomAttributesCacheGeneratorP21CustomAttributesCache
Mk:_emscripten_glMatrixMode
OUe:_MaskableGraphic_UnityEngine_UI_IClippable_get_gameObject_m1739855597
Ps:__ZN8Animator23VirtualRedirectTransferER18StreamedBinaryReadILb0EE
jGf:_Guid__ctor_m3562600567_AdjustorThunk
YR:__ZN11UnityEngine15CloudWebService14DataDispatcher16PrepareDataBlockERNS0_16SessionContainerE
XHa:__ZN18GfxFramebufferGLES5ClearE13GfxClearFlagsRK10ColorRGBAffib
hNf:_MonoProperty_StaticGetterAdapterFrame_TisRuntimeObject_m4131530968_gshared
ABb:__ZL26Transfer_SimpleNativeClassI18StreamedBinaryReadILb0EE10RectOffsetLb0EEvRK29SerializationCommandArgumentsR31RuntimeSerializationCommandInfo
Vne:_InternalEnumerator_1_get_Current_m2316281569_gshared
sOb:__ZL12DepthPassJobPN21GfxDeviceAsyncCommand10ArgScratchEPKNS_3ArgE
ija:__ZNSt3__26vectorIN9ShaderLab20SerializedSubProgram16TextureParameterENS_9allocatorIS3_EEE6assignINS_11__wrap_iterIPS3_EEEENS_9enable_ifIXaasr21__is_forward_iteratorIT_EE5valuesr16is_constructibleIS3_NS_15iterator_traitsISC_E9referenceEEE5valueEvE4typeESC_SC_
Jpc:__ZN5Unity9rapidjson6WriterI16TempBufferWriterNS0_4UTF8IcEES4_13JSONAllocatorE11WriteDoubleEd
bag:_Thread_SetCachedCurrentUICulture_m1729523031
RQc:__Z55Register_UnityEngine_CanvasGroup_get_ignoreParentGroupsv
$2b:__Z13RegisterClassI19LowerResBlitTextureEvv
obe:_ClientContext_set_ClientHelloProtocol_m4189379912
Nm:FUNCTION_TABLE_iiiiiiiiiiii
a5g:_List_1_get_Item_m1686506901_gshared
fUa:__ZN16GraphicsSettingsD0Ev
n:cttz_i8
zyc:_UNITY_FT_GlyphLoader_Add
xAi:_AudioListener_INTERNAL_CALL_ReadExtensionPropertyName_m330480156
OBd:_Convert_ToUInt16_m867476252
Jl:_emscripten_glViewport
Ikj:__ZN6il2cpp6icalls8mscorlib6System15MonoCustomAttrs17IsDefinedInternalEP12Il2CppObjectP20Il2CppReflectionType
RJi:_SkeletonBone_t4134054672_marshal_pinvoke_back
Xzc:_cff_parse_font_bbox
h0e:_MSCompatUnicodeTable_Category_m1834196420
Kdb:__ZN14PlayerSettings23VirtualRedirectTransferER18StreamedBinaryReadILb0EE
RAf:_Double_CompareTo_m3151899116
Ctj:__ZN6il2cpp2os5Event5ResetEv
FTb:__Z26CombineDepthNormalsTextureRK17RenderLoopContextR13dynamic_arrayI16RenderObjectDataLj4EE
pDc:_tt_name_ascii_from_other
_yi:_ToggleGroup__ctor_m3308114662
wdj:__ZN6il2cpp8metadata15GenericMetadata17InflateParametersEPK13ParameterInfohPK20Il2CppGenericContextb
gSa:__ZN6Camera13AwakeFromLoadE17AwakeFromLoadMode
h0h:_Array_Sort_TisUILineInfo_t4195266810_m3737783007_gshared
Trg:_PlayableAsset_Internal_CreatePlayable_m2550417712
Xv:__ZNK17AnimationPlayable27GetNextCompatibleDescendantEi
Rki:_TlsStream_Write_m188217214
zGb:__Z25SetNeedToPerformRenderingb
agg:_UInt64_System_IConvertible_ToInt32_m949522652_AdjustorThunk
tQa:__ZN10GameObjectD2Ev
HOb:__ZN14qsort_internal30FindAndMovePivotToLastPositionIP15RODataDepthPassi17ROSorterDepthPassEEvT_S4_T0_T1_
sWb:__ZN12CullingGroup10SendEventsEPK17CullingGroupEventj
t1c:_PointerInputModule__ctor_m3728889932
EX:__ZThn32_NK8Renderer8GetLayerEv
O0f:_Enumerator_System_Collections_IEnumerator_Reset_m2915500989_gshared
aAc:_cff_parse_vsindex
EDd:_Int32_ValidDigit_m1059003769
zHj:_emscripten_glTexParameterfv__wrapper
CSe:_LayoutGroup_get_rectTransform_m442863741
nob:__Z18Transfer_BlittableI14SafeBinaryReadLb1E9BoundsIntEvRK29SerializationCommandArgumentsR31RuntimeSerializationCommandInfo
u4i:_il2cpp_method_get_param_count
ccc:__ZN10systeminfo19ISOToSystemLanguageERN4core12basic_stringIcNS0_20StringStorageDefaultIcEEEE
N$i:__ZNK15dense_hashtableINSt3__24pairIK10KeyWrapperINS1_IPK12PropertyInfoP11Il2CppClassEEEjEES9_17ReflectionMapHashIS8_EN14dense_hash_mapIS9_jSD_NS9_14EqualsComparerINS0_8equal_toIS8_EEEENS0_9allocatorISB_EEE9SelectKeyESI_SK_E3endEv
Pgg:_UnauthorizedAccessException__ctor_m40101894
sHc:_ps_dimension_done
HMc:__Z46Register_UnityEngine_TextGenerator_Dispose_cppv
WAf:_Double_Parse_m4153729520
Xhi:_IndexedSet_1_AddUnique_m861843892_gshared
m4a:__ZN16LightmapSettings8TransferI14SafeBinaryReadEEvRT_
voa:__ZN17BufferManagerGLES13ReleaseBufferEP14DataBufferGLES
nae:_CipherSuite_Write_m1172814058
hNd:_SynchronizedWriter_Write_m301917713
F8:__ZN9profiling6MarkerC2EPKc13ProfilerGroupNS0_5FlagsE
luc:__Z18Transfer_BlittableI8JSONReadLb1EjEvRK29SerializationCommandArgumentsR31RuntimeSerializationCommandInfo
WUd:_ConstructorBuilder_get_IsCompilerContext_m3364441562
ylg:_Debug_LogWarning_m3752629331
rbi:_ReadOnlyCollection_1_System_Collections_Generic_IListU3CTU3E_RemoveAt_m4037795630_gshared
_Ig:__Z117RuntimeInvoker_Void_t1185182177_RuntimeObject_Int32_t2950945753_Int32_t2950945753_Int32_t2950945753_Int32_t2950945753PFvvEPK10MethodInfoPvPS4_
n4c:_U3COnFinishSubmitU3Ec__Iterator0_Reset_m3632769946
$o:stackSave
q6c:_ColorTween_get_targetColor_m1724075482_AdjustorThunk
NHc:_ps_dimension_end
flc:__Z41Register_UnityEngine_Mesh_Internal_Createv
udj:__ZNK15dense_hashtableI10KeyWrapperIP18Il2CppGenericClassES3_N6il2cpp8metadata22Il2CppGenericClassHashEN14dense_hash_setIS3_S6_NS3_14EqualsComparerINS5_25Il2CppGenericClassCompareEEENSt3__29allocatorIS3_EEE8IdentityESA_SD_E12test_deletedERK30dense_hashtable_const_iteratorIS3_S3_S6_SF_SA_SD_E
hzd:_Console_Open_m3077673205
qni:_X509StoreManager_get_CurrentUser_m4040993045
RXb:__ZN6Camera9SetAspectEf
hMf:_Array_InternalArray__IndexOf_TisDateTime_t3738529785_m2463359116_gshared
va:invoke_viiffiii
DFi:_Display_Start_m3623905221
QIj:_emscripten_glBindVertexArray__wrapper
mgj:__ZN6il2cpp6icalls8mscorlib6System4Enum19get_underlying_typeEP20Il2CppReflectionType
cti:_Parser_IsECMAScript_m674158805
oRa:__ZN9Transform37InitializeTransformHierarchyRecursiveER18TransformHierarchyRii
LHa:__ZN26SinglePassStereoSupportExt23SetupStereoMatrixParamsE21MonoOrStereoscopicEye24BuiltinShaderMatrixParamRK10Matrix4x4f
Yvj:_fscanf
gYc:__ZNK25UnityWebRequestJavaScript16GetUploadedBytesEv
XP:__Z46AudioListener_CUSTOM_GetNumExtensionPropertiesP12Il2CppObject
UTi:__ZN6il2cpp6icalls8mscorlib6SystemL16CheckMemberMatchI9FieldInfoNS_5utils10functional6FilterINSt3__212basic_stringIcNS8_11char_traitsIcEENS8_9allocatorIcEEEENS5_13VmStringUtils23CaseInsensitiveComparerEEEEEbPKT_PK11Il2CppClassSN_iRKT0_
uMf:_Array_InternalArray__IndexOf_TisMonoResource_t4103430009_m1351751258_gshared
Jej:__ZN6il2cpp2gc16GarbageCollector12RunFinalizerEPvS2_
QCf:_FieldAccessException__ctor_m3583219052
bkc:__Z57Register_UnityEngine_Transform_INTERNAL_set_localPositionv
zsa:__ZN13GfxDeviceGLES26SetRandomWriteTargetBufferEi15ComputeBufferID
uoj:_GC_split_block
q$h:_Array_Resize_TisUICharInfo_t75501106_m3903846016_gshared
xKb:__ZZ23InitPlayerLoopCallbacksvEN49EarlyUpdateResetFrameStatsAfterPresentRegistrator7ForwardEv
ywj:_poll
e8h:_ReadOnlyCollection_1_System_Collections_IEnumerable_GetEnumerator_m1671097018_gshared
Agg:_UInt64_ToString_m1529093114_AdjustorThunk
tXh:__ZL85Selectable_t3250028441_CustomAttributesCacheGenerator_Selectable_IsPressed_m907486548P21CustomAttributesCache
h5d:_TypeLibImportClassAttribute__ctor_m2302178978
I1e:_Escape_t3294788190_marshal_pinvoke
YQe:_InputField_OnUpdateSelected_m1118869681
Obj:__ZN6il2cpp2vmL36AddNestedTypesToNametoClassHashTableEP40Il2CppNameToTypeDefinitionIndexHashTablePKcRKNSt3__212basic_stringIcNS5_11char_traitsIcEENS5_9allocatorIcEEEEP11Il2CppClass
yxa:__ZN4crnd12crn_unpacker11unpack_dxt1EPPhjjj
Nbc:__ZNK11ICallString6ToUTF8Ev
$Ki:__ZN15dense_hashtableINSt3__24pairIK10KeyWrapperIPK22Il2CppGenericParameterEP11Il2CppClassEES6_N6il2cpp5utils11PointerHashIS4_EEN14dense_hash_mapIS6_S9_SE_NS6_14EqualsComparerINS0_8equal_toIS5_EEEENS0_9allocatorISA_EEE9SelectKeyESJ_SL_E15insert_noresizeERKSA_
lze:_Transform_1_Invoke_m2468053724_gshared
IOb:__ZNSt3__211__sift_downIR17ROSorterDepthPassP15RODataDepthPassEEvT0_S5_T_NS_15iterator_traitsIS5_E15difference_typeES5_
X$a:__ZN18UnityPropertySheet11UnityTexEnvC2Ev
imd:_ArgumentException__ctor_m3200406061
zA:__ZN8Animator17ApplyOnAnimatorIKEiRNS_11AnimatorJobE
o1:__ZN12FileAccessor4ReadEyyPvPy
Bsf:_EncoderExceptionFallback__ctor_m3745979420
U6g:_List_1_set_Capacity_m2777925136_gshared
sXb:__ZN13RenderTexture9SetHeightEi
mu:__ZN7mecanim9animation17ClearMotionOutputEPNS0_18AnimationNodeStateE
$ae:_CipherSuiteCollection_get_IsFixedSize_m3127823890
cte:_InternalEnumerator_1_System_Collections_IEnumerator_get_Current_m3537550566_gshared
rWe:_Scrollbar_UpdateVisuals_m2492252165
gmi:_PKCS12_get_Keys_m2165478388
E8i:__ZN6il2cpp6icalls8mscorlib6System2IO6MonoIO17GetFileAttributesEP12Il2CppStringPi
ohd:_HMACMD5__ctor_m3008609295
lvf:_DateTime__ParseAmPm_m3478436123
Rvf:_DateTime_ToString_m2992030064_AdjustorThunk
iEc:_tt_cmap8_char_index
Y_:__Z24scripting_class_get_name17ScriptingClassPtr
SLd:_Stream_WriteByte_m1519852120
xzi:_VerticalLayoutGroup_CalculateLayoutInputHorizontal_m1404590745
eca:__ZN13RuntimeStaticI15GUIEventManagerLb0EE13StaticDestroyEPv
KPd:_ShortComparer_Compare_m1881262465
eqb:__Z29Transfer_Blittable_ArrayFieldI14SafeBinaryReadjEvRT_R9ArrayInfoRK23StaticTransferFieldInfo
ee:_emscripten_set_keydown_callback
c5f:_EncoderReplacementFallback__ctor_m1483565116
Xgf:_Interpreter_IsWordChar_m2858055765
Xwd:_Hashtable_CopyTo_m2905447224
w1:__ZN12FileAccessorC2Ev
XBc:_otv_u_O_O_u_O_O
qy:__ZThn152_NK26AnimatorControllerPlayable25GetStateMachineBehavioursEv
Shi:_EventFunction_1_Invoke_m2429482587_gshared
Dbf:_AsnEncodedData_SubjectAltName_m4049949414
hVi:__ZN6il2cpp2vm7Runtime12GetConfigDirEv
m0f:_Enumerator_MoveNext_m1177880931_AdjustorThunk
TZe:_Slider_UpdateVisuals_m3662961057
uHi:_TextGenerator_Populate_m194003733
ZVd:_DerivedType_get_FullName_m1025358827
ufd:_CryptoConfig_MapNameToOID_m2044758263
KVh:__ZL70InputField_t3762917431_CustomAttributesCacheGenerator_m_OnValueChangedP21CustomAttributesCache
rHb:__ZN13RenderManager22OnWindowSizeHasChangedEv
PEb:__Z39WriteQueueForTransferSignatureIntoCacheRK31TransferFunctionScriptingTraitsRK24TransferRequestSignature17ScriptingClassPtrR23CachedSerializationDataRb
_gb:__ZN13RenderManager18UpdateAllRenderersEv
o6f:_Encoding_get_UTF8UnmarkedUnsafe_m320312322
kag:_Thread_Thread_free_internal_m333849022
$qc:__Z35Transfer_Blittable_FixedBufferFieldI9JSONWritexEvRK29SerializationCommandArgumentsR31RuntimeSerializationCommandInfo
ooi:_CostDelegate_BeginInvoke_m2828452701
OSc:__ZN22BaseUnityConnectClient30OnEnteringStatePausedOrStoppedEv
Cgh:_Collection_1_ConvertItem_m1556170494_gshared
Au:__ZN7mecanim5human12HumanPoseAddERNS0_9HumanPoseERKS1_S4_
Ltf:_DateTime_ToUniversalTime_m1945318289
ttd:_ArrayList_ToArray_m3827492363
j_e:_Slider_get_stepSize_m1423227661
vgg:_UInt64_Parse_m819899889
Nkf:_SymmetricAlgorithm_set_IV_m3196220308
pYd:_GenericTypeParameterBuilder_GetHashCode_m852224381
_Bd:_Convert_ToUInt32_m1453583008
LDf:_CompareInfo_Compare_m894311506
YQa:__Z24MergeTransformComponentsR9TransformS0_b
WOi:__ZNK15dense_hashtableI10KeyWrapperIPK19Il2CppGenericMethodES4_N6il2cpp8metadata23Il2CppGenericMethodHashEN14dense_hash_setIS4_S7_NS4_14EqualsComparerINS6_26Il2CppGenericMethodCompareEEENSt3__29allocatorIS4_EEE8IdentityESB_SE_E10test_emptyEj
c_c:_EventSystem_UpdateModules_m3643806022
wJi:_AnimationOffsetPlayable__cctor_m1029460816
Kkj:__ZN6il2cpp2vm13ComObjectBase19GetRuntimeClassNameEPP15Il2CppHString__
Rj:_emscripten_glVertexAttribPointer
OVa:__ZNK20IntermediateRenderer12GetSceneMaskEv
CHb:__ZN14PreloadManager26UpdatePreloadingSingleStepENS_21UpdatePreloadingFlagsEi
ZYe:_ScrollRect_SetLayoutHorizontal_m3078869633
x0e:_SimpleCollator__ctor_m1587210019
nic:__Z57Register_UnityEngine_RectTransform_INTERNAL_set_anchorMinv
WBd:_Convert_ToUInt16_m1480956416
Xya:__ZN6prcoreL25inner_stretch_i8_bilinearEPKNS_9InnerInfoE
sib:__ZL30RegisterFilteredObjectCallbackPP12Il2CppObjectiPv
Pai:_ReadOnlyCollection_1_System_Collections_Generic_IListU3CTU3E_RemoveAt_m3317217538_gshared
bOh:__ZL54AudioSource_t3935305588_CustomAttributesCacheGeneratorP21CustomAttributesCache
UHb:__Z19InitializeGfxDevicev
sS:__ZN11UnityEngine15CloudWebService16SessionContainer24GetSessionHeaderJsonDataERKN4core12basic_stringIcNS2_20StringStorageDefaultIcEEEERNS2_13StringBuilderE
CVd:_DerivedType_GetEvent_m4157575360
Sba:__ZN13RuntimeStaticI21AssetReferenceStorageLb0EE13StaticDestroyEPv
xed:_SByte_System_IConvertible_ToType_m4075253447_AdjustorThunk
JQf:_Array_InternalArray__set_Item_TisKeyValuePair_2_t2530217319_m258011711_gshared
mTg:__Z72RuntimeInvoker_Bounds_t2266837910_RuntimeObject_Matrix4x4U26_t3606180965PFvvEPK10MethodInfoPvPS4_
xgj:__ZN6il2cpp6icalls8mscorlib6System9AppDomain22InternalGetProcessGuidEP12Il2CppString
gyc:_cf2_builder_moveTo
OCg:__Z48RuntimeInvoker_RuntimeObject_Decimal_t2948259380PFvvEPK10MethodInfoPvPS4_
uNa:__ZNK17FileSystemHandler10IsReadOnlyERK13FileEntryData
Bub:__Z18Transfer_BlittableI24GenerateTypeTreeTransferLb1EjEvRK29SerializationCommandArgumentsR31RuntimeSerializationCommandInfo
ZKi:__ZN6il2cpp2os12FastAutoLockD2Ev
Z6:__ZN11ColorRGBA328TransferI14SafeBinaryReadEEvRT_
pAc:_cff_vstore_done
aOg:__Z68RuntimeInvoker_Void_t1185182177_UInt16_t2177724958_SByte_t1669577662PFvvEPK10MethodInfoPvPS4_
jfb:__ZN15ResourceManager10Dependency8TransferI24GenerateTypeTreeTransferEEvRT_
Nhd:_MACTripleDES_HashFinal_m3613553534
Rfg:_UInt64_System_IConvertible_ToChar_m2074245892
z8f:_UTF8Encoding_InternalGetBytes_m1965760031
Jf:_emscripten_glClearDepth
U6b:__ZNK8GUILayer22GetTypeVirtualInternalEv
s5a:__ZN14SafeBinaryRead21TransferSTLStyleArrayINSt3__26vectorIN15QualitySettings14QualitySettingENS1_9allocatorIS4_EEEEEEvRT_17TransferMetaFlags
idb:__ZNSt3__26vectorINS_4pairIPKN5Unity4TypeE7Hash128EENS_9allocatorIS7_EEE8__appendEj
sAc:_cff_font_load
bhj:__GLOBAL__sub_I_LibraryLoader_cpp
Fcc:__Z13IsPathCreatedRKN4core12basic_stringIcNS_20StringStorageDefaultIcEEEE
Cya:__ZL22stbir__encode_scanlineP11stbir__infoiPvPfiii
t4d:_ExternalException__ctor_m2877839282
kxc:__ZN20QuadTreeNodeRenderer13StaticDestroyEPv
oT:__ZN11UnityEngine15CloudWebService20WebRequestRestClient5AbortEv
ori:_Regex_Matches_m2080913806
Z3b:__ZN9Transform12CleanupClassEv
ywg:_Sprite_get_rect_m2575211689
jpg:_Mathf_Sin_m3411839043
yLc:_UNITY_FT_Set_Pixel_Sizes
$Rd:_OperatingSystem_Clone_m1122165140
r3h:_GameObject_AddComponent_TisRuntimeObject_m3469369570_gshared
dka:__ZNSt3__26vectorIN9ShaderLab19SerializedSubShaderENS_9allocatorIS2_EEE26__swap_out_circular_bufferERNS_14__split_bufferIS2_RS4_EE
dA:__ZN11UnityEngine9Animation33SetGenericTransformPropertyValuesERKNS0_30AnimatorGenericBindingConstantERKN7mecanim10ValueArrayEP9Transformy
I6i:__ZN6il2cpp2vmL24thread_cleanup_on_cancelEPv
Y2g:_List_1_RemoveAll_m3165362277_gshared
Ucg:_Type_type_is_subtype_of_m1406623598
_8f:_Thread_get_CurrentThread_m4142136012
eWa:__Z30ProcessDynamicBatchGeometryJobP25DynamicVBOGeometryJobDataj
cPb:__ZNSt3__27__sort4IRNS_6__lessI11CulledLightS2_EEPS2_EEjT0_S6_S6_S6_T_
SWi:__ZN6il2cpp2vm14TypeNameParser26ParseArrayModifierOptionalEv
TZ:__Z26scripting_object_get_class18ScriptingObjectPtr
H7i:__ZN6il2cpp6icalls8mscorlib6System10Reflection8Assembly13get_code_baseEP24Il2CppReflectionAssemblyb
Vfb:__ZNSt3__26vectorIN4core12basic_stringIcNS1_20StringStorageDefaultIcEEEE13stl_allocatorIS5_L18MemLabelIdentifier13ELi16EEE7reserveEj
Cgd:_DSASignatureDeformatter__ctor_m2889130126
C3b:__ZNK28MonoBehaviourPropertyBinding15GenerateBindingERKN4core12basic_stringIcNS0_20StringStorageDefaultIcEEEEbRN11UnityEngine9Animation14GenericBindingE
dvg:_RectTransform_INTERNAL_set_pivot_m1160676233
U7g:_List_1_set_Item_m35836043_gshared
Cef:_X509ChainElementCollection__ctor_m3424079155
woi:_LinkStack_Push_m3081279930
Qxe:_Enumerator_MoveNext_m1107569389_gshared
Lij:__ZN6il2cpp6icalls8mscorlib6System11Environment15internalGetHomeEv
Kpg:_Matrix4x4_GetHashCode_m4034747639_AdjustorThunk
w3d:_ResourceCacheItem_t51292791_marshal_pinvoke_cleanup
iX:__ZNK5Unity9Component7GetNameEv
fTe:_U3CDelayedSetDirtyU3Ec__Iterator0_Reset_m160466733
Ykg:_Native__cctor_m1435623442
j6g:_List_1_System_Collections_IList_Remove_m1070694895_gshared
Lvi:_LayoutCache__ctor_m3885940174
rB:__ZN7mecanim8skeleton26SkeletonPoseComputeGlobalQEPKNS0_8SkeletonEPKNS0_13SkeletonPoseTIN4math4trsXEEEPS7_ii
Qfg:_UInt64_System_IConvertible_ToByte_m1501504925_AdjustorThunk
nHi:_TextGenerator_Invalidate_m1072346986
Nde:_TlsClientHello_ProcessAsTls1_m2549285167
q$g:__Z74RuntimeInvoker_Boolean_t97287965_UIVertex_t4057497605_UIVertex_t4057497605PFvvEPK10MethodInfoPvPS4_
K8h:_ReadOnlyCollection_1_System_Collections_IList_Clear_m3591436538_gshared
GXe:_ScrollRect_set_decelerationRate_m723367336
TA:__ZN9BlobWrite8TransferI22OffsetPtrArrayTransferIiEEEvRT_PKc17TransferMetaFlags
Dsf:_EncoderExceptionFallback_Equals_m2760188920
Zhf:_RIPEMD160Managed_HashCore_m2350629432
VJ:__ZN4FMOD6System7releaseEv
Xpd:_Boolean_CompareTo_m3665076258
Tpf:_String_Split_m3580120853
L5e:_PrivateKeyInfo__ctor_m2811023496
T0:__Z18PathToAbsolutePathRKN4core12basic_stringIcNS_20StringStorageDefaultIcEEEE
Gwi:_GUILayoutUtility_LayoutFromEditorWindow_m2914699782
eya:__ZL13BlitImageImplR14ImageReferenceiiRKS_NS_10ColorSpaceENS_8BlitModeEb
v8b:__ZN15DirectorManager17AcquireOutputNodeEv
nAa:__ZN6prcoreL17RemapGenericFloatI18TexFormatRGBAFloat17TexFormatRGBFloatEEvPKNS_9InnerInfoE
u3h:_GameObject_GetComponentInChildren_TisRuntimeObject_m1310240902_gshared
yLh:__ZL69PersistentCall_t3407714124_CustomAttributesCacheGenerator_m_ArgumentsP21CustomAttributesCache
aHa:__ZN16GeometryJobTasks20ScheduleGeometryJobsER9GfxDevicePFvP15GeometryJobDataEPK22GeometryJobInstructionjb
_H:__ZN12AudioManager29ShutdownReinitializeAndReloadEv
hYa:__ZN16ReflectionProbes28GetMinBakedCubemapResolutionEv
M9a:__ZN14BlendShapeData8TransferI14SafeBinaryReadEEvRT_
Ujj:__GLOBAL__sub_I_String_cpp
YKi:__ZN15dense_hashtableINSt3__24pairIK10KeyWrapperIPK22Il2CppGenericParameterEP11Il2CppClassEES6_N6il2cpp5utils11PointerHashIS4_EEN14dense_hash_mapIS6_S9_SE_NS6_14EqualsComparerINS0_8equal_toIS5_EEEENS0_9allocatorISA_EEE9SelectKeyESJ_SL_E6insertERKSA_
fRe:_InputField_GenerateCaret_m1459647218
_li:_X509CertificateEnumerator__ctor_m85694331
$ta:__ZN14DataBufferGLES16RecreateWithDataEjPKv
N2:__Z29GetGlobalAllowNameConversionsv
tPf:_Array_InternalArray__Insert_TisTableRange_t3332867892_m558285859_gshared
YYb:__ZN8Material8SetColorEN9ShaderLab16FastPropertyNameERK10ColorRGBAf
U1f:_Enumerator_System_Collections_IEnumerator_Reset_m3754523291_gshared
lHj:_glUniform3uiv__wrapper
TL:__ZN11AudioSource23VirtualRedirectTransferER18StreamedBinaryReadILb0EE
ctg:_RangeInt_get_end_m4128831787
Vba:__ZN21AssetReferenceStorageC2Ev
Ezj:dynCall_iiifiii
a$:__ZL41AssemblyNameMatchesWithOrWithoutExtensionPKcS0_
b5g:_List_1_set_Item_m2082115010_gshared
G5f:_Encoding_GetBytes_m3735967069
BDa:__ZN14GfxContextGLES43AddRenderSurfaceToDeferredFBOInvalidateListEPK17RenderSurfaceGLES
h8i:__ZN6il2cpp6icalls8mscorlib6System9Threading6Thread15Thread_internalEP12Il2CppThreadP14Il2CppDelegate
roa:__ZN11NamedObject23VirtualRedirectTransferER14SafeBinaryRead
d$e:_Text_get_resizeTextMinSize_m1002355407
nLc:__ZNSt3__26vectorIN20TextRenderingPrivate8FontImpl13CharacterInfoE13stl_allocatorIS3_L18MemLabelIdentifier1ELi16EEE6insertENS_11__wrap_iterIPKS3_EERS9_
mLa:__ZN23PreloadManagerOperation6IsDoneEv
kkj:__ZN6il2cpp5utils11StringUtils11Utf16ToUtf8ERKNSt3__212basic_stringIDsNS2_11char_traitsIDsEENS2_9allocatorIDsEEEE
b8d:_MD4Managed_Decode_m4273685594
Chb:__ZN21LightProbeProxyVolume18HasHardwareSupportEv
bSb:__ZN26LightProbeProxyVolumeCacheC2ER13BatchRendererR15RenderLoopStats
Sya:__ZN6prcoreL31inner_stretch_argb8888_bilinearEPKNS_9InnerInfoE
Byb:__Z18Transfer_BlittableI18StreamedBinaryReadILb1EELb1E8BitFieldEvRK29SerializationCommandArgumentsR31RuntimeSerializationCommandInfo
REc:_UNITY_FT_Outline_Decompose
$Fd:_Int64_System_IConvertible_ToChar_m1509243576_AdjustorThunk
kli:_GeneralNames_get_IPAddresses_m4242915644
dzf:_Decimal_op_Implicit_m3873897383
Moj:_GC_init_size_map
jTa:__Z20scripting_object_new17ScriptingClassPtr
Y5e:_KeyGeneratedEventHandler_Invoke_m2527485594
lxf:_Decimal__ctor_m1925875020_AdjustorThunk
JNe:_SerializationCallbacks__ctor_m3863304525
P:Math_exp
ojg:_Vector3_Min_m1803158933
Do:FUNCTION_TABLE_iiifi
ggj:__ZN6il2cpp2os5posix13PosixAutoLockD2Ev
Mxi:_SymmetricTransform_OFB_m3690147804
Pxc:_cff_get_advances
jEb:__ZN13MonoBehaviour9SetScriptERK4PPtrI10MonoScriptE18ScriptingObjectPtr
EMa:__ZNK10FileSystem16LastErrorMessageEv
wQf:_Array_InternalArray__Insert_TisVector3_t3722313464_m3862657277_gshared
cnf:_SecurityException__ctor_m1631242336
ZMi:__ZN15dense_hashtableINSt3__24pairIK10KeyWrapperIPK11Il2CppClassEPKcEES6_N6il2cpp5utils11PointerHashIS3_EEN14dense_hash_mapIS6_S9_SE_NS6_14EqualsComparerINS0_8equal_toIS5_EEEENS0_9allocatorISA_EEE9SelectKeyESJ_SL_E14squash_deletedEv
d$c:_EventSystem_Update_m1662072334
LYc:__ZN22UnityWebRequestManager10InitializeEv
ADb:__ZN13MonoBehaviour13AwakeFromLoadE17AwakeFromLoadMode
Isb:__ZL26Transfer_SimpleNativeClassI17RemapPPtrTransfer8GradientLb1EEvRK29SerializationCommandArgumentsR31RuntimeSerializationCommandInfo
H_c:_RaycasterManager_RemoveRaycasters_m3057093063
G9b:__ZN12CachedWriter9InitWriteER15CacheWriterBase
k8b:__Z21UnsignedInt64ToStringy
SVe:_GetRaycastNonAllocCallback_BeginInvoke_m3984885848
ypi:_PatternCompiler_BeginLink_m1295557963
JRa:__ZN14SafeBinaryRead21TransferSTLStyleArrayI13dynamic_arrayI17SortingLayerEntryLj4EEEEvRT_17TransferMetaFlags
yCd:_GuidParser_ThrowFormatException_m3223388534
Nsi:_Group_GetAnchorInfo_m3730312864
ZUh:__ZL50Graphic_t1660335611_CustomAttributesCacheGeneratorP21CustomAttributesCache
lcg:_TimeSpan_op_LessThanOrEqual_m300470010
Ihf:_Interval_Merge_m3454211016_AdjustorThunk
Qda:__ZZN15DirectorManager15InitializeClassEvEN41FixedUpdateDirectorFixedUpdateRegistrator7ForwardEv
VKd:_MemoryStream_get_Position_m3733941202
t0b:__ZL10KeyHandleriPK23EmscriptenKeyboardEventPv
zIj:_glLinkProgram__wrapper
ykb:__ZN18ScriptingArguments8AddInt64Ex
Aza:__ZN6prcoreL12RemapGenericI17TexFormatARGB888815TexFormatBGR888EEvPKNS_9InnerInfoE
dlb:__ZN12HandlerChain4LockER13FileEntryData12FileLockMode
UFf:_TextInfo_get_ListSeparator_m1628160079
yZe:_Selectable_OnCanvasGroupChanged_m472903475
h9f:_EventWaitHandle_Reset_m3348053200
xWc:__ZN28UnityConnectScriptingClasses23CallSessionStateChangedEixxbP21ScriptingExceptionPtr
Baj:__ZN6il2cpp6icalls8mscorlib6System13Globalization11CultureInfo35construct_internal_locale_from_nameEP17Il2CppCultureInfoP12Il2CppString
Qub:__ZL22Transfer_ManagedObjectI24GenerateTypeTreeTransferLb1EEvRK29SerializationCommandArgumentsR31RuntimeSerializationCommandInfo
IMb:__ZN15RenderNodeQueueC2E10MemLabelId
s3d:_ResourceEnumerator_FillCache_m1661715061
xxh:__ZL72SecuritySafeCriticalAttribute_t3505979402_CustomAttributesCacheGeneratorP21CustomAttributesCache
Zj:_emscripten_set_main_loop_timing
cjg:_Bounds_get_min_m3755135869
PBd:_Convert_ToUInt16_m3523269149
vva:__ZN14DataBufferGLES12RecordRenderEv
c0c:_ExecuteEvents_get_endDragHandler_m2879610446
FYb:__ZN14ImageReference10FlipImageYEv
nnc:__Z14GetDefaultSkini
kF:__ZN4FMOD3DSP9setBypassEb
l0b:__Z19NormalizeWheelInputf
kad:_Graphic_DoMeshGeneration_m3548487693
Mqi:_Repetition__ctor_m1672362629
mwc:__Z29Transfer_Blittable_ArrayFieldI8JSONReadhEvRT_R9ArrayInfoRK23StaticTransferFieldInfo
fof:_SecurityFrame_ToString_m339310712_AdjustorThunk
q_d:_TypeBuilder_create_runtime_class_m2581270900
Xke:_InternalEnumerator_1_get_Current_m3008260692_gshared
ktj:__ZN6il2cpp2os20ThreadLocalValueImpl8SetValueEPv
NTa:__ZN22RenderingCommandBuffer20CleanupCommandBufferEv
fzf:_Decimal_op_Implicit_m2299919277
brc:__Z18Transfer_BlittableI9JSONWriteLb1EtEvRK29SerializationCommandArgumentsR31RuntimeSerializationCommandInfo
RNd:_UnexceptionalStreamReader_ReadToEnd_m920589220
Htf:_DateTime_System_IConvertible_ToType_m1242864300
qqf:_String_IndexOf_m1298810678
rk:___syscall85
LEi:__ZL25UnresolvedVirtualCall_198P12Il2CppObjectfPK10MethodInfo
NMb:__ZNSt3__26__sortIRPFbP10GUIElementS2_EPS2_EEvT0_S7_T_
_6b:__ZN16GraphicsSettings12CleanupClassEv
mVd:_ConstructorBuilder_GetILGenerator_m1750792206
e5f:_EncoderFallback_get_ReplacementFallback_m818398284
Zgj:__ZN6il2cpp2os6Thread19DetachCurrentThreadEv
y$c:_EventTrigger_OnBeginDrag_m4203438710
sLi:__ZN6il2cpp2vmL21SetupInterfacesLockedEP11Il2CppClassRKNS_2os12FastAutoLockE
A5e:_PKCS1_Sign_v15_m2719206817
rz:__ZN23AnimationPlayableOutput17SetSourcePlayableEP8Playable
clg:_CullingGroup_Dispose_m782801025
oS:__ZN11UnityEngine15CloudWebService14DataDispatcher15SetupWebRequestEv
ZTc:__ZN11UnityEngine15PlatformWrapper13GetShaderCapsEv
nUb:__ZNSt3__211__sift_downIR26RenderDeferredObjectSorterP16RenderObjectDataEEvT0_S5_T_NS_15iterator_traitsIS5_E15difference_typeES5_
V4e:_KeyPairPersistence_get_MachinePath_m3812267291
Xyd:_Stack_Peek_m2216191248
utf:_DateTime_System_IConvertible_ToDecimal_m1044850612_AdjustorThunk
I7b:__ZN21FixedBehaviourManager6UpdateEv
tcc:__ZN9Transform9SetParentEPS_NS_15SetParentOptionE
L4:__ZN19ShaderPropertySheet8SetFloatEN9ShaderLab16FastPropertyNameEfNS_8SetFlagsE
tgb:__ZN19RuntimeSceneManager24BeginIntegrateMainThreadEP10UnityScene
Jhj:__ZNSt3__2plIcNS_11char_traitsIcEENS_9allocatorIcEEEENS_12basic_stringIT_T0_T1_EERKS9_S6_
SMd:_StringReader_CheckObjectDisposedException_m3796163530
Gja:__ZN9ShaderLab20SerializedSubProgramaSERKS0_
ezj:_roundf
Pqd:_Byte_System_IConvertible_ToSingle_m324484566_AdjustorThunk
Syf:_Decimal_op_Explicit_m2848387298
D_f:_KeyValuePair_2_ToString_m1238786018_gshared
Xs:__ZN8Animator15SetPrepareStageEv
LE:__ZN8AnimatorC2E10MemLabelId18ObjectCreationMode
tLi:__ZN6il2cpp2vmL24SetupTypeHierarchyLockedEP11Il2CppClassRKNS_2os12FastAutoLockE
u0b:__ZL11TextHandleriPK23EmscriptenKeyboardEventPv
KKc:_destroy_face
MEj:_glBlendEquationSeparate__wrapper
gqj:__ZN6il2cpp6icalls8mscorlib6System8Security12Cryptography24RNGCryptoServiceProvider13RngInitializeEP11Il2CppArray
aM:__ZN20SoundChannelInstance7setMuteEb
BRd:_NumberFormatter_NumberToString_m3906556024
Azb:__Z19TransferField_ArrayI18StreamedBinaryReadILb1EE27Converter_SimpleNativeClassI17AnimationCurveTplIfEEEvRK23StaticTransferFieldInfoR31RuntimeSerializationCommandInfoRT0_
_va:__ZN18GfxFramebufferGLES22MakeCurrentFramebufferENS_7BuiltinE
j7:__ZN12CachedReader4ReadEPvj
N2c:_StandaloneInputModule_ProcessMouseEvent_m2923582521
D1e:_SimpleCollator_MatchesForwardCore_m850743967
bRb:__Z24CalculateLightShadowFadeRK6CamerafffR8Vector4f
yaa:__ZN19RuntimeSceneManagerD2Ev
kDf:_CCGregorianCalendar_GetMonth_m1547203696
ET:__ZN11UnityEngine15CloudWebService25WebRequestDownloadHandler17OnCompleteContentEv
Rya:__ZN6prcore17GetIntegerBlitterE13TextureFormatS0_N14ImageReference8BlitModeE
loj:_GC_print_block_descr
J_i:__ZN6il2cpp2gc19AppendOnlyGCHashMapINSt3__24pairIPK11Il2CppImageP11Il2CppClassEEP22Il2CppReflectionModule17ReflectionMapHashIS9_ENS2_8equal_toIS9_EEE11TryGetValueERKS9_PSB_
pec:__ZN9BlobWrite14ReduceCopyImplERK14ReduceCopyDataj
_8:__ZNSt3__26__treeI19RepeatingLogMessageNS_4lessIS1_EE13stl_allocatorIS1_L18MemLabelIdentifier73ELi16EEE12__find_equalIS1_EERPNS_16__tree_node_baseIPvEESD_RKT_
MP:__ZN11AudioSource18IsPlayingScriptingEv
N4e:_KeyBuilder_IV_m2230195376
CDj:_glShaderSource__wrapper
wOa:__ZN25MultiBlocksMemoryFileData17AdjustBlocksCountEj
T7i:__ZNSt3__214__split_bufferIN6il2cpp2vm22EmbeddedResourceRecordERNS_9allocatorIS3_EEED2Ev
dJc:__ZN13TextRendering4Font8TransferI24GenerateTypeTreeTransferEEvRT_
Ifc:__Z27CullingGroup_CUSTOM_DisposeP12Il2CppObject
B7i:__ZN6il2cpp6icalls8mscorlib6SystemL23CheckWideningConversionEjjj
XWc:__ZNSt3__26vectorIP19BaseConnectSettings13stl_allocatorIS2_L18MemLabelIdentifier6ELi16EEE21__push_back_slow_pathIKS2_EEvRT_
sMb:__ZN13ComputeShader15SetTextureParamEjRKN9ShaderLab16FastPropertyNameE9TextureID16TextureDimension
zm:_glStencilMask
xhj:__ZN6il2cpp2os10ThreadImpl16GetCurrentThreadEv
a1d:_MonoMethod_GetBaseDefinition_m2844667474
n0b:__ZN15GUIEventManager10QueueEventERK10InputEvent
b4d:_DecimalConstantAttribute__ctor_m3583301917
Nnj:_GC_push_conditional_with_exclusions
lwe:_Enumerator_System_Collections_IDictionaryEnumerator_get_Entry_m2772123357_AdjustorThunk
BJe:_MethodCallDictionary__ctor_m2167303393
SB:__ZN12_GLOBAL__N_121ProcessAnimationBeginER35AnimationPlayableEvaluationConstantR32AnimationPlayableEvaluationInputR33AnimationPlayableEvaluationOutput
rnj:_GC_make_disappearing_links_disappear
jwj:_strrchr
Gkg:_Component_GetComponentInParent_m779177818
n3c:_UIBehaviour_IsDestroyed_m3033055982
MMg:__Z109RuntimeInvoker_Void_t1185182177_RuntimeObject_RuntimeObject_SByte_t1669577662_Int32_t2950945753_RuntimeObjectPFvvEPK10MethodInfoPvPS4_
GPe:_InputField_get_readOnly_m3111985574
sYa:__ZN14RenderSettings27UpdateIndirectSpecularColorEv
jeb:__ZN14PlayerSettings8TransferI18StreamedBinaryReadILb0EEEEvRT_
kUi:__ZN6il2cpp6icalls8mscorlib6System8MonoType16GetMethodsByNameEP20Il2CppReflectionTypeP12Il2CppStringibS5_
A9f:_Monitor_Monitor_wait_m3706677354
Jid:_RijndaelTransform__cctor_m2439033240
KIb:__ZNSt3__27__sort3IRNS_4lessIN22BuiltinResourceManager8ResourceEEEPS3_EEjT0_S7_S7_T_
AHc:_ps_hints_t2mask
c2h:_LayoutGroup_SetProperty_TisVector2_t2156229523_m2721164497_gshared
CIf:_Array_InternalArray__ICollection_Remove_TisMonoResource_t4103430009_m238733686_gshared
nHd:_IntPtr_ToString_m1831665121
t_e:_Slider_Set_m1476104429
Ybd:_Image_set_fillClockwise_m2210525152
Uab:__ZN10BlendShape8TransferI19StreamedBinaryWriteILb0EEEEvRT_
eHd:__Z21il2cpp_codegen_sizeofP11Il2CppClass
KCa:__Z19GetTimeSinceStartupv
wcd:_Image_AddQuad_m2161647989
I1f:_Enumerator_System_Collections_IEnumerator_Reset_m2953002685_gshared
WGc:_TT_Load_Composite_Glyph
f$a:__ZN9ShaderLab11shaderprops9GetTexEnvEPK19ShaderPropertySheetS3_NS_16FastPropertyNameE16TextureDimensionb
vPb:__ZN29RenderNodeQueuePrepareContextC2Ev
g4i:_il2cpp_gc_disable
Ska:__ZN9ShaderLab20SerializedSubProgram16TextureParameter8TransferI24GenerateTypeTreeTransferEEvRT_
Egd:_DSASignatureDeformatter_SetKey_m2999549245
Gqj:__ZN6il2cpp2os11MutexHandle4WaitEb
jpa:__ZN9GfxDevice19SaveStereoConstantsEv
Fqj:__ZN6il2cpp2os11MutexHandle4WaitEj
fdc:__ZL34GetComponentsImplementationRecurseILb1ELi1ELi1EEbR10GameObjectbRK17CompareParametersRK39GetComponentsImplementation_ReturnValue
UEg:__Z114RuntimeInvoker_Boolean_t97287965_RuntimeObject_RuntimeObject_Int32_t2950945753_Int32_t2950945753_Int32_t2950945753PFvvEPK10MethodInfoPvPS4_
EUd:_AssemblyBuilder_GetTypes_m3415680380
KAa:__ZN6prcoreL17RemapGenericFloatI15TexFormatRGHalf18TexFormatARGBFloatEEvPKNS_9InnerInfoE
PGb:__Z18SimulateMouseInputi
JLb:__ZN13RenderManager23AddRemoveCamerasDelayedEv
gsc:__ZN9JSONWrite8TransferI13dynamic_arrayIdLj8EEEEvRT_PKc17TransferMetaFlags
Ipc:__ZN5Unity9rapidjson6WriterI16TempBufferWriterNS0_4UTF8IcEES4_13JSONAllocatorE11WriteUint64Ey
Ood:_BitConverter__cctor_m3841343255
fyf:_Decimal_Compare_m3062820418
Phf:_IntervalCollection_GetMetaCollection_m4029522214
t$c:_EventTrigger_OnDeselect_m1919608102
fHi:_TextGenerator_get_characterCount_m864136654
nbg:_TimeSpan__ctor_m2047388489_AdjustorThunk
rXb:__ZN13RenderTexture8SetWidthEi
YGc:_UNITY_FT_GlyphLoader_CheckSubGlyphs
GRb:__Z25SetupObjectBakedOcclusionbRK15SharedLightDataRK26SharedLightmapSettingsDataRK15LightmapIndicesR17ShaderPassContext
ddh:_Collection_1_System_Collections_ICollection_CopyTo_m1516601228_gshared
T4:__ZN9ShaderLab16FastPropertyName4InitEPKc
X2b:__Z13RegisterClassIN2UI13RectTransformEEvv
s6b:__ZL31MeshRendererTransformChangedJobP13BoundsJobDatajPK23TransformAccessReadOnlyPKyj
Buc:__ZN8JSONRead21TransferSTLStyleArrayI31ArrayOfManagedObjectsTransfererEEvRT_17TransferMetaFlags
yrd:_Char_System_IConvertible_ToByte_m2347554595_AdjustorThunk
gZa:__ZN13RenderTexture9SetMipMapEb
srf:_String_CreateString_m860434552
kea:__Z18GetDirectorManagerv
bAe:_Enumerator_System_Collections_IEnumerator_Reset_m278261807_AdjustorThunk
Mjc:__Z38Transform_CUSTOM_INTERNAL_get_rotationP12Il2CppObjectP11Quaternionf
y_i:__ZNK15dense_hashtableINSt3__24pairIK10KeyWrapperINS1_IPK10MethodInfoP11Il2CppClassEEEjEES9_17ReflectionMapHashIS8_EN14dense_hash_mapIS9_jSD_NS9_14EqualsComparerINS0_8equal_toIS8_EEEENS0_9allocatorISB_EEE9SelectKeyESI_SK_E5beginEv
aua:__ZN7ApiGLES19UploadBufferSubDataEjN2gl12BufferTargetEllPKv
wga:__ZNSt3__216__rotate_forwardINS_11__wrap_iterIPN4core12basic_stringIcNS2_20StringStorageDefaultIcEEEEEEEET_S9_S9_S9_
Tyg:_Vector2_GetHashCode_m3916089713
gwg:_SendMouseEvents_HitTestLegacyGUI_m579942228
IQd:_MulticastDelegate_Equals_m2502840627
Rkf:_SymmetricAlgorithm_set_KeySize_m3805756466
Vqd:_Byte_System_IConvertible_ToUInt32_m1049546902_AdjustorThunk
QNg:__Z53RuntimeInvoker_Double_t594665363_Interval_t1802865632PFvvEPK10MethodInfoPvPS4_
VIb:__Z21InitializeBatchedJobsv
fIi:_CanvasGroup_get_blocksRaycasts_m1805542303
zjf:_SHA1Internal_ProcessBlock_m1991889327
Kpb:__Z19TransferField_ArrayI14SafeBinaryRead27Converter_SimpleNativeClassI8GUIStyleEEvRK23StaticTransferFieldInfoR31RuntimeSerializationCommandInfoRT0_
E$h:_Array_Sort_TisRuntimeObject_TisRuntimeObject_m1685639929_gshared
pqj:__ZN6il2cpp5utils10MemoryPoolC2Ev
PXa:__ZN14RenderSettings5ResetEv
S1b:__ZN6Sprite9BindAtlasERK4PPtrI11SpriteAtlasE
Qoc:__ZN5Unity9rapidjson12GenericValueINS0_4UTF8IcEE13JSONAllocatorE10FindMemberIS4_EENS0_21GenericMemberIteratorILb0ES3_S4_EERKNS1_IS3_T_EE
Ioe:_InternalEnumerator_1_System_Collections_IEnumerator_get_Current_m3892960115_AdjustorThunk
A9i:__ZNSt3__212basic_stringIDsNS_11char_traitsIDsEENS_9allocatorIDsEEE6appendEPKDsj
vtd:_ArrayList_Clone_m2682741233
ihd:_HMAC_HashCore_m3684104066
opc:__ZN5Unity9rapidjson13GenericReaderINS0_4UTF8IcEES3_13JSONAllocatorE11ParseNumberILj1ENS0_25GenericInsituStringStreamIS3_EENS0_15GenericDocumentIS3_S4_S4_EEEEvRT0_RT1_
hhj:__ZN6il2cpp2os10ThreadImplD2Ev
jqc:__ZN8Gradient8TransferI9JSONWriteEEvRT_
bhb:__ZN21RendererUpdateManager18OncePerFrameUpdateER13RendererScene
WAi:_AudioSource_set_clip_m31653938
WKa:__ZNK12TLSAllocatorI14StackAllocatorE22GetAllocatedMemorySizeEv
b3:__ZN17RemapPPtrTransfer12PushMetaFlagE17TransferMetaFlags
dXf:_EqualityComparer_1_System_Collections_IEqualityComparer_GetHashCode_m2138064395_gshared
Qkb:__ZN12HandlerChain4NameEv
eDd:_Int16_System_IConvertible_ToType_m3672347013_AdjustorThunk
Dqf:_String_LastIndexOf_m578673845
xrb:__Z29Transfer_Blittable_ArrayFieldI14SafeBinaryReadN4math12int3_storageEEvRT_R9ArrayInfoRK23StaticTransferFieldInfo
Rnf:_SecurityException_ToString_m3228070608
QEd:_Int16_ToString_m2013897809
Tnf:_String_Substring_m2848979100
DRc:__Z44Register_UnityEngine_CanvasRenderer_get_cullv
x3h:_ScriptableObject_CreateInstance_TisRuntimeObject_m1552711675_gshared
gTc:__ZN11UnityEngine7Connect17XRDeviceInfoEvent12XRDeviceInfoD2Ev
Mnb:__Z44InitializeTransferFunctionScriptingTraitsForI17RemapPPtrTransferEvR31TransferFunctionScriptingTraits
E3b:__ZNSt3__26vectorI16MessageForwarder13stl_allocatorIS1_L18MemLabelIdentifier7ELi8EEE6resizeEj
Zdf:_X509Chain_SelectBestFromCollection_m1068759221
Pxi:_SymmetricTransform_TransformBlock_m851059707
dlh:__ZL68IntPtr_t_CustomAttributesCacheGenerator_IntPtr_ToPointer_m4157623054P21CustomAttributesCache
$9g:_Enumerator_System_Collections_IEnumerator_Reset_m2261065994_AdjustorThunk
jYe:_ScrollRect_get_verticalNormalizedPosition_m3693218937
rgb:__ZN18LoadSceneOperation21MustCompleteNextFrameEv
v_e:_Slider_UpdateDrag_m1102107039
E1d:_MonoMethodInfo_get_method_info_m88651774
bM:__ZNK12AudioManager16GetAudioListenerEv
bFd:_Int32_System_IConvertible_ToDateTime_m1824716955
Ydd:_RuntimeTypeHandle__ctor_m3315980708_AdjustorThunk
MHi:_Canvas_set_overrideSorting_m4088794420
YWb:__ZNSt3__26vectorI11CameraStackNS_9allocatorIS1_EEE8__appendEj
su:__ZN7mecanim9animation12GetHumanPoseERKNS0_18ClipMuscleConstantEPKNS0_10ValueDeltaERNS_5human9HumanPoseE
iw:__ZN22AnimationMixerPlayable17ProcessRootMotionEP35AnimationPlayableEvaluationConstantP32AnimationPlayableEvaluationInputP33AnimationPlayableEvaluationOutput
Z0:__Z13GetFileSystemv
kba:__ZNK5Unity4Type21FindAllDerivedClassesER13dynamic_arrayIPKS0_Lj4EENS0_17TypeFilterOptionsE
dca:__ZN13RuntimeStaticI15GUIEventManagerLb0EE16StaticInitializeEPv
shg:_Version_CompareTo_m3146217210
wde:_TlsClientCertificate_FindParentCertificate_m3844441401
Dti:_Uri_ParseAsUnixAbsoluteFilePath_m1476768041
vOf:_Array_InternalArray__ICollection_CopyTo_TisKeyValuePair_2_t71524366_m1056941380_gshared
Hcg:_Type_get_IsClass_m589177581
Tcg:_Type_get_IsSystemType_m624798880
enb:__ZN19ShaderPropertySheet9SetMatrixEN9ShaderLab16FastPropertyNameERK10Matrix4x4fNS_8SetFlagsE
p3a:__Z29GetTextureSizeAllowedMultiple13TextureFormat
Zxf:_Decimal_Subtract_m835601464
Xfb:__ZNSt3__26vectorIN4core12basic_stringIcNS1_20StringStorageDefaultIcEEEE13stl_allocatorIS5_L18MemLabelIdentifier13ELi16EEE8__appendEj
Y7b:__ZN21IntermediateRenderers3AddEP20IntermediateRenderer
r3i:_il2cpp_array_element_size
JOd:_MissingMemberException__ctor_m2571045846
Mjh:__ZL62ComVisibleAttribute_t1362837655_CustomAttributesCacheGeneratorP21CustomAttributesCache
$ug:_RectTransform_INTERNAL_set_sizeDelta_m188783163
Wf:_glCheckFramebufferStatus
Mpj:__ZN6il2cpp2os11EventHandle4WaitEv
SU:__ZN19CloudServiceHandler20StartEventDispatcherERKN11UnityEngine15CloudWebService18CloudServiceConfigERNS1_23WebRequestRestHeaderMapE
Kad:_GraphicRaycaster__ctor_m646559428
qvd:_BitArrayEnumerator_get_Current_m4220391712
XSd:__Z37il2cpp_codegen_get_executing_assemblyPK10MethodInfo
Avg:_Transform_get_parent_m835071599
daf:_IPAddress_get_ScopeId_m4237202723
vr:__ZN4core8hash_mapIN11UnityEngine9Animation14GenericBindingENS2_10BoundIndexENS2_25GenericBindingHashFunctorENS2_30GenericBindingValueArrayUniqueEE4growEi
Ft:__ZN21AnimationClipPlayable7SetTimeEd
Qqi:_ExpressionCollection_get_Item_m3510736379
RUh:__ZL62FontData_t746620069_CustomAttributesCacheGenerator_m_AlignmentP21CustomAttributesCache
m2c:_StandaloneInputModule_get_inputActionsPerSecond_m3946624274
E8f:_UTF8Encoding_InternalGetCharCount_m82458470
gzg:_Vector2__cctor_m2108982652
ur:__ZN4core8hash_mapIN11UnityEngine9Animation14GenericBindingENS2_10BoundIndexENS2_25GenericBindingHashFunctorENS2_30GenericBindingValueArrayUniqueEE4growEv
Raj:__ZN14dense_hash_mapI10KeyWrapperIP14Il2CppIUnknownEjN6il2cpp5utils11PointerHashIS1_EENS3_14EqualsComparerINSt3__28equal_toIS2_EEEENS9_9allocatorINS9_4pairIKS3_jEEEEE15set_deleted_keyERSF_
xba:__ZN22BuiltinResourceManager16StaticInitializeEPv
c1i:__ZN13Il2CppHashMapIPK14Il2CppAssemblyPK22Il2CppMonoAssemblyNameN6il2cpp5utils11PointerHashIS1_EENSt3__28equal_toIS2_EENSA_9allocatorINSA_4pairIK10KeyWrapperIS2_ES5_EEEEEC2EjRKS9_RKSC_
Vld:_DelegatePInvokeWrapper_AppDomainInitializer_t682969308
e0:__ZN8Remapper6RemoveEi
F5f:_Encoding_GetBytes_m3148649984
uLc:__ZL36CleanupTextRenderingScriptingClassesv
oXb:__ZN15ReflectionProbe17UseRendererResultEP13ProbeRenderer
$kc:__Z34Mesh_CUSTOM_SetArrayForChannelImplP12Il2CppObject30InternalScriptingShaderChannel34InternalScriptingVertexChannelTypeiP11Il2CppArrayi
X_:__Z32scripting_class_get_nested_types17ScriptingClassPtrRNSt3__26vectorIS_13stl_allocatorIS_L18MemLabelIdentifier1ELi16EEEE
nIi:_CanvasRenderer_INTERNAL_CALL_EnableRectClipping_m3318097918
Wfg:_UInt64_System_IConvertible_ToDecimal_m806594027_AdjustorThunk
gwe:_Enumerator_System_Collections_IEnumerator_get_Current_m361750367_AdjustorThunk
NLe:_RealProxy_InternalGetTransparentProxy_m1765012608
s0g:_List_1__ctor_m3395838871_gshared
D4h:_Collection_1_IsFixedSize_m3698021882_gshared
Ali:_PKCS12__ctor_m1854440921
g$h:_Array_Resize_TisCustomAttributeNamedArgument_t287865710_m885566878_gshared
VD:__ZN11UnityEngine9Animation28GenericAnimationBindingCache25RegisterIAnimationBindingEPKN5Unity4TypeEiP17IAnimationBinding
HRc:__Z70RectTransformUtility_CUSTOM_INTERNAL_CALL_RectangleContainsScreenPointP12Il2CppObjectRK13Vector2fIcallS0_
TId:_DirectoryInfo__ctor_m481305441
t9:__ZN10MemoryPoolC2E10MemLabelIdbPKciii
QVb:__Z40ProcessCameraIndexListIsNodeVisibleInOutRK22SceneCullingParametersPK9SceneNodePK4AABBR9IndexList
Kwi:_GUIScrollGroup_SetHorizontal_m291416666
vVa:__ZN16GraphicsSettings8TransferI17RemapPPtrTransferEEvRT_
hPc:__ZN2UI6Canvas13UpdateBatchesEb
Vbf:_X509BasicConstraintsExtension_Decode_m120598446
oz:__ZNK23AnimationPlayableOutput11DerivesFromE17ScriptingClassPtr
DPh:__ZL64EventType_t3528516131_CustomAttributesCacheGenerator_dragUpdatedP21CustomAttributesCache
yUc:__ZN11UnityEngine7Connect13ConfigHandler12GetListenersERKN4core12basic_stringIcNS2_20StringStorageDefaultIcEEEE
Gqa:__ZN9GfxDevice18AllocRenderSurfaceEb
qrd:_Char__cctor_m2787437263
L1b:__ZN10TagManager32GetSortingLayerUniqueIDFromValueEi
B3c:_AspectRatioFitter_get_rectTransform_m2996235303
K_:__ZL27CleanupCoreScriptingClassesv
Had:_Graphic_UnregisterDirtyMaterialCallback_m2707090617
lve:_Comparer_1_System_Collections_IComparer_Compare_m1313384821_gshared
Qhc:__Z26AnimationCurve_CUSTOM_InitP12Il2CppObjectP11Il2CppArray
fHj:_glUniform1uiv__wrapper
P0i:__ZN6il2cpp2vm10Reflection7IsEventEP12Il2CppObject
xZ:__ZN17PersistentManager26GetStreamNameSpaceInternalEi
ZF:__ZN4FMOD6System11createSoundEPKcjP22FMOD_CREATESOUNDEXINFOPPNS_5SoundE
Xn:FUNCTION_TABLE_iiifiiii
rxc:__ZN13SpeedTreeWind20AdvanceWithoutUpdateEd
ttf:_DateTime_System_IConvertible_ToDecimal_m1044850612
Y9:__ZN9ShaderLab19CommonPropertyNames13StaticCleanupEPv
y$:__Z31scripting_method_get_returntype18ScriptingMethodPtr
K4a:__ZN15SerializeTraitsI12LightmapDataE8TransferI24GenerateTypeTreeTransferEEvRS0_RT_
mmf:_SecurityElement_AddAttribute_m311510562
EDj:_glStencilOpSeparate__wrapper
Iac:__ZN4Mesh5SetUvEiPKfjj
L5a:__ZN7Texture13SetAnisoLimitENS_20AnisotropicFilteringE
ZN:__ZN11AudioModule16SetListenerPauseEb
Eod:_Attribute_IsDefined_m4069052474
Qh:_emscripten_glCompressedTexSubImage2D
qDa:__ZN13GfxDeviceGLES22MemoryBarrierImmediateEyN2gl17MemoryBarrierTypeE
YAa:__ZN6prcoreL26RemapGenericFloatToIntegerI18TexFormatARGBFloat17TexFormatARGB8888EEvPKNS_9InnerInfoE
O8g:_List_1_set_Capacity_m1977188119_gshared
$cc:__Z46GetShaderModelNumericValueFromRequirementsMask18ShaderRequirements
dBc:_cff_ps_has_glyph_names
kTf:_Dictionary_2_Resize_m3287623642_gshared
pmj:_GC_write
did:_RC2_Create_m2516417038
rad:_Graphic_OnPopulateMesh_m767318148
LCe:_Dictionary_2_Remove_m4193450060_gshared
MGd:_Int64_TryParse_m3606398488
g_h:_Array_InternalArray__set_Item_TisMark_t3471605523_m1299772331_gshared
Coc:__Z44Register_UnityEngine_GUIStyle_SetDefaultFontv
Jxb:__Z18Transfer_BlittableI18StreamedBinaryReadILb1EELb1EiEvRK29SerializationCommandArgumentsR31RuntimeSerializationCommandInfo
RA:__ZN9BlobWrite8TransferI22OffsetPtrArrayTransferIKN4math7_float3EEEEvRT_PKc17TransferMetaFlags
_Eg:__Z173RuntimeInvoker_Int32_t2950945753_RuntimeObject_Int32_t2950945753_Int32_t2950945753_Int32_t2950945753_RuntimeObject_Int32_t2950945753_SByte_t1669577662_ContextU26_t3937453398PFvvEPK10MethodInfoPvPS4_
m2g:_List_1__ctor_m2576108087_gshared
D$i:__ZN15dense_hashtableINSt3__24pairIK10KeyWrapperINS1_IPK12PropertyInfoP11Il2CppClassEEEjEES9_17ReflectionMapHashIS8_EN14dense_hash_mapIS9_jSD_NS9_14EqualsComparerINS0_8equal_toIS8_EEEENS0_9allocatorISB_EEE9SelectKeyESI_SK_E12maybe_shrinkEv
Xli:_X509Certificate_get_DSA_m565099499
iyb:__Z18Transfer_BlittableI18StreamedBinaryReadILb1EELb1EsEvRK29SerializationCommandArgumentsR31RuntimeSerializationCommandInfo
W6f:_StringBuilder_Remove_m940064945
Zfd:_DESCryptoServiceProvider_GenerateIV_m683687014
hse:_InternalEnumerator_1_get_Current_m3792939945_gshared
LSc:__ZN22BaseUnityConnectClient17OnEnterStateReadyEv
l$e:_Text_get_fontSize_m1677872538
sgd:_DSACryptoServiceProvider_get_PublicOnly_m3933928860
KTa:__ZN14GrowableBufferD2Ev
ehc:__Z29Input_CUSTOM_GetMouseButtonUpi
vDd:_Int16_Parse_m138525169
KUi:__ZN6il2cpp6icalls8mscorlib6System8MonoType16InternalGetEventEP20Il2CppReflectionTypeP12Il2CppStringi
vui:_UriScheme_t722425697_marshal_pinvoke_back
XCc:_UNITY_tt_face_load_maxp
thc:__Z46Input_CUSTOM_INTERNAL_set_compositionCursorPosRK13Vector2fIcall
yt:__ZN7mecanim5human12FullBodyMaskEv
k2e:_BigInteger_ToString_m3475000413
Ybb:__ZN19ShaderPropertySheet11ComputeHashEv
XOi:__ZN30dense_hashtable_const_iteratorI10KeyWrapperIPK19Il2CppGenericMethodES4_N6il2cpp8metadata23Il2CppGenericMethodHashEN14dense_hash_setIS4_S7_NS4_14EqualsComparerINS6_26Il2CppGenericMethodCompareEEENSt3__29allocatorIS4_EEE8IdentityESB_SE_EppEv
nT:__ZN11UnityEngine15CloudWebService20WebRequestRestClient6IsDoneEv
uki:_X509CertificateCollection_get_Item_m1033426577
Ni:_llvm_fabs_f32
SS:__ZN11UnityEngine15CloudWebService16SessionContainer16GetJsonDataBlockEjRKN4core12basic_stringIcNS2_20StringStorageDefaultIcEEEERS6_PjSA_
B3e:_ASN1_Decode_m1695284166
EBf:_Enum_ToString_m3248653065
NZ:__ZN14SafeBinaryReadD2Ev
Q2b:__Z13RegisterClassI7TextureEvv
P1f:_Enumerator_MoveNext_m3859993671_gshared
yzb:__ZN8Gradient8TransferI18StreamedBinaryReadILb1EEEEvRT_
Gff:_Capture__ctor_m3103117740
N7a:__ZN4core8hash_mapINS_12basic_stringIcNS_20StringStorageDefaultIcEEEE13dynamic_arrayI4PPtrI6SpriteELj4EENS_4hashIS4_EENSt3__28equal_toIS4_EEEixERKS4_
YDg:__Z113RuntimeInvoker_Void_t1185182177_RuntimeObject_Int64_t3736567304_RuntimeObject_Int64_t3736567304_Int64_t3736567304PFvvEPK10MethodInfoPvPS4_
dtg:_RangeInt_get_end_m4128831787_AdjustorThunk
naj:__ZN6il2cpp6icalls8mscorlib6System4Type15MakeGenericTypeEP20Il2CppReflectionTypeP11Il2CppArray
nj:_SDL_PauseAudio
exd:_Hashtable_Clone_m3078962909
O3i:_il2cpp_class_from_type
MVi:__ZN6il2cpp2os4File11GetStdErrorEv
X9:__ZN9ShaderLab19CommonPropertyNames16StaticInitializeEPv
WC:__ZN7mecanim9animation18CreateAvatarOutputEPKNS0_14AvatarConstantEbbRNS_6memory9AllocatorE
Smd:_Array_GetLongLength_m561139708
b_e:_Slider_set_maxValue_m2251404465
VL:__ZN11AudioSource23VirtualRedirectTransferER24GenerateTypeTreeTransfer
sac:__ZN7Texture11SetWrapModeE15TextureWrapMode
i8a:__ZN14Texture2DArray23VirtualRedirectTransferER14SafeBinaryRead
MOd:_MissingMemberException__ctor_m1220732369
YQb:__ZNK6Camera21CalculateCanDoShadowsEv
$hg:_Application_InvokeOnBeforeRender_m2875673833
Sgj:__ZN6il2cpp2os6Thread12SetStackSizeEj
NUe:_MaskableGraphic_RecalculateMasking_m183336762
C2h:_Array_InternalArray__get_Item_TisRuntimeObject_m3347010206_gshared
G_d:_TypeBuilder_IsSubclassOf_m3458909121
nac:__ZNK8Renderer16IsVisibleInSceneEv
lZ:__Z13VFormatBufferPciPKcz
EAb:__Z18Transfer_BlittableI18StreamedBinaryReadILb0EELb1EhEvRK29SerializationCommandArgumentsR31RuntimeSerializationCommandInfo
Cjd:_X509Certificate__cctor_m198658613
bsg:_PlayableHandle_Equals_m1666612586_AdjustorThunk
aBa:__ZN6prcoreL27StretchGenericFloatBilinearI15TexFormatRFloatEEvPKNS_9InnerInfoE
NDh:__ZL139ServicePointManager_t170559685_CustomAttributesCacheGenerator_ServicePointManager_t170559685____CheckCertificateRevocationList_PropertyInfoP21CustomAttributesCache
QBf:_Enum_ToObject_m1628250250
lw:__Z24ProcessAnimationMixBeginP35AnimationPlayableEvaluationConstantP32AnimationPlayableEvaluationInputP33AnimationPlayableEvaluationOutput
X6g:_List_1_set_Item_m2057272351_gshared
dya:__Z14PadImageBorderR14ImageReferenceii
d_i:__ZN15dense_hashtableINSt3__24pairIK10KeyWrapperINS1_IPK10MethodInfoP11Il2CppClassEEEjEES9_17ReflectionMapHashIS8_EN14dense_hash_mapIS9_jSD_NS9_14EqualsComparerINS0_8equal_toIS8_EEEENS0_9allocatorISB_EEE9SelectKeyESI_SK_E4findERSA_
fSi:__ZN6il2cpp2vm13MetadataCache28GetFieldDefaultValueForFieldEPK9FieldInfo
QLf:_Array_IndexOf_TisUIVertex_t4057497605_m3336763564_gshared
Pw:__ZN27AnimationLayerMixerPlayableD2Ev
U5c:_ColorBlock_Equals_m518833916_AdjustorThunk
vLh:__ZL66PersistentCall_t3407714124_CustomAttributesCacheGenerator_m_TargetP21CustomAttributesCache
eI:__ZN12AudioManager39HandlePendingAudioConfigurationCallbackEv
kk:_emscripten_glIsFramebuffer
b6e:_RSAManaged_EncryptValue_m799827583
T1:__ZN12_GLOBAL__N_16qAtan2Eff
ok:_JS_Sound_SetLoopPoints
Jca:__ZN15dense_hashtableINSt3__24pairIKyP17VertexDeclarationEEy14GfxGenericHashIyEN14GfxDoubleCacheIyS4_S7_NS0_8equal_toIyEEN31GfxDoubleCacheConcurrencyPolicy11LocklessGetE42GfxDoubleCacheDefaultEmptyDeletedGeneratorIyEE9SelectKeyESA_13stl_allocatorIS5_L18MemLabelIdentifier24ELi16EEE14squash_deletedEv
hN:__ZN12AudioManager17ShouldSourcePauseEb
Qqj:__ZN6il2cpp2vm26MetadataAllocGenericMethodEv
NIf:_Array_InternalArray__ICollection_Remove_TisUInt16_t2177724958_m1766181761_gshared
bHa:__ZN19ConstantBuffersGLES12RecordRenderEv
$rc:__ZN9JSONWrite8TransferI10RectOffsetEEvRT_PKc17TransferMetaFlags
Kxa:__ZN4crnd12symbol_codec11decode_bitsEj
Zyc:_cf2_doFlex
gyi:_AesManaged_GenerateIV_m1368817386
LRa:__ZN13dynamic_arrayI17SortingLayerEntryLj4EE6insertEPS0_jRKS0_
iI:__ZN4FMOD6System12createReverbEPPNS_6ReverbE
Vjj:__ZN6il2cpp2vm6String21InitializeEmptyStringEP11Il2CppClass
Gw:__ZN7mecanim19ValueArrayBlendNodeILb1EEEvRKNS_10ValueArrayERKNS_14ValueArrayMaskERS1_RS4_RNS_16ValueArrayWeightEf
yib:__Z16MarkDependenciesR27GarbageCollectorThreadStatej
lji:_ObjectPool_1_get_countInactive_m526975942_gshared
ELe:_RemotingServices_DisposeIdentity_m2605848806
d2:__ZNK9Transform11GetPositionEv
_ig:_Bounds_set_size_m4127623202
wCd:_GuidParser_Reset_m2640004655
yWa:__ZN23SharedMeshRenderingData18UnloadVertexStreamEi
X7b:__ZN31CanvasBatchIntermediateRenderer11AddSubBatchERK16DrawBuffersRangePK19ShaderPropertySheet
F6b:__ZN19RenderEventsContextC2Ei
cR:__Z6simd4fRKf
Sk:_emscripten_glEnable
Eme:_InternalEnumerator_1_System_Collections_IEnumerator_get_Current_m2982675020_gshared
ERa:__ZN10TagManager23VirtualRedirectTransferER14SafeBinaryRead
vWh:__ZL51RawImage_t3182918964_CustomAttributesCacheGeneratorP21CustomAttributesCache
HTb:__Z15InitLightMeshesv
n0d:_MonoCMethod_ToString_m3992577062
An:FUNCTION_TABLE_iifiii
G5a:__ZN15QualitySettings8TransferI19StreamedBinaryWriteILb0EEEEvRT_
WTe:_LayoutUtility_U3CGetFlexibleHeightU3Em__7_m2991026842
Byc:_cf2_arrstack_init
L2h:_Array_InternalArray__get_Item_TisResourceCacheItem_t51292791_m1306056717_gshared
KRg:__Z157RuntimeInvoker_Void_t1185182177_RuntimeObject_RuntimeObject_RuntimeObject_RuntimeObject_RuntimeObject_RuntimeObject_RuntimeObject_RuntimeObject_RuntimeObjectPFvvEPK10MethodInfoPvPS4_
bX:__Z15CleanLogHandler7LogTypePKcz
oRd:_NumberFormatter_NumberToString_m2481532188
zla:__ZN9ShaderLab19SerializedSubShader8TransferI19StreamedBinaryWriteILb0EEEEvRT_
mYe:_ScrollRect_InternalGetBounds_m599803667
WDb:__ZN6Camera17RemoveImageFilterERK11ImageFilter
ena:__ZNSt3__218__insertion_sort_3IR25ValueParameterArraySorterPN20GpuProgramParameters14ValueParameterEEEvT0_S6_T_
BDh:__ZL67EditorBrowsableAttribute_t1475454531_CustomAttributesCacheGeneratorP21CustomAttributesCache
jwd:_Comparer__cctor_m3311686689
gme:_InternalEnumerator_1_get_Current_m3500427238_AdjustorThunk
PPc:__ZN2UI26InitializeDeviceForOverlayEi
Y8:__Z27LogRepeatingStringWithFlagsRKN4core12basic_stringIcNS_20StringStorageDefaultIcEEEE15LogMessageFlagsi
fgg:_UInt64_System_IConvertible_ToSingle_m925613075
RBf:_Enum_IsDefined_m1442314461
S9f:_Thread__cctor_m817723615
Zzi:_AudioExtensionManager_RegisterBuiltinDefinitions_m2742744104
Zt:__ZN17AnimationPlayable28ComputeNeedsBindingRebuildedEv
et:__ZN17AnimationPlayable23RequestAllocateBindingsEv
ysf:_DecoderReplacementFallbackBuffer_Fallback_m1261056214
zTd:_Binder_get_DefaultBinder_m950908649
jJd:_StreamReader__ctor_m1616861391
qVc:__ZN18UnityConnectClient33OnPlayerSessionStateChangedStaticEPS_jyy
Iif:_RSA_ToXmlString_m2922661427
ZT:__ZNK11UnityEngine15CloudWebService23WebRequestUploadHandler11GetProgressEv
Kua:__ZN7ApiGLES4LoadE16GfxDeviceLevelGL
X4a:__ZN18StreamedBinaryReadILb0EE21TransferSTLStyleArrayI13dynamic_arrayI31EnlightenSystemAtlasInformationLj8EEEEvRT_17TransferMetaFlags
Fdj:__ZN15dense_hashtableI10KeyWrapperIP18Il2CppGenericClassES3_N6il2cpp8metadata22Il2CppGenericClassHashEN14dense_hash_setIS3_S6_NS3_14EqualsComparerINS5_25Il2CppGenericClassCompareEEENSt3__29allocatorIS3_EEE8IdentityESA_SD_E15insert_noresizeERKS3_
M5b:__ZZL31RegisterOtherRendererPropertiesR22GenericPropertyBindingEN30Wrapper_RendererReceiveShadows13GetFloatValueEPv
jHf:_Array_InternalArray__ICollection_Contains_TisSlot_t384495010_m688761886_gshared
o3a:__ZN17SharedTextureDataC2E10MemLabelIdii13TextureFormatjiibb
ATg:__Z114RuntimeInvoker_RuntimeObject_RuntimeObject_Int32_t2950945753_Int32_t2950945753_Int32_t2950945753_Int32_t2950945753PFvvEPK10MethodInfoPvPS4_
bHb:__ZN8Material11SetPassFastEPN9ShaderLab4PassER17ShaderPassContextP6Shaderib
oVc:__ZN11UnityEngine7Connect20BasePersistentValues10SaveValuesER9JSONWrite
phh:_Collection_1_IsFixedSize_m3748602684_gshared
vtf:_DateTime_System_IConvertible_ToDouble_m2116720007
Plg:_Display_GetSystemExtImpl_m2808197389
ebg:_WaitHandle_WaitOne_m2577152516
pjd:_X509Certificate_PEM_m1177570576
Nhe:_ArrayReadOnlyList_1_GetEnumerator_m1835926958_gshared
vbc:__Z14ScaleCurveTimeR17AnimationCurveTplIfEf
jca:__ZN22VirtualJoystickManagerC2Ev
Lba:__ZN20GlobalCachingManager7DisposeEv
WNb:__Z12SetupLODFadeR9GfxDeviceR17ShaderPassContextf
g1a:__ZNK14PlayableOutput7GetTypeEv
uTb:__ZL24CollectForwardObjectsJobP27CollectForwardObjectsHeader
pVb:__Z13IsNodeVisibleRK9SceneNodeRK4AABBRK22SceneCullingParameters
sMf:_Array_InternalArray__IndexOf_TisLabelFixup_t858502054_m1491765395_gshared
Z0e:_SortKeyBuffer_AppendCJKExtension_m2591091991
JRc:__Z57RectTransformUtility_CUSTOM_INTERNAL_CALL_PixelAdjustRectP12Il2CppObjectS0_R5RectTIfE
y8f:_UTF8Encoding_GetByteCount_m4153686982
pWb:__Z24ScheduleCullingAllGroupsR8JobFenceRK22SceneCullingParametersiRK13CullingOutputRK13dynamic_arrayIP12CullingGroupLj4EERKS_
bJj:_emscripten_glStencilMask__wrapper
NCg:__Z49RuntimeInvoker_Void_t1185182177_Double_t594665363PFvvEPK10MethodInfoPvPS4_
NOi:__ZN15dense_hashtableI10KeyWrapperIPK19Il2CppGenericMethodES4_N6il2cpp8metadata23Il2CppGenericMethodHashEN14dense_hash_setIS4_S7_NS4_14EqualsComparerINS6_26Il2CppGenericMethodCompareEEENSt3__29allocatorIS4_EEE8IdentityESB_SE_EC2ERKSH_j
ETa:__ZN15RenderNodeQueue7CleanupEv
Z1d:_MonoProperty_CreateGetterDelegate_m2478402519
Cwc:__ZN16NovodexAllocator8allocateEjPKcS1_i
_$a:__ZN39DeprecatedFastPropertyNameSerialization8TransferI14SafeBinaryReadEEvRT_
Oli:_DeriveBytes_DeriveIV_m973925711
mFd:_Int32_System_IConvertible_ToSByte_m3133688512
rTb:__ZN9ShaderLab10GrabPassesD2Ev
vYe:_ScrollRect_CalculateOffset_m927043599
t8a:__ZN14Texture2DArray13UploadTextureEv
xUe:_MaskableGraphic_UpdateCull_m2805101913
EDc:_tt_cmap14_done
ugb:__ZN18AwakeFromLoadQueue25RegisterObjectInstanceIDsEv
Uw:__ZNK27AnimationLayerMixerPlayable11DerivesFromE17ScriptingClassPtr
QJc:__ZN20TextRenderingPrivate19NativeTextGenerator15InsertCharacterEiPj
NPd:_MonoType_get_attributes_m1332507727
Zvi:_GUIContent_ClearStaticCache_m1205116045
LMe:_BinaryCommon__cctor_m2978407547
wrd:_Char_System_IConvertible_ToByte_m2347554595
xLc:__ZN20TextRenderingPrivate15DynamicFontData21GetFontMetricsForFaceERK13dynamic_arrayIN4core17string_with_labelILi35EEELj4EEiRKS1_I4PPtrIN13TextRendering4FontEELj4EEPfSF_
Vhi:_IndexedSet_1__ctor_m2250384602_gshared
Jeg:_UInt16_TryParse_m4139137016
Eij:__ZN6il2cpp2gc16GarbageCollector9FreeFixedEPv
s5f:_Encoding__ctor_m2997749867
Vog:_ManagedStreamHelpers_ManagedStreamSeek_m3158782053
Hsi:_ExpressionAssertion_Compile_m2166597834
nDb:__ZN16ScriptingManagerD0Ev
Gof:_Single_System_IConvertible_ToSByte_m1208276900_AdjustorThunk
klj:__ZN6il2cpp6icalls8mscorlib6System7Convert24InternalFromBase64StringEP12Il2CppStringb
jcj:__ZN30dense_hashtable_const_iteratorINSt3__24pairIK10KeyWrapperINS1_IPKcS4_EEEiEES6_24NamespaceAndNamePairHashN14dense_hash_mapIS6_iS9_NS6_14EqualsComparerI26NamespaceAndNamePairEqualsEENS0_9allocatorIS8_EEE9SelectKeyESD_SF_EppEv
Ffc:__Z44Register_UnityEngine_Component_get_transformv
VB:__ZN12_GLOBAL__N_120ProcessPlayableGraphERN8Animator11AnimatorJobER35AnimationPlayableEvaluationConstantR32AnimationPlayableEvaluationInputR33AnimationPlayableEvaluationOutputPFvS4_R17AnimationPlayableEPFvS4_S6_S8_EPFvS8_S4_S6_S8_fESE_MS9_FvPS3_PS5_PS7_E
IIi:_CanvasRenderer_get_absoluteDepth_m2703237819
YFf:_TextInfo_ToLower_m2744057472
_Jb:__ZN17ArchiveFileSystem12MountArchiveEPKcS1_
zYf:_EqualityComparer_1_System_Collections_IEqualityComparer_Equals_m3977314386_gshared
erc:__Z18Transfer_BlittableI9JSONWriteLb1E8Vector4fEvRK29SerializationCommandArgumentsR31RuntimeSerializationCommandInfo
wn:FUNCTION_TABLE_viififiii
dDf:_CCGregorianCalendar_year_from_fixed_m463929682
VNc:__ZN2UI13CanvasManagerD0Ev
HX:__ZThn32_NK8Renderer14GetSubsetIndexEi
olg:_Debug_get_unityLogger_m2239795986
S7d:_MD2Managed_Initialize_m2341076836
rai:_ReadOnlyCollection_1_System_Collections_IList_Add_m4240023232_gshared
zra:__ZN9GfxDevice15ImmediateVertexEfff
z2b:__Z13RegisterClassI8MaterialEvv
g4a:__ZNK16LightmapSettings22GetTypeVirtualInternalEv
Roa:__ZN13GfxDeviceGLES15SetStencilStateEPK18DeviceStencilStatei
kqd:_Buffer_BlockCopyInternal_m418318694
mvj:_cycle
alj:__ZN6il2cpp2vm8Profiler7GCEventE13Il2CppGCEvent
yEg:__Z76RuntimeInvoker_Void_t1185182177_RuntimeObject_RuntimeFieldHandle_t1871169219PFvvEPK10MethodInfoPvPS4_
Dd:_emscripten_glUniform1iv
oag:_Thread_get_ManagedThreadId_m1068113671
kmb:__ZN16MemoryFileSystemD2Ev
PEg:__Z150RuntimeInvoker_Int32_t2950945753_RuntimeObject_Int32_t2950945753_Int32_t2950945753_RuntimeObject_Int32_t2950945753_Int32_t2950945753_Int32_t2950945753PFvvEPK10MethodInfoPvPS4_
Rod:_BitConverter_DoubleToInt64Bits_m3574395137
Zuf:_DateTime_Parse_m3729096069
r2g:_List_1_System_Collections_IList_Add_m1540114404_gshared
nfc:__Z37Register_UnityEngine_Camera_get_depthv
TMd:_StringReader_Read_m3322058819
QEe:_CrossAppDomainChannel_get_ChannelPriority_m3418073750
tRe:_Selectable_StartColorTween_m3618813981
k_c:_BaseInputModule_HandlePointerExitAndEnter_m1705532066
M$b:__Z23ConvertIntegerToTypePtrItEbPvR14SafeBinaryRead
Dzf:_Delegate_CombineImpl_m3572135514
YDd:_NumberFormatter_IntegerToString_m1679294587
J7h:_ReadOnlyCollection_1_System_Collections_IList_RemoveAt_m422909114_gshared
AC:__ZN7mecanim5human29HumanGetGoalOrientationOffsetENS0_4GoalE
Ud:_emscripten_glStencilFunc
Y1c:__Z46il2cpp_codegen_get_marshal_directive_exceptionPKc
YOe:_InputField_get_isFocused_m709836844
$d:_glGetActiveUniformBlockName
Kf:_emscripten_glUniform1fv
Lhc:__Z39Quaternion_CUSTOM_INTERNAL_CALL_InverseRK11QuaternionfRS_
dJ:__ZN4FMOD7Channel20set3DConeOrientationEP11FMOD_VECTOR
nn:FUNCTION_TABLE_iiifii
DUd:_AssemblyBuilder_not_supported_m1735277432
Lfj:__ZN6il2cpp2vm12GenericClass11SetupEventsEP11Il2CppClass
CGc:_tt_delta_interpolate
aEc:_tt_cmap12_get_info
tbj:__ZN6il2cpp2vm15ReboxIReferenceEP14Il2CppIUnknownP11Il2CppClass
bKi:__ZN6il2cpp6icalls8mscorlib6System7Decimal14decimalCompareEP19il2cpp_decimal_reprS5_
KCe:_Dictionary_2_OnDeserialization_m4209543208_gshared
Hlj:__ZThn4_N6il2cpp2vm13CachedCCWBaseINS0_13ManagedObjectEE7ReleaseEv
Mng:_GameObject_AddComponent_m136524825
xuh:__ZL62SoapMethodAttribute_t1935009310_CustomAttributesCacheGeneratorP21CustomAttributesCache
dOg:__Z100RuntimeInvoker_Void_t1185182177_RuntimeObject_Int32_t2950945753_Int32_t2950945753_UInt16_t2177724958PFvvEPK10MethodInfoPvPS4_
fGj:_glCopyTexImage2D__wrapper
JAf:_Double_System_IConvertible_ToUInt32_m271206838
N7:__GLOBAL__sub_I_runtime_graphics_billboard_0_cpp
mHb:__Z18ClearByDrawingQuad13GfxClearFlagsRK10ColorRGBAffjR17ShaderPassContext
zAa:__ZN6prcoreL17RemapGenericFloatI14TexFormatRHalf15TexFormatRFloatEEvPKNS_9InnerInfoE
Izc:_cf2_getBlueValues
LNb:__Z16ShouldUseShadowsb
gea:__ZN15DirectorManager21RebuildStageCallbacksEv
zHb:__ZN19RuntimeSceneManager9LoadSceneERKN4core12basic_stringIcNS0_20StringStorageDefaultIcEEEES6_S6_RK9UnityGUIDiNS_11LoadingModeE
Rta:__ZN7ApiGLES10DrawArraysE16GfxPrimitiveTypejjj
AG:__ZN10SampleClip13LoadBaseSoundEv
Ekd:_SmallXmlParser_SkipWhitespaces_m4243606597
TDf:_CompareInfo_IndexOf_m2631915198
jVd:_ConstructorBuilder_GetCustomAttributes_m2495332786
Zqd:_Byte_CompareTo_m4285128861
D$c:_TriggerEvent__ctor_m87299207
jQ:__Z57AudioSource_CUSTOM_INTERNAL_CALL_ClearExtensionPropertiesP12Il2CppObjectRK12PropertyName
Zej:__ZN15dense_hashtableINSt3__24pairIK10KeyWrapperIP12Il2CppObjectEN6il2cpp2gc9CachedCCWEEES5_NS7_5utils11PointerHashIS3_EEN14dense_hash_mapIS5_S9_SD_NS5_14EqualsComparerINS0_8equal_toIS4_EEEENS0_9allocatorISA_EEE9SelectKeyESI_SK_E15insert_noresizeERKSA_
Tca:__ZL50StaticRegisterSceneLoadedCallback_LightmapSettingsPv
c1a:__ZN22DeviceMVPMatricesStateC2ER9GfxDevice
Zm:FUNCTION_TABLE_iifii
zvd:_Comparer_Compare_m3984347512
n4a:__ZN21EnlightenSceneMapping8TransferI14SafeBinaryReadEEvRT_
c3i:__ZN6il2cpp2vm10Reflection12HasAttributeEP9FieldInfoP11Il2CppClass
Mm:FUNCTION_TABLE_iiffi
hc:invoke_viiifi
Y1d:_MonoProperty_GetCustomAttributes_m3619796755
GJe:_MethodDictionary_System_Collections_IEnumerable_GetEnumerator_m4169036899
ZLa:__ZNK11AssetBundle14GetPreloadDataEiR13dynamic_arrayIiLj4EE
iif:_RIPEMD160Managed_JJJ_m4161373884
MTf:_DefaultComparer_Equals_m3257444875_gshared
jf:_JS_Sound_SetPosition
YYa:__ZN19RenderBufferManager13GetTempBufferEii17DepthBufferFormat19RenderTextureFormatj22RenderTextureReadWrite14VRTextureUsagei23RenderTextureMemoryless
HRi:__ZL13GetSharedInstPK17Il2CppGenericInst
TSc:__ZN22BaseUnityConnectClient17SaveSessionValuesEv
jke:_InternalEnumerator_1_get_Current_m476140818_gshared
xTb:__Z24SetupActiveLightsContextR21ActiveLightingContextRK12ActiveLightsRK11CullResultsP14ShadowMapCacheRK10MinMaxAABB
Uic:__Z38Sprite_CUSTOM_INTERNAL_get_textureRectP12Il2CppObjectP5RectTIfE
Q1i:__ZNK15dense_hashtableINSt3__24pairIK10KeyWrapperIPK22Il2CppGenericParameterEPK24MonoGenericParameterInfoEES6_N6il2cpp5utils11PointerHashIS4_EEN14dense_hash_mapIS6_SA_SF_NS6_14EqualsComparerINS0_8equal_toIS5_EEEENS0_9allocatorISB_EEE9SelectKeyESK_SM_E3endEv
Ycc:__ZN9TextAsset7SetTextERKN4core12basic_stringIcNS0_20StringStorageDefaultIcEEEE
BSa:__ZN6Camera8TransferI24GenerateTypeTreeTransferEEvRT_
Ha:invoke_iiiiiiif
Ea:invoke_iiiiiiii
BQf:_Array_InternalArray__set_Item_TisByte_t1134296376_m3104140039_gshared
pug:_Rect_ToString_m447614148
qmi:_PKCS12_GetBytes_m415958948
PWb:__ZN8Renderer17PendingAddToSceneEv
$Jj:b122
cKj:b125
bKj:b124
jKj:b127
eKj:b126
oKj:b129
lic:__Z52Register_UnityEngine_RectTransform_INTERNAL_get_rectv
gqg:_Mesh_SetSizedArrayForChannel_m2565120436
w_:__Z21PostprocessStacktracePKcRN4core12basic_stringIcNS1_20StringStorageDefaultIcEEEE
Wog:_ManagedStreamHelpers_ManagedStreamLength_m2930872960
peb:__ZN18StreamedBinaryReadILb0EE21TransferSTLStyleArrayI13dynamic_arrayI16SplashScreenLogoLj4EEEEvRT_17TransferMetaFlags
ali:_BasicConstraintsExtension_Encode_m2009213240
yfc:__Z47Register_UnityEngine_Camera_get_allCamerasCountv
d5c:___clang_call_terminate
WSc:__ZN22BaseUnityConnectClient20StartEventDispatcherEv
Nac:__ZNSt3__26vectorIj13stl_allocatorIjL18MemLabelIdentifier1ELi16EEE6assignIPKtEENS_9enable_ifIXaasr21__is_forward_iteratorIT_EE5valuesr16is_constructibleIjNS_15iterator_traitsIS9_E9referenceEEE5valueEvE4typeES9_S9_
lB:__ZN7mecanim9animation16EvaluateAvatarIKEPKNS0_14AvatarConstantEPKNS0_11AvatarInputEPNS0_12AvatarOutputEPNS0_12AvatarMemoryEPNS0_15AvatarWorkspaceEb
fCa:__ZL25ProgramUniformMatrix4x3fvPK7ApiGLESjiihPKv
kLb:__ZN12InputManager13InputEndFrameEv
vqg:_Object_get_name_m4211327027
Q6i:__ZN6il2cpp2vm6Thread5SetupEP12Il2CppThread
Kxe:_Enumerator_System_Collections_IDictionaryEnumerator_get_Key_m2500634048_gshared
rwj:___munmap
ag:_localtime_r
qMb:__ZN22RenderingCommandBuffer13GetAndCheckRTE24BuiltinRenderTextureTypeRKN9ShaderLab16FastPropertyNameEPKcPP13RenderTexture
Ica:__ZN14GfxDoubleCacheIyP17VertexDeclaration14GfxGenericHashIyENSt3__28equal_toIyEEN31GfxDoubleCacheConcurrencyPolicy11LocklessGetE42GfxDoubleCacheDefaultEmptyDeletedGeneratorIyEEC2Ev
SW:__Z19free_alloc_internalPv10MemLabelId
_7f:_UTF32Decoder_GetChars_m1925558948
dg:_strftime
YEa:__ZN7Texture33SetStoredColorSpaceNoDirtyNoApplyE17TextureColorSpace
L3d:_ResourceSet__ctor_m3618395942
Fxf:_Decimal_System_IConvertible_ToDouble_m3125524987_AdjustorThunk
x1:__ZN12FileAccessorD2Ev
LWa:__ZN14VertexDataInfoC2Ev
oij:__ZN6il2cpp2gc16GarbageCollector14CollectALittleEv
w8b:__ZNK9HPlayable15GetPlayableTypeEv
Xyb:__ZL17Transfer_GUIStyleI18StreamedBinaryReadILb1EELb1EEvRK29SerializationCommandArgumentsR31RuntimeSerializationCommandInfo
JVe:_RectMask2D_IsRaycastLocationValid_m1652308696
AUi:__ZN6il2cpp6icalls8mscorlib6SystemL9IsPrivateEPK12PropertyInfo
zmi:_X501_ToString_m1148552872
evg:_RectTransform_add_reapplyDrivenProperties_m1374850920
V9:__ZN9shadertag10InitializeEv
YNb:__ZN13BatchRenderer20RenderSingleWithPassER17ShaderPassContextPK18SharedMaterialDataP6ShaderPN9ShaderLab4PassEiPKNS7_10GrabPassesEjib15BatchBreakCause
D5a:__ZN15QualitySettings14QualitySetting8TransferI24GenerateTypeTreeTransferEEvRT_
Bkc:__Z44Register_UnityEngine_Object_DestroyImmediatev
CBd:_Convert_ToSingle_m835189399
O9b:__ZN22BlockMemoryCacheWriter14LockCacheBlockEjPPhS1_
Quc:__Z22TransferField_NonArrayI8JSONRead27Converter_SimpleNativeClassI8GUIStyleEEvRK23StaticTransferFieldInfoR31RuntimeSerializationCommandInfoRT0_
Kg:_llvm_eh_typeid_for
q2b:__Z13RegisterClassI10GameObjectEvv
oJe:_RemotingServices_FindInterfaceMethod_m2125212568
nz:__ZNK23AnimationPlayableOutput7GetTypeEv
AMd:_StreamWriter__cctor_m1229272693
ABf:_Enum_System_IConvertible_ToSByte_m779472798
Icg:_Type_get_IsInterface_m3284996719
jBb:__Z18Transfer_BlittableI18StreamedBinaryReadILb0EELb1E8Vector4fEvRK29SerializationCommandArgumentsR31RuntimeSerializationCommandInfo
xTf:_Dictionary_2_U3CCopyToU3Em__0_m2023886030_gshared
DIj:_glBindVertexArray__wrapper
Vcd:_SerializationInfo__ctor_m2923079689
F$a:__ZN8Material8TransferI14SafeBinaryReadEEvRT_
Q1a:__ZN12CubemapArray17UploadToGfxDeviceEv
BDd:_Int32_JumpOverWhite_m208298144
nXg:__Z53RuntimeInvoker_Int32_t2950945753_UIVertex_t4057497605PFvvEPK10MethodInfoPvPS4_
EHj:_emscripten_glGetUniformiv__wrapper
Alj:__ZN6il2cpp2vm13ManagedObject14QueryInterfaceERK10Il2CppGuidPPv
YG:__ZN11AudioSource4StopEb
Rqb:__ZN14SafeBinaryRead21TransferSTLStyleArrayI13dynamic_arrayI10Matrix4x4fLj4EEEEvRT_17TransferMetaFlags
oTa:__ZN15LODGroupManager26CollectAllLODGroupManagersERK16CoreCameraValuesR13dynamic_arrayIPS_Lj4EEb
yHa:__ZN18GlslGpuProgramGLESD2Ev
cZb:__ZN13RenderTexture14SetVolumeDepthEi
uS:__ZN11UnityEngine15CloudWebService14DataErrorEvent12ToJsonStringERN4core12basic_stringIcNS2_20StringStorageDefaultIcEEEEjPKc
vNg:__Z86RuntimeInvoker_Void_t1185182177_UInt16_t2177724958_SByte_t1669577662_SByte_t1669577662PFvvEPK10MethodInfoPvPS4_
Uma:__Z22LoadGpuProgramFromDataPKhS0_Rj
uvc:__ZN10Matrix4x4f8TransferI8JSONReadEEvRT_
MIc:__ZN14SafeBinaryRead21TransferSTLStyleArrayI13dynamic_arrayIN4core17string_with_labelILi35EEELj4EEEEvRT_17TransferMetaFlags
tVe:_PositionAsUV1_ModifyMesh_m4231919476
Ewd:_Hashtable__ctor_m1941859523
WXe:_ScrollRect_set_horizontalScrollbarSpacing_m2209919081
PY:__ZN17PersistentManager18ReadObjectThreadedEi
nEa:__ZN25TransformFeedbackSkinning31CleanupTransformFeedbackShadersEv
cTa:__Z22scripting_object_unbox18ScriptingObjectPtr
SJc:__ZNK20TextRenderingPrivate8FontImpl19GetCharacterAdvanceEjijfPj
ZNf:_Array_InternalArray__ICollection_Add_TisUriScheme_t722425697_m3142345403_gshared
Puj:_fmt_u
q7a:__ZN10VertexData8TransferI18StreamedBinaryReadILb0EEEEvRT_
Qtj:__ZN6il2cpp8metadata25Il2CppGenericClassCompare7CompareEPK18Il2CppGenericClassS4_
oQd:_MonoType_get_Assembly_m4290914179
Ona:__ZN9ShaderLab7ProgramC2E10MemLabelIdi10ShaderType
oZb:__ZN14PreloadManager16UpdatePreloadingEv
Gqf:_String_LastIndexOf_m95398196
w_h:_Array_InternalArray__set_Item_TisUILineInfo_t4195266810_m2313892078_gshared
Rrg:_PlayableAsset__ctor_m2395156306
RV:__ZNK21UnityDefaultAllocatorI17LowLevelAllocatorE8ContainsEPKv
_dd:_RuntimeTypeHandle_Equals_m2857439487
Uh:_emscripten_get_main_loop_timing
g5d:_SafeHandle_Finalize_m3866180675
C5a:__ZN24GenerateTypeTreeTransfer21TransferSTLStyleArrayINSt3__26vectorIN15QualitySettings14QualitySettingENS1_9allocatorIS4_EEEEEEvRT_17TransferMetaFlags
dLd:_MemoryStream_ToArray_m3911744835
jxe:_Enumerator_System_Collections_IDictionaryEnumerator_get_Entry_m859540448_AdjustorThunk
jdg:_Type_GetHashCode_m1947148725
FIg:__Z91RuntimeInvoker_Void_t1185182177_RuntimeObject_RuntimeObject_RuntimeObject_SByte_t1669577662PFvvEPK10MethodInfoPvPS4_
zjb:__ZNK2UI13RectTransform22GetTypeVirtualInternalEv
ep:getTempRet0
E_c:_BaseRaycaster_OnEnable_m2678466030
vwe:_Enumerator_get_CurrentKey_m627428048_AdjustorThunk
_mg:_UnityEventBase__ctor_m1851535676
u0h:_Array_Sort_TisVector4_t3319028937_m2797285308_gshared
sde:_HandshakeMessage_Update_m2417837686
m8i:__ZN6il2cpp6icalls8mscorlib6System9ThreadingL21lookup_cached_cultureEP12Il2CppThreadi
Kpj:__ZN6il2cpp2os11EventHandleD2Ev
vmg:_NetFxCoreExtensions_CreateDelegate_m751211712
oUb:__ZN18DeferredRenderLoopD2Ev
kJi:_AnimationLayerMixerPlayable__cctor_m4086299972
J2:__ZNK16TypeTreeIterator4NameEv
X0:__ZN15FileSystemEntry3SetEPKc
cVd:_ConstructorBuilder_Invoke_m3010446651
zec:__Z52Register_UnityEngine_Application_set_targetFrameRatev
iaf:_IPv6Address_set_ScopeId_m3907190992
H4h:_ReadOnlyCollection_1_System_Collections_Generic_IListU3CTU3E_Insert_m568455025_gshared
OI:__ZN20SoundChannelInstance15ParameterBuffer5ApplyEPN4FMOD7ChannelE
Y9e:_IPv6Address__ctor_m4117281080
PJc:__ZN20TextRenderingPrivate19NativeTextGenerator9InsertTabEv
gzj:_sbrk
ERg:__Z66RuntimeInvoker_Boolean_t97287965_Vector2_t2156229523_RuntimeObjectPFvvEPK10MethodInfoPvPS4_
_1f:_Enumerator_VerifyState_m3474272061_AdjustorThunk
zTc:__ZN11UnityEngine15PlatformWrapper24GetRuntimePlatformStringEv
Ei:_glIsEnabled
IUd:_DerivedType__ctor_m1853298054
Gpb:__Z25scripting_class_get_image17ScriptingClassPtr
Inf:_SecurityException__ctor_m836898292
L3f:_List_1_RemoveAt_m2730968292_gshared
Yfb:__ZNSt3__26vectorIN4core12basic_stringIcNS1_20StringStorageDefaultIcEEEE13stl_allocatorIS5_L18MemLabelIdentifier13ELi16EEEC2INS_11__wrap_iterIPS5_EEEET_SE_RKS8_PNS_9enable_ifIXaasr21__is_forward_iteratorISE_EE5valuesr16is_constructibleIS5_NS_15iterator_traitsISE_E9referenceEEE5valueEvE4typeE
Ii:_emscripten_glDrawElementsInstanced
ay:__ZN26AnimatorControllerPlayable27SetupStateMachineBehavioursEv
HSe:_LayoutGroup_get_preferredWidth_m3816902260
SUa:__ZN18JobBatchDispatcherD2Ev
ujb:__ZN9Transform17MainThreadCleanupEv
roj:_GC_clear_hdr_marks
zJj:_emscripten_glCreateShader__wrapper
Zxc:_cff_fd_select_get
c$e:_Text_set_resizeTextForBestFit_m4095249125
fcf:_OidEnumerator_MoveNext_m3138911739
Ti:_emscripten_glGetShaderiv
OJ:__ZN4FMOD6System10getVersionEPj
_Mc:__ZN2UI6Canvas23VirtualRedirectTransferER24GenerateTypeTreeTransfer
lZe:_Selectable_set_animationTriggers_m2970345687
Ysc:__ZN9JSONWrite8TransferIN4math12int2_storageEEEvRT_PKc17TransferMetaFlags
yIc:__ZN13TextRendering4Font13AwakeFromLoadE17AwakeFromLoadMode
ZDf:_CompareInfo_LastIndexOf_m2688553706
dqa:__ZN9GfxDevice21ReleaseSharedMeshDataEP14SharedMeshData
u1c:_MouseState__ctor_m1467839005
Tti:_Uri_IsDomainAddress_m2867513594
fdb:__ZNSt3__27__sort5IRNS_6__lessINS_4pairIPKN5Unity4TypeE7Hash128EES8_EEPS8_EEjT0_SC_SC_SC_SC_T_
C8c:_Dropdown_CreateItem_m2954407740
ynj:_GC_unreachable_finalize_mark_proc
Cdf:_X509Chain_ProcessCrlExtensions_m236234529
Woj:_maybe_finalize
JMi:__ZN6il2cpp2vm5Class40GetInterfaceInvokeDataFromVTableSlowPathEPK12Il2CppObjectPK11Il2CppClassj
rMf:_Array_InternalArray__IndexOf_TisLabelData_t360167391_m1826525656_gshared
dic:__Z43RectTransform_CUSTOM_INTERNAL_get_anchorMaxP12Il2CppObjectP13Vector2fIcall
aHi:_TextGenerator_INTERNAL_CALL_Populate_Internal_cpp_m4171649399
TFe:_RemotingConfiguration_RegisterChannelTemplate_m3105688054
exf:_Decimal_Parse_m942471224
Z3a:__ZN8Material28UpdateHashesOnPropertyChangeEN9ShaderLab16FastPropertyNameE
Dqh:__ZL56MethodBuilder_t2807316753_CustomAttributesCacheGeneratorP21CustomAttributesCache
Nic:__Z53Register_UnityEngine_SortingLayer_GetLayerValueFromIDv
yob:__Z18Transfer_BlittableI14SafeBinaryReadLb1E8Vector4fEvRK29SerializationCommandArgumentsR31RuntimeSerializationCommandInfo
E3c:_AspectRatioFitter_SetDirty_m2910185270
ZL:__ZN11AudioSource12AddToManagerEv
Os:__ZN8Animator23VirtualRedirectTransferER19StreamedBinaryWriteILb0EE
Jz:__ZN11UnityEngine9Animation32CreateAnimatorGenericBindingsOptERKNS0_20AnimationSetBindingsER9TransformPKN7mecanim9animation14AvatarConstantEPKNS0_21AvatarBindingConstantEbRNS6_6memory9AllocatorER8Animator
ocj:__ZN6il2cpp2vm5Image13ClassFromNameEPK11Il2CppImagePKcS6_
Lzj:dynCall_vdddddd
Dka:__ZN24GenerateTypeTreeTransfer21TransferSTLStyleArrayINSt3__26vectorIN9ShaderLab14SerializedPassENS1_9allocatorIS4_EEEEEEvRT_17TransferMetaFlags
taa:__ZL32MarkLevelGameManagerDependenciesR27GarbageCollectorThreadState
Bsa:__ZNK13GfxDeviceGLES26HasActiveRandomWriteTargetEv
G6i:__GLOBAL__sub_I_Thread_cpp
gnh:__ZL54_MemberInfo_t3922476713_CustomAttributesCacheGeneratorP21CustomAttributesCache
tEj:_glGetActiveUniformsiv__wrapper
Kic:__Z43Register_UnityEngine_Material_EnableKeywordv
zqg:_Mesh_GetIndices_m2873123901
h_:__ZN13MonoBehaviour19SetupScriptingCacheE17ScriptingClassPtrP10MonoScript
cs:__Z20AnimationEventToMonoRK14AnimationEventR18MonoAnimationEvent
RTg:__Z106RuntimeInvoker_Void_t1185182177_Single_t1397266774_Single_t1397266774_Single_t1397266774_Int32_t2950945753PFvvEPK10MethodInfoPvPS4_
wZ:__ZN17PersistentManager29ReadAndActivateObjectThreadedEiRK26SerializedObjectIdentifierP14SerializedFilebb
i1c:_PointerEventData_get_dragging_m746831934
qai:_ReadOnlyCollection_1_System_Collections_IEnumerable_GetEnumerator_m2781605075_gshared
Wda:__ZZN15DirectorManager15InitializeClassEvEN52PreLateUpdateDirectorUpdateAnimationBeginRegistrator7ForwardEv
LGf:_Array_get_swapper_TisCustomAttributeNamedArgument_t287865710_m4254011335_gshared
Gad:_Graphic_RegisterDirtyMaterialCallback_m106898453
cwi:_GUILayoutEntry_get_margin_m3174861737
Vja:__ZNSt3__26vectorIN9ShaderLab14SerializedPassENS_9allocatorIS2_EEE8__appendEj
eja:__ZNSt3__26vectorIN9ShaderLab20SerializedSubProgram13BufferBindingENS_9allocatorIS3_EEEC2INS_11__wrap_iterIPS3_EEEET_SB_RKS5_PNS_9enable_ifIXaasr21__is_forward_iteratorISB_EE5valuesr16is_constructibleIS3_NS_15iterator_traitsISB_E9referenceEEE5valueEvE4typeE
X5f:_Encoding_get_ISOLatin1_m2107621369
w6d:_BigInteger_op_Inequality_m2697143438
WHh:__ZL89Mathf_t3464937446_CustomAttributesCacheGenerator_Mathf_SmoothDamp_m394423605____maxSpeed4P21CustomAttributesCache
G3a:__ZN9Texture2D23VirtualRedirectTransferER18StreamedBinaryReadILb0EE
wtf:_DateTime_System_IConvertible_ToDouble_m2116720007_AdjustorThunk
ovd:_BitArrayEnumerator__ctor_m2359341397
l0f:_Enumerator_MoveNext_m1177880931_gshared
UMh:__ZL73g_UnityEngine_TextRenderingModule_Assembly_CustomAttributesCacheGeneratorP21CustomAttributesCache
F$:__ZN16ScriptingManager27NativeTypeForScriptingClassE17ScriptingClassPtr
Tfg:_UInt64_System_IConvertible_ToDateTime_m3434604642
Scg:_Type_get_IsSerializable_m1040556850
NCc:_get_sfnt_table
JVb:__ZL22ScheduleSceneNodesJobsP25ScheduleSceneNodesJobDataj
Jk:_emscripten_set_canvas_size
K9c:_Graphic_SetVerticesDirty_m2124914069
aEf:_CultureInfo__ctor_m3285927757
wUe:_MaskableGraphic_get_rootCanvasRect_m3492154629
o$h:_Array_Resize_TisRaycastResult_t3360306849_m1811054291_gshared
zja:__ZNSt3__26vectorIN9ShaderLab20SerializedSubProgramENS_9allocatorIS2_EEE8__appendEj
zW:__ZN20DynamicHeapAllocatorI17LowLevelAllocatorE8AllocateEji
Axi:_Locale_GetText_m2427493201
DOb:__ZN20DynamicPropertySheet15SetVectorQueuedERKN9ShaderLab16FastPropertyNameERK8Vector4fN19ShaderPropertySheet8SetFlagsE
wA:__ZN7mecanim9animation22EvaluateAvatarRetargetEPKNS0_14AvatarConstantEPKNS0_11AvatarInputEPNS0_12AvatarOutputEPNS0_12AvatarMemoryEPNS0_15AvatarWorkspaceEb
RXa:__ZN14RenderSettings23VirtualRedirectTransferER19StreamedBinaryWriteILb0EE
vrc:__ZL26Transfer_SimpleNativeClassI9JSONWrite10RectOffsetLb0EEvRK29SerializationCommandArgumentsR31RuntimeSerializationCommandInfo
Snj:_GC_push_conditional
Ewa:__ZN17GenericDynamicVBO10AllocateVBEjR21DynamicVBOChunkHandle
Vwf:_DBNull_ToString_m3638608738
rdj:__ZN30dense_hashtable_const_iteratorI10KeyWrapperIP18Il2CppGenericClassES3_N6il2cpp8metadata22Il2CppGenericClassHashEN14dense_hash_setIS3_S6_NS3_14EqualsComparerINS5_25Il2CppGenericClassCompareEEENSt3__29allocatorIS3_EEE8IdentityESA_SD_EppEv
lvd:_BitArray_Clone_m3537018332
hNe:_ObjectRecord_UnchainFixup_m3191243952
xki:_TlsStream_get_CanWrite_m16389328
hl:_glMapBufferRange
y3a:__ZN9Texture2D8TransferI18StreamedBinaryReadILb0EEEEvRT_
dhc:__Z31Input_CUSTOM_GetMouseButtonDowni
E8b:__ZN13PlayableGraph4PlayEv
Z7b:__Z29AddCanvasIntermediateRendererPN2UI6CanvasEPNS_13CanvasBuffersEP17VertexDeclarationjRK10Matrix4x4ftRK4AABB4PPtrI8MaterialEi17ShadowCastingModebP6Camerab
Yqf:_String_Format_m3339413201
rQd:_MonoType_get_BaseType_m1098640416
rLa:__ZN13LoadOperation19IntegrateTimeSlicedEi
Qki:_TlsStream_Read_m3392972801
zDi:__ZL25UnresolvedVirtualCall_132P12Il2CppObject17Color_t2555686324faaaPK10MethodInfo
Msa:__ZN13GfxDeviceGLES22DispatchComputeProgramE12ObjectHandleI18ComputeProgram_TagPvE15ComputeBufferIDj
E6f:_Latin1Encoding_GetString_m254210343
Bhb:__Z17TransformAABBSlowRK4AABBRK10Matrix4x4fRS_
Rnd:_Array_combsort_m4052486289
_6a:__ZN15SerializeTraitsI13dynamic_arrayI12SpriteVertexLj4EEE19ResizeSTLStyleArrayERS2_i
Wha:__ZN9ShaderLab21SerializedShaderState8TransferI14SafeBinaryReadEEvRT_
qCf:_Environment_GetWindowsFolderPath_m1738399646
_yc:_cf2_stack_pushInt
nA:__ZN8Animator19FireAnimationEventsERNS_11AnimatorJobE
N$d:_Module_GetCustomAttributes_m76573271
vfd:_CryptoConfig_EncodeOID_m2635914623
Fka:__ZN15SerializeTraitsINSt3__24pairIN4core12basic_stringIcNS2_20StringStorageDefaultIcEEEES6_EEE8TransferI24GenerateTypeTreeTransferEEvRS7_RT_
UGj:b89
TGj:b88
tGj:b81
sGj:b80
iFa:__ZN7ApiGLES19CreateSparseTextureEjj14GraphicsFormatiiiiRiS1_S1_
n0:__ZN18ResourceImageGroup7CleanupEv
MGj:b85
LGj:b84
OGj:b87
NGj:b86
tKe:_RemotingSurrogateSelector_GetSurrogate_m3900875713
M9d:_CertificateValidationCallback_Invoke_m1014111289
PYa:__ZN8Playable19SetOutputConnectionEPS_i
_Mi:__ZN15dense_hashtableINSt3__24pairIK10KeyWrapperIPK11Il2CppClassEPKcEES6_N6il2cpp5utils11PointerHashIS3_EEN14dense_hash_mapIS6_S9_SE_NS6_14EqualsComparerINS0_8equal_toIS5_EEEENS0_9allocatorISA_EEE9SelectKeyESJ_SL_EC2ERKSO_j
Wl:_glDeleteShader
HAa:__ZN6prcoreL17RemapGenericFloatI15TexFormatRGHalf16TexFormatRGFloatEEvPKNS_9InnerInfoE
f0h:_Array_Sort_TisUICharInfo_t75501106_m128665067_gshared
rBc:_otv_GSUB_validate
jjf:_RSAPKCS1SignatureDeformatter_SetHashAlgorithm_m1602190713
sBf:_Enum_System_IConvertible_ToByte_m1219166845
BCe:_Dictionary_2_CopyToCheck_m45332585_gshared
cdc:__Z27scripting_add_internal_callPKcPKv
w2i:__ZN13Il2CppHashMapINSt3__24pairIPK9EventInfoP11Il2CppClassEEj17ReflectionMapHashIS7_ENS0_8equal_toIS7_EENS0_9allocatorINS1_IK10KeyWrapperIS7_EjEEEEEC2EjRKS9_RKSB_
hej:__GLOBAL__sub_I_GarbageCollector_cpp
nog:_Input_get_inputString_m1307069105
rxe:_Enumerator_MoveNext_m1556953412_AdjustorThunk
jt:__ZN26AnimatorControllerPlayable18SetLayerAutoWeightEv
oSc:__Z44Register_UnityEngine_Canvas_get_pixelPerfectv
Rsi:_Literal_GetAnchorInfo_m810577400
zPc:__ZN2UI14CanvasRenderer12SyncMaterialENS0_8SyncFlagE
MMd:_StreamWriter_Write_m1660535366
Prj:__ZN6il2cpp2vm9Parameter30GetDefaultParameterValueObjectEPK10MethodInfoPK13ParameterInfoPb
x8f:_UTF8Encoding_GetByteCount_m4152118078
j5e:_KeyPairPersistence__CanSecure_m3516574278
oJg:__Z95RuntimeInvoker_Void_t1185182177_RuntimeObject_RuntimeObject_Int32_t2950945753_SByte_t1669577662PFvvEPK10MethodInfoPvPS4_
Vhd:_MD5CryptoServiceProvider_Dispose_m3502499818
Meh:_Collection_1_System_Collections_IList_get_Item_m2422562729_gshared
ADc:_UNITY_tt_face_done_kern
qab:__ZN12BoneWeights48TransferI24GenerateTypeTreeTransferEEvRT_
pGb:__Z19scripting_gc_enablev
bre:_InternalEnumerator_1_get_Current_m2907722321_gshared
rKb:__ZZ23InitPlayerLoopCallbacksvEN41InitializationPlayerUpdateTimeRegistrator7ForwardEv
Occ:__ZN11UTF16StringC2ERKS_10MemLabelId
mse:_InternalEnumerator_1_get_Current_m3792939945_AdjustorThunk
pRc:__Z55Register_UnityEngine_CanvasRenderer_DisableRectClippingv
R9a:__ZN14SafeBinaryRead21TransferSTLStyleArrayI13dynamic_arrayI11ColorRGBA32Lj4EEEEvRT_17TransferMetaFlags
tub:__ZL26Transfer_SimpleNativeClassI24GenerateTypeTreeTransfer8GradientLb0EEvRK29SerializationCommandArgumentsR31RuntimeSerializationCommandInfo
Sle:_InternalEnumerator_1_System_Collections_IEnumerator_get_Current_m888718134_gshared
iFg:__Z175RuntimeInvoker_Void_t1185182177_SByte_t1669577662_SByte_t1669577662_SByte_t1669577662_SByte_t1669577662_SByte_t1669577662_SByte_t1669577662_SByte_t1669577662_SByte_t1669577662PFvvEPK10MethodInfoPvPS4_
mrg:_Object_Destroy_m3118546832
muf:_DateTime_FromTicks_m4059645178_AdjustorThunk
h2h:_Array_InternalArray__get_Item_TisClientCertificateType_t1004704908_m2297379651_gshared
UFe:_ConfigHandler_ParseTime_m1787834288
Fma:__ZN9ShaderLab7Program27CreateFromSerializedProgramERKNS_17SerializedProgramE10ShaderTypeiP16PropertyNamesSetPK6Shader
VSd:_Assembly_Load_m3487507613
gXa:__ZNSt3__27__sort4IRNS_6__lessIN4core12basic_stringIcNS2_20StringStorageDefaultIcEEEES6_EEPS6_EEjT0_SA_SA_SA_T_
pAj:dynCall_viiiifii
_0i:__ZN6il2cpp2gc19AppendOnlyGCHashMapINSt3__24pairIPK11Il2CppImageP11Il2CppClassEEP22Il2CppReflectionModule17ReflectionMapHashIS9_ENS2_8equal_toIS9_EEEC2Ev
MY:__Z20GetPersistentManagerv
QGc:_UNITY_TT_Set_Var_Design
j8:__ZN21SystemInfoStringCache16StaticInitializeEPv
I4h:_ReadOnlyCollection_1_System_Collections_Generic_ICollectionU3CTU3E_Remove_m1100818788_gshared
_ia:__ZNSt3__26vectorIN9ShaderLab20SerializedSubProgram15StructParameterENS_9allocatorIS3_EEE6assignIPS3_EENS_9enable_ifIXaasr21__is_forward_iteratorIT_EE5valuesr16is_constructibleIS3_NS_15iterator_traitsISA_E9referenceEEE5valueEvE4typeESA_SA_
wjh:_Collection_1_IsSynchronized_m2291009199_gshared
EDb:__ZNK13MonoBehaviour7GetNameEv
Eib:__ZN19ScriptingInvocation28AdjustArgumentsToMatchMethodEv
aii:_IndexedSet_1_Contains_m1525966688_gshared
zG:__Z15_CheckFMODError11FMOD_RESULTPKciS1_
y7i:__ZN6il2cpp6icalls8mscorlib6SystemL16ThrowInvalidCastEPK11Il2CppClassS5_
RVa:__Z20RenderMultipleMeshesRK15RenderNodeQueueRK18RenderMultipleData17ShaderChannelMask
LWc:__ZN11UnityEngine15PlatformWrapper20GetPlayerPrefsStringERKN4core12basic_stringIcNS1_20StringStorageDefaultIcEEEES5_
sUe:_MaskableGraphic_get_maskable_m1260382606
_5f:_Latin1Encoding__ctor_m498920120
OXi:__ZN6il2cpp2vm4Type19GetGenericParameterEPK10Il2CppType
kMd:_StreamReader_Peek_m2272511193
gvf:_DateTimeFormatInfo_FillAllDateTimePatterns_m2683124783
QQc:__Z51Register_UnityEngine_CanvasGroup_get_blocksRaycastsv
kRd:_NumberFormatter_get_IsFloatingSource_m3714711779
ydg:_Type_GetConstructor_m1195697116
sd:_glBeginQuery
wph:__ZL104RegionInfo_t1090270226_CustomAttributesCacheGenerator_RegionInfo_t1090270226____DisplayName_PropertyInfoP21CustomAttributesCache
FHi:_Canvas_get_scaleFactor_m3314757802
SLb:__ZN6Camera12RenderStereoENS_10RenderFlagE8CullFlagPNS_24PerformEyeRenderFunctionE
Hlb:__ZN20LocalFileSystemPosix10ToAbsoluteEPKc
GVa:__ZN20TierGraphicsSettings8TransferI19StreamedBinaryWriteILb0EEEEvRT_
QJj:b111
Q7:__GLOBAL__sub_I_runtime_input_0_cpp
Skj:__ZN6il2cpp2vm13ComObjectBase16DisconnectObjectEj
Bm:f0
Pvj:_getcwd
DKa:__ZN25ThreadsafeLinearAllocatorD2Ev
Sgb:__Z21SendMessageToEveryoneRK17MessageIdentifier11MessageData
Cca:__ZN21BillboardBatchManager16StaticInitializeEPv
dtf:_DateTime_AbsoluteDays_m4235097773
w9:__ZN12_GLOBAL__N_138ArchiveRedirectFileSystemStaticDestroyEPv
uAg:__Z74RuntimeInvoker_RuntimeObject_RuntimeObject_RuntimeObject_SByte_t1669577662PFvvEPK10MethodInfoPvPS4_
D7c:_DefaultControls_CreateScrollView_m3842770629
N1a:__ZN12CubemapArray34UpdateFileTextureUploadInstructionEP26FileAssetUploadInstructionj
hFa:__Z23CreateSparseTextureGLES9TextureIDii14GraphicsFormati
ZBc:_otv_Anchor_validate
oGf:_Guid_CompareTo_m243656946_AdjustorThunk
$Cf:_CCMath_mod_m3631663509
acg:_TimeSpan_Negate_m1889505500_AdjustorThunk
d8h:_ReadOnlyCollection_1_System_Collections_ICollection_CopyTo_m2715087453_gshared
xKc:__ZNSt3__23mapIN20TextRenderingPrivate7FontRefEP11FT_FaceRec_NS_4lessIS2_EENS_9allocatorINS_4pairIKS2_S4_EEEEEixERS9_
WMa:__ZN17ArchiveFileSystem10AddStorageEP20ArchiveStorageReader
T3i:_il2cpp_class_get_assemblyname
lLi:__ZN6il2cpp2vm5Class15GetEnumBaseTypeEP11Il2CppClass
Nce:_Context_set_WriteSequenceNumber_m942577065
Xd:_glVertexAttrib4fv
jlj:__ZNK6il2cpp5utils13VmStringUtils23CaseInsensitiveComparerclERKNSt3__212basic_stringIcNS3_11char_traitsIcEENS3_9allocatorIcEEEEPKc
L4c:_CanvasScaler_SetScaleFactor_m3006968999
l$g:__Z78RuntimeInvoker_Boolean_t97287965_Navigation_t3049316579_Navigation_t3049316579PFvvEPK10MethodInfoPvPS4_
P2a:__ZNK9Texture2D16GetNpotTexelSizeEv
gRd:_NumberFormatter_Init_m3576155222
sMa:__ZL33FileEntryInfoListToFolderContentsRKN4core12basic_stringIcNS_20StringStorageDefaultIcEEEERK19dynamic_block_arrayI13FileEntryInfoLj32EERNSt3__23setIS3_NSB_4lessIS3_EENSB_9allocatorIS3_EEEE
HTe:_LayoutUtility_GetLayoutProperty_m714717302
yGi:_Terminal_NotifyCommandHandlers_m909296863
Tpa:__ZN9GfxDevice22GetDefaultVertexBufferE26GfxDefaultVertexBufferTypej
pHf:_Array_InternalArray__ICollection_Contains_TisInt64_t3736567304_m2911357929_gshared
Zeh:_Collection_1_Remove_m3022471627_gshared
fwj:___fseeko_unlocked
QRd:_Object_ToString_m1740002499
Zvj:_sscanf
j0c:_ExecuteEvents_GetEventChain_m2404658789
oHb:__Z17BeginSplashScreenv
s$h:_Array_Resize_TisUILineInfo_t4195266810_m3763058392_gshared
Red:_SByte_ToString_m3584531119_AdjustorThunk
wla:__ZN9ShaderLab16SerializedShader8TransferI19StreamedBinaryWriteILb0EEEEvRT_
TC:__ZN7mecanim9animation18CreateAvatarMemoryEPKNS0_14AvatarConstantERNS_6memory9AllocatorE
W5d:_ModulusRing__ctor_m2420310199
_zd:_Convert_ToDateTime_m626620011
Mxe:_Enumerator_System_Collections_IDictionaryEnumerator_get_Key_m2500634048_AdjustorThunk
FB:__ZN7mecanim8skeleton16SkeletonPoseCopyIN4math4trsXENS2_7affineXEEEvPKNS0_13SkeletonPoseTIT_EEPNS5_IT0_EE
mwa:__ZN18GfxFramebufferGLES18GetFramebufferNameERK20GfxRenderTargetSetup
bXi:__ZN6il2cpp2vm14TypeNameParser12ParseVersionERKNSt3__212basic_stringIcNS2_11char_traitsIcEENS2_9allocatorIcEEEERtSB_SB_SB_
VQe:_InputField_MoveDown_m1455948167
Jnc:__Z30Event_Get_Custom_PropCharacterP12Il2CppObject
pea:__ZN13PlayableGraph27SchedulePlayableDestructionERK9HPlayable
iBc:_cff_get_mm_var
vDj:_glGetFramebufferAttachmentParameteriv__wrapper
GEe:_ChannelServices_GetCurrentChannelInfo_m3041604116
bXc:__Z13RegisterClassI20UnityConnectSettingsEvv
Dpb:__Z22scripting_array_length17ScriptingArrayPtr
YMd:_SynchronizedReader_Peek_m148942882
cEg:__Z95RuntimeInvoker_Void_t1185182177_RuntimeObject_Int32_t2950945753_Int32_t2950945753_RuntimeObjectPFvvEPK10MethodInfoPvPS4_
_1a:__ZN14SafeBinaryRead20TransferTypelessDataEjPvi
qN:__ZN13dynamic_arrayI12SoundChannelLj4EE9push_backERKS0_
a5:__Z19GetActiveColorSpacev
aDc:_UNITY_tt_face_load_kern
h0d:_MonoMethodInfo_GetDeclaringType_m2924452727
BIb:__ZN13sorted_vectorINSt3__24pairIiN17InstancingBatcher12PropertyTypeEEEN10vector_mapIiS3_NS0_4lessIiEE13stl_allocatorIS4_L18MemLabelIdentifier1ELi16EEE13value_compareESA_E21sort_clear_duplicatesEv
vQc:__ZZN2UI14CanvasRenderer15InitializeClassEvEN38FunctorImpl_909kCanvasHierarchyChanged4CallEPviR11MessageData
C$:__Z6StrCmpPKcS0_
JEd:_NumberFormatter_AppendIntegerString_m2257376141
Nna:__Z21CheckGpuProgramUsable20ShaderGpuProgramType
$3b:__ZN13ProduceHelperI14Texture2DArrayLb0EE7ProduceE10MemLabelId18ObjectCreationMode
Ghj:__ZN6il2cpp2os9Directory20GetFileSystemEntriesERKNSt3__212basic_stringIcNS2_11char_traitsIcEENS2_9allocatorIcEEEESA_iiPi
Bmd:_Array_System_Collections_IList_Add_m1063688101
qWh:__ZL66Navigation_t3049316579_CustomAttributesCacheGenerator_m_SelectOnUpP21CustomAttributesCache
HJc:__ZN20TextRenderingPrivate19NativeTextGenerator5SetupEv
YSb:__ZNK15SharedLightData24GetFinalShadowResolutionEv
meb:__ZN12AspectRatios8TransferI18StreamedBinaryReadILb0EEEEvRT_
S7b:__ZN10GameObject14CopyPropertiesERS_
xoc:__Z44Register_UnityEngine_GUIStyle_get_fixedWidthv
mIf:_Array_InternalArray__ICollection_Remove_TisLink_t544317964_m1280781374_gshared
Pod:_BitConverter_DoubleWordsAreSwapped_m1474345095
q6a:__ZNK13ScreenManager12IsFullScreenEv
fud:_FixedSizeArrayListWrapper_set_Capacity_m4221053039
Awj:_rand
ZDj:_emscripten_glFramebufferRenderbuffer__wrapper
Zac:__ZN13MeshScripting10CreateMeshE21ScriptingObjectOfTypeI4MeshE
zqb:__ZN14SafeBinaryRead21TransferSTLStyleArrayINSt3__26vectorI17AnimationCurveTplIfE13stl_allocatorIS4_L18MemLabelIdentifier1ELi16EEEEEEvRT_17TransferMetaFlags
Kud:_SynchronizedArrayListWrapper_Contains_m3809499313
zIf:_Array_InternalArray__ICollection_Remove_TisLabelData_t360167391_m3556246844_gshared
thd:_HMACSHA256__ctor_m346174875
jkg:_Color_op_Multiply_m2887457390
sVb:__Z22PrepareOptimizedPlanesPK5PlaneiPKN4math7_float4E
nV:__ZN11UnityEngine15CloudWebService17WebFileDownloaderINS0_20WebRequestRestClientENS0_23WebRequestRestHeaderMapEE10InitializeERKN4core12basic_stringIcNS5_20StringStorageDefaultIcEEEE
Aca:__ZN17UniqueIDGenerator15CreatePureIndexEv
zr:__ZN11UnityEngine9Animation28GenericAnimationBindingCache15DidReloadDomainEv
cfb:__ZNSt3__26vectorIN15ResourceManager10DependencyE13stl_allocatorIS2_L18MemLabelIdentifier52ELi16EEE6assignINS_11__wrap_iterIPS2_EEEENS_9enable_ifIXaasr21__is_forward_iteratorIT_EE5valuesr16is_constructibleIS2_NS_15iterator_traitsISC_E9referenceEEE5valueEvE4typeESC_SC_
AKi:__ZN15dense_hashtableINSt3__24pairIK10KeyWrapperIPK22Il2CppGenericParameterEP11Il2CppClassEES6_N6il2cpp5utils11PointerHashIS4_EEN14dense_hash_mapIS6_S9_SE_NS6_14EqualsComparerINS0_8equal_toIS5_EEEENS0_9allocatorISA_EEE9SelectKeyESJ_SL_E14squash_deletedEv
U_a:__ZN9ShaderLabL27GetDesiredRenderTextureDescEPK6Camera
cQf:_Array_InternalArray__Insert_TisMark_t3471605523_m2854535880_gshared
Yya:__ZN6prcoreL29inner_stretch_rgb565_bilinearEPKNS_9InnerInfoE
Tlc:__Z14GUIClipTextureP9Texture2DPhiiii
aKe:_MethodReturnDictionary__cctor_m278392388
uY:__ZNK9Transform18TransformDirectionERK8Vector3f
dhe:_SslStreamBase_get_CanWrite_m1622082918
dYh:__ZL80CanvasScaler_t2767979955_CustomAttributesCacheGenerator_m_ReferencePixelsPerUnitP21CustomAttributesCache
KBc:_otv_MarkLigPos_validate
T2e:_PrimalityTests_RabinMillerTest_m1471415870
P$f:_Enumerator_MoveNext_m2114485647_gshared
SQi:__ZN15dense_hashtableINSt3__24pairIK10KeyWrapperIPK11Il2CppClassEPKcEES6_N6il2cpp5utils11PointerHashIS3_EEN14dense_hash_mapIS6_S9_SE_NS6_14EqualsComparerINS0_8equal_toIS5_EEEENS0_9allocatorISA_EEE9SelectKeyESJ_SL_E12resize_deltaEjj
jyj:__ZNK10__cxxabiv120__si_class_type_info27has_unambiguous_public_baseEPNS_19__dynamic_cast_infoEPvi
$5d:_Kernel_LeftShift_m4140742987
ISd:_Assembly_GetManifestResourceInternal_m1224391897
Iwa:__Z30AddDefaultStreamsToMeshBuffersR9GfxDeviceR11MeshBuffersj17ShaderChannelMaskS3_
f9:__ZL16GetInterfaceImpl18UnityInterfaceGUID
ELi:__ZN6il2cpp2vmL17SetupFieldOffsetsENS0_15FieldLayoutKindEP11Il2CppClassjRKNSt3__26vectorIjNS4_9allocatorIjEEEE
Hkj:__ZN6il2cpp6icalls8mscorlib6System15MonoCustomAttrs27GetCustomAttributesInternalEP12Il2CppObjectP20Il2CppReflectionTypeb
Wb:invoke_viifi
lHc:_UNITY_TT_Set_MM_Blend
R7:__GLOBAL__sub_I_runtime_math_random_0_cpp
BHb:__ZN14PreloadManager35WaitForAllAsyncOperationsToCompleteEv
gI:__ZL31InitializeAudioScriptingClassesv
MMb:__Z14SortGUIByDepthP10GUIElementS0_
qC:__ZN12_GLOBAL__N_120ProcessRootMotionMixER33AnimationPlayableEvaluationOutputR35AnimationPlayableEvaluationConstantR32AnimationPlayableEvaluationInputS1_f
Bui:_UriParser__cctor_m3655686731
xTe:_LayoutRebuilder_U3Cs_RebuildersU3Em__0_m589488547
hmb:__ZNK20LocalFileSystemPosix21GetAvailableDiskSpaceEPKcRy
p8:__ZNSt3__26__treeIiNS_4lessIiEENS_9allocatorIiEEE7destroyEPNS_11__tree_nodeIiPvEE
mpa:__ZNK9GfxDevice14GetWorldMatrixEv
Puc:__ZN8JSONRead8TransferI8Vector2fEEvRT_PKc17TransferMetaFlagsb
fyg:_Transform_set_parent_m786917804
e_e:_Slider_get_value_m739683640
xkb:__Z19scripting_array_new17ScriptingClassPtrjj
eN:__ZN11SoundHandle13CreateChannelEb
p4a:__ZN14SafeBinaryRead21TransferSTLStyleArrayI13dynamic_arrayI12LightmapDataLj4EEEEvRT_17TransferMetaFlags
Hja:__ZNSt3__26vectorIN9ShaderLab20SerializedSubProgram16TextureParameterENS_9allocatorIS3_EEE6assignIPS3_EENS_9enable_ifIXaasr21__is_forward_iteratorIT_EE5valuesr16is_constructibleIS3_NS_15iterator_traitsISA_E9referenceEEE5valueEvE4typeESA_SA_
tPi:__ZN13Il2CppHashMapIN6il2cpp5utils13dynamic_arrayIPK10Il2CppTypeLj4EEEPFvvENS0_8metadata19Il2CppSignatureHashENS9_22Il2CppSignatureCompareENSt3__29allocatorINSC_4pairIK10KeyWrapperIS6_ES8_EEEEEC2EjRKSA_RKSB_
G1i:__ZN15dense_hashtableINSt3__24pairIK10KeyWrapperIPK22Il2CppGenericParameterEPK24MonoGenericParameterInfoEES6_N6il2cpp5utils11PointerHashIS4_EEN14dense_hash_mapIS6_SA_SF_NS6_14EqualsComparerINS0_8equal_toIS5_EEEENS0_9allocatorISB_EEE9SelectKeyESK_SM_E15set_deleted_keyERKSB_
Ped:_SByte_TryParse_m2431806379
z1b:__ZN6prcoreL11inner_clearILj2EEEvPhjjj
rgd:_DSACryptoServiceProvider_get_KeySize_m786836990
Ig:_emscripten_exit_fullscreen
PRd:_Object_MemberwiseClone_m1474068832
Bgj:__ZN6il2cpp6icalls8mscorlib6System6String19InternalAllocateStrEi
Wvc:__Z29Transfer_Blittable_ArrayFieldI8JSONRead11QuaternionfEvRT_R9ArrayInfoRK23StaticTransferFieldInfo
tfc:__Z45Register_UnityEngine_Camera_get_targetDisplayv
b6b:__ZNK24RendererAnimationBinding15GenerateBindingERKN4core12basic_stringIcNS0_20StringStorageDefaultIcEEEEbRN11UnityEngine9Animation14GenericBindingE
maf:_IPv6Address__ctor_m3704187391
fNb:__Z15GetFlareManagerv
Hz:__ZN8Animator13GetAvatarRootEv
ONf:_Array_InternalArray__ICollection_Add_TisResourceCacheItem_t51292791_m3851804827_gshared
Auj:___toread
IFb:__ZNSt3__26vectorI10vector_mapIiiNS_4lessIiEE13stl_allocatorINS_4pairIiiEEL18MemLabelIdentifier38ELi16EEES4_IS9_LS7_38ELi16EEE26__swap_out_circular_bufferERNS_14__split_bufferIS9_RSA_EE
x5d:_BigInteger_get_Rng_m3283260184
Myj:___cxa_is_pointer_type
SE:__ZN8Animator22ScriptingStringToCRC32ERK11ICallString
sC:__ZN7mecanim9animation16EvaluateAvatarDXEPKNS0_14AvatarConstantEPKNS0_11AvatarInputEPNS0_12AvatarMemoryEPNS0_15AvatarWorkspaceEPNS0_12AvatarOutputE
f2c:_RaycastResult_ToString_m2678663776_AdjustorThunk
r2h:_Array_InternalArray__get_Item_TisKeyValuePair_2_t2530217319_m2886833132_gshared
zYe:_ScrollRect_OnEndDrag_m3202230060
Yjc:__Z34Transform_CUSTOM_SetAsFirstSiblingP12Il2CppObject
KQe:_InputField_Delete_m3471899192
TEe:_RemotingConfiguration_get_ProcessId_m2180277012
l3:__ZN17PersistentManager40GlobalToLocalSerializedFileIndexInternalERK26SerializedObjectIdentifier
kS:__ZN11UnityEngine15CloudWebService17SessionEventQueue14ParseEventDataERKN4core12basic_stringIcNS2_20StringStorageDefaultIcEEEE
Mua:__ZN13TranslateGLES4InitERK12GraphicsCaps16GfxDeviceLevelGL
tGd:_Int64_System_IConvertible_ToUInt16_m848637338_AdjustorThunk
eMf:_Array_InternalArray__IndexOf_TisLink_t544317964_m455584088_gshared
gah:_Enumerator_get_Current_m2282646120_AdjustorThunk
T7h:_ReadOnlyCollection_1_IndexOf_m2539022912_gshared
eXh:__ZL66Selectable_t3250028441_CustomAttributesCacheGenerator_m_TransitionP21CustomAttributesCache
tsj:__ZN6il2cpp2os6Memory12AlignedAllocEjj
k$e:_Text_set_alignByGeometry_m3828822280
dmj:__ZN6il2cpp8metadataL7CompareEPK10Il2CppTypeS3_
z7e:_HybridDictionary__ctor_m1681134385
Y1:__ZN21ScalableBufferManager11GetInstanceEv
WAb:__Z18Transfer_BlittableI18StreamedBinaryReadILb0EELb1E10ColorRGBAfEvRK29SerializationCommandArgumentsR31RuntimeSerializationCommandInfo
kcg:_TimeSpan_op_LessThan_m1594498345
idc:__ZL27GetComponentsImplementationILb0ELi0EEbR10GameObjectbRK17CompareParametersRK39GetComponentsImplementation_ReturnValue
qEb:__ZN9Scripting36IsSystemCollectionsGenericDictionaryE17ScriptingClassPtr
jhi:_UnityEvent_1_FindMethod_Impl_m322741469_gshared
tyg:_Enumerator_get_Current_m2591725252
R0:__ZL16ReadTypeTreeImplILb0EEbR8TypeTreeRK16TypeTreeIteratorRPKhS6_i
Ehf:_Interval_Contains_m110351300_AdjustorThunk
RAd:_Convert_ToInt32_m3048308591
iwf:_DateTimeOffset_Equals_m3030958070
gYa:__ZNK22BuiltinResourceManager21GetResourceInstanceIDEPKN5Unity4TypeERKN4core12basic_stringIcNS4_20StringStorageDefaultIcEEEE
Pra:__ZN9GfxDevice15BeginFrameStatsEv
Ygc:__Z42Register_UnityEngine_RectOffset_set_bottomv
Utf:_DateTimeFormatInfo_GetMonthName_m2034512315
ROb:__ZN28LightProbeProxyVolumeContext8CopyFromERKS_
B8h:_ReadOnlyCollection_1_System_Collections_Generic_IListU3CTU3E_Insert_m2489506856_gshared
B6:__ZN23TransformChangeDispatch32QueueTransformChangeIfHasChangedER18TransformHierarchy
L0e:_SimpleCollator_ToDashTypeValue_m6184468
EDa:__ZN7ApiGLES18DeleteRenderbufferERj
gCa:__ZL23ProgramUniformMatrix4fvPK7ApiGLESjiihPKv
NDa:__ZN7ApiGLES13CreateTextureEjj14GraphicsFormatiiiii
Wnd:_Array_new_gap_m262136975
lja:__ZN9ShaderLab20SerializedSubProgram15MatrixParameter8TransferI14SafeBinaryReadEEvRT_
kdc:__ZL27GetComponentsImplementationILb0ELi1EEbR10GameObjectbRK17CompareParametersRK39GetComponentsImplementation_ReturnValue
Hdf:_X509Store__ctor_m275383717
q1e:_SimpleCollator_LastIndexOfOrdinalIgnoreCase_m2984667899
WFc:_Round_Down_To_Grid
zEa:__ZN13RenderTexture7ReleaseEv
ttc:__Z18Transfer_BlittableI8JSONReadLb1EN4math12int3_storageEEvRK29SerializationCommandArgumentsR31RuntimeSerializationCommandInfo
lbb:__ZN10MeshFilter23VirtualRedirectTransferER14SafeBinaryRead
_jd:_X509CertificateEnumerator_MoveNext_m2269241175
vbb:__ZN12MeshRenderer17MainThreadCleanupEv
pLi:__ZN6il2cpp2vmL10InitLockedEP11Il2CppClassRKNS_2os12FastAutoLockE
tHa:__ZN22CreateGpuProgramOutput12CreateParamsEv
rJ:__ZN10ObjectPoolIN4FMOD7ChannelENS0_8ChannelIEE7GetFreeEi
ume:_InternalEnumerator_1_System_Collections_IEnumerator_get_Current_m548105685_gshared
Cua:__ZNK14GfxContextGLES13GetDefaultFBOEv
lqd:_Byte_System_IConvertible_ToType_m2251112646
ZSg:__Z81RuntimeInvoker_Char_t3634460470_RuntimeObject_Int32_t2950945753_Int16_t2552820387PFvvEPK10MethodInfoPvPS4_
ruf:_DateTime_get_Hour_m4153505178_AdjustorThunk
rAi:_AudioExtensionManager_WriteExtensionProperties_m3028464154
Omf:_Evidence_Equals_m1478353107
aac:__Z13GetImagePixelI10ColorRGBAfET_PKhii13TextureFormat15TextureWrapModeS5_ii
z3g:_List_1_System_Collections_IList_set_Item_m1842844683_gshared
hji:_ObjectPool_1__ctor_m2535233435_gshared
W6i:__ZN6il2cpp2vm6Thread49CheckCurrentThreadForInterruptAndThrowIfNecessaryEv
CEf:_CultureInfo_construct_datetime_format_m1928121315
i5:__ZNSt3__23mapIN9ShaderLab16FastPropertyNameEN18UnityPropertySheet11UnityTexEnvENS_4lessIS2_EENS_9allocatorINS_4pairIKS2_S4_EEEEEixERS9_
HCa:__ZNK13TranslateGLES25GetTextureTargetDimensionEj
_5h:_ReadOnlyCollection_1_System_Collections_IList_Remove_m1842121503_gshared
hJd:_File_OpenRead_m2936789020
ojc:__Z47Texture2D_CUSTOM_INTERNAL_CALL_GetPixelBilinearP12Il2CppObjectffR10ColorRGBAf
Eyd:_Enumerator_get_Entry_m3561948123
JQg:__Z94RuntimeInvoker_Void_t1185182177_RuntimeObject_PlayableGraph_t3515989261_RuntimeObject_IntPtr_tPFvvEPK10MethodInfoPvPS4_
Ji:_emscripten_glVertexAttrib4f
ina:__ZNSt3__26vectorIN20GpuProgramParameters14ConstantBufferENS_9allocatorIS2_EEE8__appendEj
pef:_X509CertificateCollection_AddRange_m3683116910
aFe:_SinkProviderData__ctor_m1624738837
tSg:__Z88RuntimeInvoker_RuntimeObject_RuntimeObject_SByte_t1669577662_RuntimeObject_RuntimeObjectPFvvEPK10MethodInfoPvPS4_
jUd:_CustomAttributeTypedArgument_Equals_m2261980307
Gx:__ZN7mecanim12statemachine24CreateStateMachineMemoryEPKNS0_20StateMachineConstantERNS_6memory9AllocatorE
Ura:__ZN9GfxDevice18SetGlobalDepthBiasEff
zTi:__ZN6il2cpp6icalls8mscorlib6System8MonoType12get_AssemblyEP20Il2CppReflectionType
so:FUNCTION_TABLE_vi
Xi:_emscripten_glGetPointerv
k1h:_Dictionary_2_Do_CopyTo_TisKeyValuePair_2_t3842366416_TisRuntimeObject_m1564656153_gshared
fC:__ZN8Animator22ApplyBuiltinRootMotionEv
cHb:__Z26ApplyMaterialPassWithCacheRK18SharedMaterialDataR17ShaderPassContextP6ShaderPN9ShaderLab4PassEibPKNS6_10GrabPassesEPNS6_11SubProgramsEPK22DeviceRenderStateBlock
NQd:_MulticastDelegate_KPM_m22863605
aqe:_InternalEnumerator_1_get_Current_m1897120917_AdjustorThunk
lQd:_MonoType_ReorderParamArrayArguments_m2458683451
HMe:_FormatterConverter_ToInt16_m4282804414
tIg:__Z81RuntimeInvoker_Void_t1185182177_Int64_t3736567304_RuntimeObject_Int64_t3736567304PFvvEPK10MethodInfoPvPS4_
L2c:_StandaloneInputModule_ProcessTouchPress_m4019232747
cJd:_FileStream__ctor_m3151488352
Vnd:_Array_swap_m547389985
y3:__ZN8Renderer23VirtualRedirectTransferER14SafeBinaryRead
Kfg:_UInt32_ToString_m2420423038
x0g:_List_1_System_Collections_IList_Add_m634558835_gshared
GJd:_FileStream_get_Length_m426703983
zLi:__ZN6il2cpp2vmL15GetBitmapNoInitEP11Il2CppClassPjRjj
OH:__ZN12AudioManager5ResetEv
n8b:__ZN15DirectorManager18ScheduleGraphStartERK14HPlayableGraph
NB:__ZN7mecanim5human14RetargetToTDoFEPKNS0_5HumanEPNS0_9HumanPoseEPNS_8skeleton13SkeletonPoseTIN4math4trsXEEESB_
Kij:__ZN6il2cpp6icalls8mscorlib6System11Environment20GetWindowsFolderPathEi
uw:__ZN7mecanim5human18HumanPoseBlendNodeERNS0_9HumanPoseEPS1_f
dAc:_UNITY_FT_RoundFix
rpj:_GC_is_heap_ptr
C3e:_ASN1_DecodeTLV_m1200977460
fng:_UnityEventBase_PrepareInvoke_m1785382128
F8h:_ReadOnlyCollection_1_System_Collections_Generic_IListU3CTU3E_set_Item_m1584697503_gshared
xbb:__ZNK12MeshRenderer22GetTypeVirtualInternalEv
Xrd:_Char_System_IConvertible_ToUInt32_m3901815580
EWe:_Scrollbar_set_onValueChanged_m346467699
TKg:__Z157RuntimeInvoker_Int32_t2950945753_RuntimeObject_Int32_t2950945753_Int32_t2950945753_Int32_t2950945753_SByte_t1669577662_SByte_t1669577662_Int32U26_t1369213839PFvvEPK10MethodInfoPvPS4_
uK:__ZN4FMOD6System17setSoftwareFormatEi17FMOD_SOUND_FORMATii18FMOD_DSP_RESAMPLER
Oha:__ZN14SafeBinaryRead19TransferSTLStyleMapINSt3__23mapIN4core12basic_stringIcNS3_20StringStorageDefaultIcEEEES7_NS1_4lessIS7_EE13stl_allocatorINS1_4pairIKS7_S7_EEL18MemLabelIdentifier1ELi16EEEEEEvRT_17TransferMetaFlags
bPc:__ZN2UI6Canvas27UpdateEventIndexesRecursiveERi
qS:__ZN11UnityEngine15CloudWebService16SessionContainer21PrepareDataErrorEventERN4core12basic_stringIcNS2_20StringStorageDefaultIcEEEE
Z$c:_ExecuteEvents_get_pointerUpHandler_m3515704212
Ssd:_ArrayList_set_Item_m2003485935
_3d:_SatelliteContractVersionAttribute__ctor_m3630863995
S1c:_MouseButtonEventData_PressedThisFrame_m1060658845
cxb:__Z19TransferField_ArrayI19StreamedBinaryWriteILb0EE27Converter_SimpleNativeClassI8GUIStyleEEvRK23StaticTransferFieldInfoR31RuntimeSerializationCommandInfoRT0_
CMb:__Z27SetClippingPlaneShaderPropsR9GfxDevice
r6h:_ReadOnlyCollection_1_System_Collections_Generic_IListU3CTU3E_RemoveAt_m3969985996_gshared
jGj:_emscripten_glCopyTexSubImage2D__wrapper
Tad:_GraphicRegistry_GetGraphicsForCanvas_m4219276355
IEd:_NumberFormatter_FastToDecHex_m699829267
opi:_PatternCompiler_MakeFlags_m1977119795
htc:__Z35Transfer_Blittable_FixedBufferFieldI8JSONReadiEvRK29SerializationCommandArgumentsR31RuntimeSerializationCommandInfo
Ula:__ZN15SerializeTraitsIN9ShaderLab16FastPropertyNameEE8TransferI19StreamedBinaryWriteILb0EEEEvRS1_RT_
CSi:__ZNSt3__213__vector_baseIN6il2cpp2os19SocketHandleWrapperENS_9allocatorIS3_EEED2Ev
inh:__ZL48_Type_t3588564251_CustomAttributesCacheGeneratorP21CustomAttributesCache
dc:invoke_viiffi
uGd:_Int64_System_IConvertible_ToUInt32_m109903525
Zoc:__ZN5Unity9rapidjson13GenericReaderINS0_4UTF8IcEES3_13JSONAllocatorE10ParseFalseILj0ENS0_19GenericStringStreamIS3_EENS0_15GenericDocumentIS3_S4_S4_EEEEvRT0_RT1_
vpg:_Mathf_CeilToInt_m432108984
Vbg:_TimeSpan_FromHours_m1109641064
jka:__Z14resize_trimmedINSt3__26vectorIN9ShaderLab18SerializedPropertyENS0_9allocatorIS3_EEEEEvRT_j
FDi:__ZL25UnresolvedVirtualCall_138P12Il2CppObject17Color_t2555686324faaPK10MethodInfo
zQi:__ZN6il2cpp2vm13MetadataCache38GetMethodInfoFromMethodDefinitionIndexEi
K_c:_EventSystem_set_current_m38955169
poi:_CostDelegate_EndInvoke_m2797921932
h7a:__ZN10VertexData8TransferI24GenerateTypeTreeTransferEEvRT_
VAf:_Double_IsInfinity_m820013146
ejj:__ZN13Il2CppHashMapIPK19Il2CppGenericMethodP10MethodInfoN6il2cpp8metadata23Il2CppGenericMethodHashENS6_26Il2CppGenericMethodCompareENSt3__29allocatorINS9_4pairIK10KeyWrapperIS2_ES4_EEEEEC2EjRKS7_RKS8_
_vg:_Screen_get_dpi_m495672463
w8f:_UTF8Encoding_InternalGetByteCount_m2120178851
OUb:__ZL10CullLightsRK22SceneCullingParametersR11CullResults
tCd:_Convert_ToUInt64_m3170916409
Bx:__ZN7mecanim12statemachine20GetBlendTreeConstantERKNS0_13StateConstantEi
hGd:_Int64_System_IConvertible_ToInt16_m4062196970_AdjustorThunk
HQd:_MonoType_GetGenericTypeDefinition_m3201894896
u1b:__Z40GetTemporaryCachePathApplicationSpecificv
_pa:__ZN9GfxDevice16EndAsyncJobFrameEv
bUg:__Z99RuntimeInvoker_Int32_t2950945753_Ray_t3785851493_RuntimeObject_Single_t1397266774_Int32_t2950945753PFvvEPK10MethodInfoPvPS4_
VCc:_UNITY_tt_face_load_hhea
XVd:_DerivedType_get_Assembly_m2979298667
Tk:___syscall3
Wk:___syscall6
Yk:___syscall4
pT:__ZN11UnityEngine15CloudWebService20WebRequestRestClient17GetResponseStatusEv
vKe:_ReturnMessage__ctor_m2352989078
WFg:__Z99RuntimeInvoker_Void_t1185182177_RuntimeObject_Int32_t2950945753_SByte_t1669577662_SByte_t1669577662PFvvEPK10MethodInfoPvPS4_
cnb:__ZNSt3__26__treeINS_12__value_typeIN4core12basic_stringIcNS2_20StringStorageDefaultIcEEEEPN16MemoryFileSystem4NodeEEENS_19__map_value_compareIS6_SA_NS_4lessIS6_EELb1EEE13stl_allocatorISA_L18MemLabelIdentifier55ELi16EEE7destroyEPNS_11__tree_nodeISA_PvEE
Vej:__ZN6il2cpp2vm3RCW14QueryInterfaceILb1EEEP14Il2CppIUnknownP15Il2CppComObjectRK10Il2CppGuid
Zbe:_TlsServerCertificateRequest__ctor_m1334974076
TAd:_Convert_ToInt32_m1613163543
nUe:_MatEntry__ctor_m1949610076
T5h:_ReadOnlyCollection_1_System_Collections_ICollection_CopyTo_m3127175806_gshared
ml:_emscripten_glShaderBinary
Reg:_UInt16_ToString_m760649087
$lb:__ZNK20LocalFileSystemPosix6ExistsERK13FileEntryData
Mjg:_Camera_GetAllCameras_m668492922
zSc:__Z58Register_UnityEngine_Canvas_GetETC1SupportedCanvasMaterialv
jcg:_TimeSpan_op_Inequality_m2467851530
Bzb:__ZN17AnimationCurveTplIfE8TransferI18StreamedBinaryReadILb1EEEEvRT_
k0h:_Array_Sort_TisUIVertex_t4057497605_m3996333845_gshared
TUc:__ZN18UnityConnectClientD2Ev
nod:_Swapper_BeginInvoke_m1688449973
Llg:_Display_get_renderingWidth_m1970428952
wMg:__Z81RuntimeInvoker_Void_t1185182177_RuntimeObject_Int32_t2950945753_Int64_t3736567304PFvvEPK10MethodInfoPvPS4_
P0:__ZN13dynamic_arrayIcLj1EE6insertEPcPKcS3_
XIg:__Z86RuntimeInvoker_Boolean_t97287965_Int16_t2552820387_Int16_t2552820387_Int32_t2950945753PFvvEPK10MethodInfoPvPS4_
eii:_IndexedSet_1_IndexOf_m241693686_gshared
YTc:__ZN11UnityEngine15PlatformWrapper30GetGraphicsDriverLibraryStringEv
Udd:_RuntimeMethodHandle_Equals_m3301340296_AdjustorThunk
ggg:_UInt64_System_IConvertible_ToSingle_m925613075_AdjustorThunk
XAb:__Z18Transfer_BlittableI18StreamedBinaryReadILb0EELb0E4AABBEvRK29SerializationCommandArgumentsR31RuntimeSerializationCommandInfo
hfb:__ZN24GenerateTypeTreeTransfer19TransferSTLStyleMapINSt3__28multimapIN4core12basic_stringIcNS3_20StringStorageDefaultIcEEEE4PPtrI6ObjectENS1_4lessIS7_EE13stl_allocatorINS1_4pairIKS7_SA_EEL18MemLabelIdentifier52ELi16EEEEEEvRT_17TransferMetaFlags
QD:__ZN16MecanimAnimation24DeleteAnimatedPropertiesERP26IAnimatedPropertyEvaluator
sIi:_CanvasRenderer_SetMaterial_m824577244
wLb:__Z14DrawGUITextureRK5RectTIfEP7Texture11ColorRGBA32P8Materiali
n6h:_ReadOnlyCollection_1_System_Collections_Generic_ICollectionU3CTU3E_Add_m2686599243_gshared
SA:__ZN9BlobWrite8TransferI22OffsetPtrArrayTransferIKN4math7_float4EEEEvRT_PKc17TransferMetaFlags
jMb:__ZN22RenderingCommandBuffer20ExecuteCommandBufferER17ShaderPassContextR15RenderNodeQueuejP13dynamic_arrayINSt3__24pairIN9ShaderLab16FastPropertyNameEP13RenderTextureEELj4EE16ComputeQueueTypeSA_
pyg:_Transform_IsChildOf_m224006092
XZa:__ZN15TextureSettings8TransferI24GenerateTypeTreeTransferEEvRT_
Ssc:__ZN9JSONWrite8TransferI4AABBEEvRT_PKc17TransferMetaFlags
tOa:__ZN25MultiBlocksMemoryFileData9SetLengthEy
f1h:_Dictionary_2_Do_ICollectionCopyTo_TisRuntimeObject_m1855083806_gshared
eyi:_Aes__ctor_m178909601
F2a:__ZNK9Texture2D20GetRuntimeMemorySizeEv
Jkc:__ZN11Marshalling39CreateNullExceptionForUnityEngineObjectE18ScriptingObjectPtr
Yoc:__ZN5Unity9rapidjson13GenericReaderINS0_4UTF8IcEES3_13JSONAllocatorE9ParseTrueILj0ENS0_19GenericStringStreamIS3_EENS0_15GenericDocumentIS3_S4_S4_EEEEvRT0_RT1_
um:_emscripten_glUniform2iv
Axc:_UNITY_FT_Outline_Transform
SLi:__ZN6il2cpp2vm5Class10GetMethodsEP11Il2CppClassPPv
MQb:__Z30AddDefaultStreamsToMeshBuffersR9GfxDeviceR11MeshBuffersRK16DrawBuffersRange17ShaderChannelMaskS6_
SCa:__ZN7ApiGLES17DeleteFramebufferERN2gl6HandleILNS0_10ObjectTypeE9EEES3_
vGa:__ZN15UniformTFMethod13MapBoneBufferEj
YNc:__ZN2UI14CanvasRendererD2Ev
K2h:_Array_InternalArray__get_Item_TisParameterModifier_t1461694466_m29553316_gshared
zGd:_Int64_CompareTo_m1928360444_AdjustorThunk
aGb:__Z9SetupArgviPPKc
hBd:_Convert_ToInt64_m2075031821
bHj:_glTexParameteri__wrapper
G1a:__ZN12CubemapArray23VirtualRedirectTransferER24GenerateTypeTreeTransfer
v1:__ZN12FileAccessor4OpenER15FileSystemEntry14FilePermission16FileAutoBehavior
Fhj:__ZN6il2cpp2os9Directory6CreateERKNSt3__212basic_stringIcNS2_11char_traitsIcEENS2_9allocatorIcEEEEPi
A6:__ZN23TransformChangeDispatch32QueueTransformChangeIfHasChangedERK15TransformAccess
O0a:__ZNSt3__26vectorINS_4pairIN9ShaderLab16FastPropertyNameEN18UnityPropertySheet11UnityTexEnvEEENS_9allocatorIS6_EEE21__push_back_slow_pathIKS6_EEvRT_
ESd:_Assembly_get_FullName_m293988418
B:tempValue
dtj:__ZN6il2cpp8metadata24Il2CppGenericContextHash4HashEPK20Il2CppGenericContext
ioe:_InternalEnumerator_1_get_Current_m356936020_AdjustorThunk
Zhh:_Collection_1_CheckWritable_m1583234367_gshared
OFd:_Int32_ToString_m141394615_AdjustorThunk
Wtd:_ArrayListWrapper_CopyTo_m498486826
BId:_Directory_GetCurrentDirectory_m219218555
Hkd:_SmallXmlParser_UnexpectedEndError_m1914362401
_x:__ZN26AnimatorControllerPlayable18DeallocateBindingsEv
Jva:__ZN14DelayedDeletorI15dense_hashtableINSt3__24pairIK9TextureIDiEES3_14GfxGenericHashIS3_EN14GfxDoubleCacheIS3_iS7_NS1_8equal_toIS3_EEN31GfxDoubleCacheConcurrencyPolicy11LocklessGetE42GfxDoubleCacheDefaultEmptyDeletedGeneratorIS3_EE9SelectKeyESA_13stl_allocatorIS5_L18MemLabelIdentifier24ELi16EEEEclEv
vN:__ZN11AudioSource19CreateOpenALRolloffEfff
PCc:_UNITY_FT_Stream_ReadAt
ibg:_TimeSpan__ctor_m1896986612_AdjustorThunk
IPi:__ZN15dense_hashtableINSt3__24pairIK10KeyWrapperIN6il2cpp5utils13dynamic_arrayIPK10Il2CppTypeLj4EEEEPFvvEEESA_NS3_8metadata19Il2CppSignatureHashEN14dense_hash_mapISA_SD_SG_NSA_14EqualsComparerINSF_22Il2CppSignatureCompareEEENS0_9allocatorISE_EEE9SelectKeyESK_SM_E9set_valueEPSE_RKSE_
djd:_ArgumentException__ctor_m1216717135
mtg:_Ray_ToString_m1732834890_AdjustorThunk
md:_glReadBuffer
p3g:_List_1_System_Collections_IList_Contains_m3860993176_gshared
jO:__ZN11AudioModule22CreateAudioClipFromWWWEP10IWWWStreamPKcbbi
o5b:__ZN9Texture2DC2E10MemLabelId18ObjectCreationMode
Si:_emscripten_glRotatef
Veg:_UInt32_System_IConvertible_ToBoolean_m1763673183_AdjustorThunk
$mg:_UnityEvent_AddListener_m2276267359
cQc:__Z13RegisterClassIN2UI11CanvasGroupEEvv
B1b:__ZN6prcoreL11inner_clearILj4EEEvPhjjj
of:_emscripten_glClear
Loj:_GC_initialize_offsets
oea:__ZNK8Playable6HandleEv
iPe:_SetPropertyUtility_SetColor_m2229203028
Swe:_Enumerator_MoveNext_m481679286_gshared
B$:__ZN14MessageHandler28MessageIDToMessageIdentifierEi
D7a:__ZNK11SpriteAtlas20GetRuntimeRenderDataEPK6Sprite
rId:_FileSystemInfo__ctor_m3035148496
eFd:_Int32_System_IConvertible_ToDecimal_m2190376994_AdjustorThunk
qKc:__ZN20TextRenderingPrivate15DynamicFontData36GetFaceForCharacterIfAvailableInFontERKNS_7FontRefERK13dynamic_arrayI4PPtrIN13TextRendering4FontEELj4EEj
Yv:__ZN7mecanim14ValueArrayCopyILb0EEEvPKNS_10ValueArrayEPS1_
eF:__Z51Register_UnityEngine_Animator_get_hasBoundPlayablesv
Ed:emscriptenWebGLGetUniform
to:FUNCTION_TABLE_iiiiiiiiiii
rvi:_GUI_CallWindowDelegate_m3309453386
gBc:_cff_set_mm_blend
vWb:__ZL10CleanUpJobP20CullingGroupsJobData
mId:_DirectoryInfo_get_Exists_m3142069876
nLb:__ZN13RenderManager15BatchModeUpdateEv
Edf:_X509Chain_get_CertificateAuthorities_m804805415
N6a:__ZN14SafeBinaryRead21TransferSTLStyleArrayI13dynamic_arrayI8Vector2fLj4EEEEvRT_17TransferMetaFlags
k3:__ZN17PersistentManager51InstanceIDToLocalSerializedObjectIdentifierInternalEiR31LocalSerializedObjectIdentifier
ovg:_Vector2_get_one_m738793577
cac:__ZNK4Mesh14GetIndexFormatEv
hd:_glVertexAttribIPointer
U6f:_StringBuilder_ToString_m3317489284
jCa:__ZN13dynamic_arrayI21ComputeShaderResourceLj4EE9push_backERKS0_
pac:__ZNK6Sprite10GetPaddingE20SpriteRenderDataMode
OIf:_Array_InternalArray__ICollection_Remove_TisUInt32_t2560061978_m733727733_gshared
ifd:_CryptographicException__ctor_m503735289
$Jd:_Stream_EndRead_m1896469262
NAg:__Z93RuntimeInvoker_Boolean_t97287965_Int32_t2950945753_SByte_t1669577662_ExceptionU26_t3600731591PFvvEPK10MethodInfoPvPS4_
GOb:__ZN14qsort_internal5QSortIP15RODataDepthPassi17ROSorterDepthPassEEvT_S4_T0_T1_
zDc:_UNITY_ft_glyphslot_alloc_bitmap
vfe:_RSASslSignatureDeformatter_SetHashAlgorithm_m895570787
Ini:_X509CrlEntry__ctor_m4013514048
OPg:__Z87RuntimeInvoker_Color_t2555686324_Color_t2555686324_Color_t2555686324_Single_t1397266774PFvvEPK10MethodInfoPvPS4_
sIc:_ft_raster1_render
plc:__Z47Register_UnityEngine_Mesh_RecalculateBoundsImplv
lqa:__ZN9GfxDevice27UpdateComputeSkinPoseBufferEP9GfxBufferP12SkinMeshInfo
txj:__ZNKSt3__221__basic_string_commonILb1EE20__throw_length_errorEv
RWf:_EqualityComparer_1_System_Collections_IEqualityComparer_Equals_m245992594_gshared
wMf:_Array_InternalArray__IndexOf_TisParameterModifier_t1461694466_m1227120810_gshared
TDa:__ZN18GfxFramebufferGLES13ReadbackImageER14ImageReferenceiiiiii
Apc:__ZN5Unity9rapidjson6WriterI16TempBufferWriterNS0_4UTF8IcEES4_13JSONAllocatorE11WriteStringEPKcj
Zcd:_SerializationInfo_SetType_m3923964808
wza:__ZN6prcoreL12RemapGenericI17TexFormatARGB888815TexFormatRGB565EEvPKNS_9InnerInfoE
$I:__ZN4FMOD7Channel19setReverbPropertiesEPK29FMOD_REVERB_CHANNELPROPERTIES
gMd:_StreamReader_Dispose_m156389394
k_:__ZN13MonoBehaviour22GetScriptFullClassNameEv
p3b:__ZN13ProduceHelperI11MonoManagerLb0EE7ProduceE10MemLabelId18ObjectCreationMode
hif:_RIPEMD160Managed_JJ_m112143231
cOb:__ZN13BatchRendererC2ER15RenderLoopStatsRK15RenderNodeQueuebb
Vmb:__ZNK16MemoryFileSystem9EnumerateEPKcP19dynamic_block_arrayI13FileEntryInfoLj32EEbPPv19FileEnumerationFlag
_Db:__ZN13MonoBehaviour9CallAwakeEv
AYa:__ZN20SphericalHarmonicsL211AddWeightedERKS_f
PDg:__Z82RuntimeInvoker_RuntimeObject_Int64_t3736567304_Int64_t3736567304_Int64_t3736567304PFvvEPK10MethodInfoPvPS4_
htb:__Z19TransferField_ArrayI17RemapPPtrTransfer27Converter_SimpleNativeClassI8GUIStyleEEvRK23StaticTransferFieldInfoR31RuntimeSerializationCommandInfoRT0_
kqc:__ZN9JSONWrite8TransferI10ColorRGBAfEEvRT_PKc17TransferMetaFlags
v$:__Z25scripting_method_get_name18ScriptingMethodPtr
Gfe:_SslCipherSuite_ComputeKeys_m661027754
rrg:_Object_set_name_m291480324
vyf:_Decimal_Equals_m2486655999
Noj:_GC_exit_check
T0d:_MonoField_ToString_m2518484388
y4e:_DSAManaged_get_Random_m923751780
$ye:_Transform_1_Invoke_m2385719192_gshared
ozg:_Vector3_set_Item_m1772472431_AdjustorThunk
xgf:_Interpreter_PopulateGroup_m4042796257
l_b:__ZNSt3__26vectorINS_4pairIN4core12basic_stringIcNS2_20StringStorageDefaultIcEEEES6_EE13stl_allocatorIS7_L18MemLabelIdentifier38ELi16EEE6insertENS_11__wrap_iterIPKS7_EERSD_
Ang:_RenderPipelineManager_DoRenderLoop_Internal_m3799666479
JA:__ZN9BlobWrite8TransferI22OffsetPtrArrayTransferI9OffsetPtrIN7mecanim12statemachine18StateMachineMemoryEEEEEvRT_PKc17TransferMetaFlags
qfh:_Collection_1_System_Collections_IList_IndexOf_m3894953546_gshared
Uli:_PKCS12_get_Certificates_m26161562
l8e:_NameObjectCollectionBase_Init_m2525481323
Zjj:__ZN6il2cpp2vm6String8NewUtf16EPKDsi
eed:_SByte_System_IConvertible_ToByte_m2268214252_AdjustorThunk
ohj:__ZN6il2cpp2os10ThreadImpl12QueueUserAPCEPFvPvES2_
Wsi:_RegularExpression__ctor_m119502265
JUc:__ZN22BaseUnityConnectClient10QueueEventERN11UnityEngine15CloudWebService17CloudServiceEventEPKcjb
o6h:_ReadOnlyCollection_1_System_Collections_Generic_ICollectionU3CTU3E_Clear_m522482168_gshared
HIe:_ConstructionCall_InitMethodProperty_m2021094586
pGc:_UNITY_FT_Hypot
kYh:__ZL74CanvasScaler_t2767979955_CustomAttributesCacheGenerator_m_DefaultSpriteDPIP21CustomAttributesCache
L3i:_il2cpp_class_is_abstract
yf:_emscripten_glGetError
j1i:__ZN15dense_hashtableINSt3__24pairIK10KeyWrapperIPK14Il2CppAssemblyEPK22Il2CppMonoAssemblyNameEES6_N6il2cpp5utils11PointerHashIS4_EEN14dense_hash_mapIS6_SA_SF_NS6_14EqualsComparerINS0_8equal_toIS5_EEEENS0_9allocatorISB_EEE9SelectKeyESK_SM_E14squash_deletedEv
MJ:__Z14FMOD_FILE_SeekPvjS_
IUe:_MaskableGraphic_OnDisable_m1757789159
jZa:__ZN7TextureC2E10MemLabelId18ObjectCreationMode
xSe:_LayoutGroup__ctor_m2162961217
wXb:__ZNK13RenderTexture32CalculateNeedsInvertedProjectionEv
z0b:__ZN10systeminfo18GetOperatingSystemEv
Gf:emscriptenWebGLGet
Iaa:__Z19CanReplaceComponentRN5Unity9ComponentEPKNS_4TypeEPN4core12basic_stringIcNS5_20StringStorageDefaultIcEEEE
gOd:_UnmanagedMemoryStream_Flush_m1540584491
ECd:_GuidParser_ParseGuid2_m1914838819
h5b:__ZN12CubemapArray11InitTextureEiii13TextureFormatb
IBd:_Convert_ToSingle_m3983149863
Kie:_InternalEnumerator_1_System_Collections_IEnumerator_get_Current_m55999184_gshared
V9c:_Graphic_get_depth_m815589653
Vui:_Event_set_displayIndex_m1342258734
qB:__ZN7mecanim5human13HumanFixTwistEPKNS0_5HumanEPNS_8skeleton13SkeletonPoseTIN4math4trsXEEES9_iiRKf
uRb:__ZL24AssignProjectorQueuesJobP30AssignProjectorQueuesJobHeader
E2d:_ParameterModifier_t1461694466_marshal_pinvoke
PPi:__ZN15dense_hashtableINSt3__24pairIK10KeyWrapperIN6il2cpp5utils13dynamic_arrayIPK10Il2CppTypeLj4EEEEPFvvEEESA_NS3_8metadata19Il2CppSignatureHashEN14dense_hash_mapISA_SD_SG_NSA_14EqualsComparerINSF_22Il2CppSignatureCompareEEENS0_9allocatorISE_EEE9SelectKeyESK_SM_E4swapERSP_
qna:__ZN9ShaderLab20SerializedSubProgram14SetConstBufferEPKci
YVi:__ZN6il2cpp2os4File5CloseEPNS0_10FileHandleEPi
oPi:__ZNSt3__27__sort5IRN6il2cpp5utils11collections13ArrayValueMapIPK10Il2CppType17Il2CppInteropData26InteropDataToTypeConverterNS1_8metadata14Il2CppTypeLessENSA_26Il2CppTypeEqualityComparerEE12SortComparerEPS8_EEjT0_SH_SH_SH_SH_T_
zeg:_UInt16_CompareTo_m2664746316_AdjustorThunk
$W:__Z40DebugStringToFilePostprocessedStacktraceRK21DebugStringToFileData
Yuc:__Z29Transfer_Blittable_ArrayFieldI8JSONReadjEvRT_R9ArrayInfoRK23StaticTransferFieldInfo
Toj:_GC_check_finalizer_nested
mg:__setLetterbox
uYe:_ScrollRect_OnScroll_m3861066534
OCe:_Dictionary_2_ToTKey_m224697230_gshared
NMh:__ZL72FormerlySerializedAsAttribute_t2859083114_CustomAttributesCacheGeneratorP21CustomAttributesCache
Roc:__ZN8JSONRead32GetValueForKeyWithNameConversionEPKN5Unity9rapidjson12GenericValueINS1_4UTF8IcEE13JSONAllocatorEEPKc
Kpi:_PatternCompiler_EmitFastRepeat_m3012952683
hab:__ZNSt3__26vectorI17BlendShapeChannelNS_9allocatorIS1_EEE6assignINS_11__wrap_iterIPS1_EEEENS_9enable_ifIXaasr21__is_forward_iteratorIT_EE5valuesr16is_constructibleIS1_NS_15iterator_traitsISA_E9referenceEEE5valueEvE4typeESA_SA_
s0b:__ZN11TimeManager11GetRealtimeEv
eK:__ZN29AudioEffectInternalDefinitionC2EP26UnityAudioEffectDefinitionb
_ai:_ReadOnlyCollection_1_System_Collections_IList_Remove_m2434650390_gshared
Seg:_UInt16_ToString_m3056878594_AdjustorThunk
fsj:__ZN6il2cpp2os9FastMutexD2Ev
uhf:_Interval_get_IsSingleton_m3386290029
eYi:__ZNSt3__2plIcNS_11char_traitsIcEENS_9allocatorIcEEEENS_12basic_stringIT_T0_T1_EERKS9_PKS6_
kxg:_Time_get_unscaledDeltaTime_m4270080131
Kbb:__ZN4Mesh14GetMeshBuffersER11MeshBuffers17ShaderChannelMaskPS_b
Zjf:_SHA384Managed__ctor_m3220477113
vya:_stbir_resize
JLf:_Array_IndexOf_TisCustomAttributeTypedArgument_t2723150157_m3158556463_gshared
lCf:_Environment_GetOSVersionString_m407782784
esf:_DecoderExceptionFallback_Equals_m1082173956
arh:__ZL69Assembly_t_CustomAttributesCacheGenerator_Assembly_GetName_m981771927P21CustomAttributesCache
zOa:__Z37ReadDirectoryInfo_UnityWebAndUnityRawR12FileAccessorRKN20ArchiveStorageHeader6HeaderERNS1_13DirectoryInfoE
T9:__ZNSt3__26__treeINS_12__value_typeIPKciEENS_19__map_value_compareIS3_S4_15compare_tstringIS3_ELb1EEENS_9allocatorIS4_EEE7destroyEPNS_11__tree_nodeIS4_PvEE
OPf:_Array_InternalArray__Insert_TisIntPtr_t_m189626842_gshared
Jcf:_X509Certificate2_get_IssuerName_m1277209535
Did:_RijndaelManaged_CreateEncryptor_m263736311
EOb:__ZN20DynamicPropertySheet14SetValueQueuedEN9ShaderLab16FastPropertyNameEN19ShaderPropertySheet12PropertyTypeEjNS2_8SetFlagsE
MOc:__ZN2UI6Canvas26MarkAllNestedCanvasesDirtyEv
Gmg:_InvokableCallList_ClearPersistent_m1904264973
AFb:__ZN25PathNamePersistentManagerD2Ev
OY:__ZN17PersistentManager48IntegrateObjectAndUnlockIntegrationMutexInternalEi
Hga:__ZZ29InitializeSortingGroupManagerPvEN44PostLateUpdateSortingGroupsUpdateRegistrator7ForwardEv
NRh:__ZL55EventTrigger_t1076084509_CustomAttributesCacheGeneratorP21CustomAttributesCache
Fnf:_SecurityElement_SearchForChildByTag_m900466299
mp:__ZN6Object12SetHideFlagsENS_9HideFlagsE
n4e:_CryptoConvert_FromCapiPublicKeyBlob_m4073029974
_Dj:_emscripten_glGetFramebufferAttachmentParameteriv__wrapper
PLb:__ZN13RendererScene15InitializeUmbraEv
rXa:__Z28CalculateGlobalMatrixInverse23TransformAccessReadOnly
uZf:_GenericEqualityComparer_1_Equals_m3457564127_gshared
R5d:_BigInteger_ModInverse_m2426215562
asf:_DecoderExceptionFallback__ctor_m4044614564
lOd:_LocalDataStoreSlot__cctor_m644942532
btj:__ZN6il2cpp6icalls8mscorlib6System6Object7GetTypeEP12Il2CppObject
I1d:_MonoProperty_CachePropertyInfo_m2968057423
eYc:__ZNK25UnityWebRequestJavaScript18GetDownloadedBytesEv
ktg:_Ray_GetPoint_m1852405345_AdjustorThunk
OGf:_Array_get_swapper_TisColor32_t2600501292_m2310851009_gshared
YXc:__ZN12HeaderHelper14SetUnvalidatedERKN4core12basic_stringIcNS0_20StringStorageDefaultIcEEEES6_b
cG:__ZN4FMOD6SoundI7releaseEv
Uzc:_cff_parse_num
bPa:__ZN10MemoryFile9SetLengthEy
mvb:__ZN5RectTIiE8TransferI24GenerateTypeTreeTransferEEvRT_
v4a:__ZN14SafeBinaryRead21TransferSTLStyleArrayI13dynamic_arrayI7Hash128Lj8EEEEvRT_17TransferMetaFlags
CEb:__Z28scripting_class_is_interface17ScriptingClassPtr
Dh:_glTexStorage2D
Oxd:_SyncHashtable_get_Item_m2686606216
Nma:__ZNK9ShaderLab10SubProgram14EnsureCompiledEv
$Yd:_MethodBuilder_GetGenericArguments_m1765425737
Luf:_DateTime_CompareTo_m3687348273
Inj:_GC_push_marked
Tvf:_DateTime_ToUniversalTime_m1945318289_AdjustorThunk
v2e:_Kernel_modInverse_m668448880
l$:__Z18BuildScriptClassId17ScriptingClassPtr
ZGi:_TextGenerator_Init_m1168488231
CMa:__ZL31DeleteLastPathNameComponentImplRKN4core12basic_stringIcNS_20StringStorageDefaultIcEEEEPKc
n2b:__Z13RegisterClassI18DelayedCallManagerEvv
WUc:__ZN18UnityConnectClient15GetCloudServiceEv
vtb:__Z18Transfer_BlittableI24GenerateTypeTreeTransferLb0EiEvRK29SerializationCommandArgumentsR31RuntimeSerializationCommandInfo
hne:_InternalEnumerator_1_get_Current_m2698009637_gshared
wSi:__ZN6il2cpp2os19SocketHandleWrapperD2Ev
aAe:_Enumerator_System_Collections_IEnumerator_Reset_m278261807_gshared
vEb:__ZL28SerializationCommandGroupForRK31TransferFunctionScriptingTraits17ScriptingClassPtr17ScriptingFieldPtrRK20CoreScriptingClasses
GRa:__ZN10TagManager32RegisterDefaultTagsAndLayerMasksEv
cbg:_WaitHandle_Dispose_m738127030
TJg:__Z50RuntimeInvoker_Double_t594665363_Int32_t2950945753PFvvEPK10MethodInfoPvPS4_
ySg:__Z104RuntimeInvoker_Void_t1185182177_Color_t2555686324_Single_t1397266774_SByte_t1669577662_SByte_t1669577662PFvvEPK10MethodInfoPvPS4_
z1f:_Enumerator_System_Collections_IEnumerator_get_Current_m1540440674_gshared
Aof:_Single_System_IConvertible_ToInt16_m809233024_AdjustorThunk
Gvj:_fmodf
GOe:_InputField_UpdateLabel_m1837760870
Lua:__ZN4gles8InitCapsEP7ApiGLESP12GraphicsCapsR16GfxDeviceLevelGL
Pya:__ZN6prcore14BlitImageFloatERK14ImageReferenceRS0_NS0_8BlitModeE
WUa:__Z24CalculateVertexLightDataRK15SharedLightDataR14GfxVertexLight
li:_glEnable
Kma:__ZNK9ShaderLab7Program28BeginReadUnsupportedVariantsEv
m6:__ZN12CachedWriter11Align4WriteEv
Qfb:__ZNSt3__26vectorIN30RuntimeInitializeOnLoadManager9ClassInfoE13stl_allocatorIS2_L18MemLabelIdentifier13ELi16EEE7reserveEj
xqc:__Z35Transfer_Blittable_FixedBufferFieldI9JSONWriteiEvRK29SerializationCommandArgumentsR31RuntimeSerializationCommandInfo
KZf:_Enumerator__ctor_m1590062855_AdjustorThunk
h2i:__ZN14dense_hash_mapI10KeyWrapperINSt3__24pairIPK10MethodInfoP11Il2CppClassEEEj17ReflectionMapHashIS8_ENS9_14EqualsComparerINS1_8equal_toIS8_EEEENS1_9allocatorINS2_IKS9_jEEEEEC2EjRKSB_RKSF_
Sx:__ZN26AnimatorControllerPlayable17ProcessRootMotionEP35AnimationPlayableEvaluationConstantP32AnimationPlayableEvaluationInputP33AnimationPlayableEvaluationOutput
MNd:_UnexceptionalStreamReader_Peek_m1842169584
yTc:__ZN11UnityEngine7Connect15DeviceInfoEvent16CollectExtraInfoEv
Rig:_Bounds_GetHashCode_m1844059663_AdjustorThunk
zfd:_CryptographicException__ctor_m1422015889
Nzg:_Vector4_Equals_m1779210055_AdjustorThunk
uCd:_Convert_ChangeType_m739676612
Jlj:__ZThn8_N6il2cpp2vm13CachedCCWBaseINS0_13ManagedObjectEE6AddRefEv
G9d:_Alert_GetAlertMessage_m1942367141
zGe:_RemotingServices_GetRealProxy_m2081098851
e4e:_BlockProcessor_Core_m189015002
gEj:_emscripten_glScissor__wrapper
yo:FUNCTION_TABLE_viifi
zo:FUNCTION_TABLE_viiff
kjd:_X501__cctor_m1166912714
RUe:_MaskUtilities_GetRectMasksForClip_m532898711
GGc:_UNITY_tt_face_free_hdmx
rjg:_Bounds_ToString_m4208690781
MWi:__ZN6il2cpp2vm14TypeNameParser5ParseEb
COd:_Math_Sqrt_m1297338011
zMd:_StreamWriter_Initialize_m3490883444
Bdg:_Type_GetGenericArguments_m3500465462
$Wc:__ZN23UnityPurchasingSettingsC2Ev
Q$d:_Module_IsDefined_m2423524910
zVd:_DerivedType_create_unmanaged_type_m747846525
BPh:__ZL60EventType_t3528516131_CustomAttributesCacheGenerator_repaintP21CustomAttributesCache
LTa:__ZN17GPUFenceInternals7ReleaseEv
dXh:__ZL66Selectable_t3250028441_CustomAttributesCacheGenerator_m_NavigationP21CustomAttributesCache
xXb:__ZL10RenderFaceR9GfxDeviceR18MaterialStateCacheP13RenderTextureiif
ILf:_Array_IndexOf_TisCustomAttributeNamedArgument_t287865710_m2817957199_gshared
wja:__ZN15SerializeTraitsI13dynamic_arrayIN9ShaderLab21SerializedBindChannelELj4EEE19ResizeSTLStyleArrayERS3_i
Xbj:__ZNK24NamespaceAndNamePairHashclERKNSt3__24pairIPKcS3_EE
hli:_ExtendedKeyUsageExtension_ToString_m2116504780
Jib:__ZNK5Unity9Component38MarkGameObjectAndComponentDependenciesER27GarbageCollectorThreadState
RHd:_BinaryReader_Read_m3708759962
tYc:__ZN20UnityWebRequestProtoI24UnityWebRequestTransport16AtomicRefCounter14RedirectHelper14ResponseHelper15DownloadHandler13UploadHandler12HeaderHelper14AsyncOperationED0Ev
qua:__ZN9GfxDevice26CreateDefaultVertexBuffersEv
zFj:_emscripten_glVertexAttrib2fv__wrapper
_Md:_SynchronizedReader_ReadToEnd_m2160105378
IAf:_Double_System_IConvertible_ToUInt16_m4132603953_AdjustorThunk
Jxa:__ZN4crnd12symbol_codec32decode_receive_static_data_modelERNS_25static_huffman_data_modelE
Q0b:__ZN18ScriptingArguments8AddFloatEf
xxg:_TouchScreenKeyboard_Open_m3325559252
_bd:_Image_set_fillOrigin_m469806249
mTc:__ZN11UnityEngine15PlatformWrapper16GetVRRenderScaleEv
xrc:__Z18Transfer_BlittableI9JSONWriteLb0EaEvRK29SerializationCommandArgumentsR31RuntimeSerializationCommandInfo
MR:__ZN11UnityEngine15CloudWebService14DataDispatcher34OnSessionContainerArchivedAndReadyERNS0_16SessionContainerE
Vqg:_ConnectionChangeEvent__ctor_m764126802
Z2d:_ResolveEventHandler_Invoke_m1337322179
r0f:_Enumerator_VerifyState_m2621680056_gshared
Rti:_UriParser_InternalRegister_m3643767086
Uha:__ZN14SafeBinaryRead19TransferSTLStyleMapINSt3__23mapIN4core12basic_stringIcNS3_20StringStorageDefaultIcEEEEiNS1_4lessIS7_EENS1_9allocatorINS1_4pairIKS7_iEEEEEEEEvRT_17TransferMetaFlags
SEc:_gray_move_to
Qwf:_DBNull_System_IConvertible_ToSingle_m13713620
t5h:_ReadOnlyCollection_1_System_Collections_IList_Contains_m1327645028_gshared
lcd:_Image_GetDrawingDimensions_m3060965396
aNh:__ZL69FontTextureRebuildCallback_t2467502454_CustomAttributesCacheGeneratorP21CustomAttributesCache
Udg:_TypeLoadException__ctor_m1154572625
_dc:__Z30RegisterValidateMethodCallbackiPF18ScriptingMethodPtrS_17ScriptingClassPtrP6ObjectEPKc
Mce:_Context_get_WriteSequenceNumber_m1115956887
s1h:_Dictionary_2_Do_ICollectionCopyTo_TisKeyValuePair_2_t2401056908_m1169495264_gshared
LZd:_OpCodes__cctor_m3821715395
_5c:_ContentSizeFitter__ctor_m2349275633
dEc:_tt_cmap_init
Pvc:__ZN8JSONRead8TransferI9BoundsIntEEvRT_PKc17TransferMetaFlagsb
Ia:invoke_viidi
V$h:_Array_Sort_TisOrderBlock_t1585977831_m2922111197_gshared
M9c:_Graphic_OnRectTransformDimensionsChange_m3695755375
ged:_SByte_System_IConvertible_ToChar_m1489191771_AdjustorThunk
FI:__ZN9AudioClip7CleanupEv
r6i:__ZNK15dense_hashtableINSt3__24pairIK10KeyWrapperIP11Il2CppClassES4_EES5_N6il2cpp8metadata16SZArrayClassHashEN14dense_hash_mapIS5_S4_SA_NS5_14EqualsComparerINS9_19SZArrayClassCompareEEENS0_9allocatorIS7_EEE9SelectKeyESE_SG_E12test_deletedEj
quc:__Z18Transfer_BlittableI8JSONReadLb0EdEvRK29SerializationCommandArgumentsR31RuntimeSerializationCommandInfo
OHe:_SynchronizationAttribute_EnterContext_m1660729920
HHi:_Canvas_get_referencePixelsPerUnit_m3420541976
Zui:_Event_get_current_m2393892120
gzi:_VertexHelper_Clear_m627349662
PSi:__ZN6il2cpp2vm21ThreadPoolCompartment13QueueWorkItemEP17Il2CppAsyncResult
npa:__ZNK9GfxDevice13GetViewMatrixEv
hOd:_UnmanagedMemoryStream_Dispose_m2681886347
Jhb:__ZN17RemapPPtrTransferC2E24TransferInstructionFlagsb
oAd:_Convert_ToDecimal_m889385228
J0:__ZN8TypeTree8BlobReadERPKhS1_ib
Nnd:_Array_Reverse_m3714848183
g8c:_Dropdown_ClearOptions_m4085591601
l5c:_CanvasUpdateRegistry_InternalRegisterCanvasElementForGraphicRebuild_m3522560454
lgb:__ZN18LoadSceneOperation23GetAllowSceneActivationEv
eSa:__ZN6CameraD0Ev
tfa:__ZN31CanvasBatchIntermediateRenderer16StaticInitializeEPv
ix:__ZN7mecanim12AndValueMaskILb0EEEvPKNS_14ValueArrayMaskEPS1_
Efb:__ZN14SafeBinaryRead21TransferSTLStyleArrayINSt3__26vectorIi13stl_allocatorIiL18MemLabelIdentifier13ELi16EEEEEEvRT_17TransferMetaFlags
a5f:_EncoderFallback__cctor_m3806755293
PKc:_raccess_guess_apple_double
OBa:__ZL18ProgramUniform1uivPK7ApiGLESjiihPKv
r5b:__ZN14Texture2DArray13RebuildMipMapEv
OMi:__ZN13Il2CppHashSetIPK17Il2CppGenericInstN6il2cpp8metadata21Il2CppGenericInstHashENS4_24Il2CppGenericInstCompareENSt3__29allocatorI10KeyWrapperIS2_EEEEC2EjRKS5_RKS6_
Sob:__Z18Transfer_BlittableI14SafeBinaryReadLb1EaEvRK29SerializationCommandArgumentsR31RuntimeSerializationCommandInfo
vij:__ZN6il2cpp2gc16GarbageCollector14RemoveWeakLinkEPPv
rna:__ZN9ShaderLab20SerializedSubProgram14AddVectorParamEPKcii15ShaderParamTypei
R2g:_List_1_GetEnumerator_m563931292_gshared
Wyd:_Enumerator__ctor_m3362421874
VQg:__Z117RuntimeInvoker_CSSSize_t3377836552_IntPtr_t_Single_t1397266774_Int32_t2950945753_Single_t1397266774_Int32_t2950945753PFvvEPK10MethodInfoPvPS4_
CJj:_emscripten_glIsFramebuffer__wrapper
vfj:__ZN6il2cpp2vm6Object3BoxEP11Il2CppClassPv
f7i:__ZN6il2cpp2vm6Thread7SetNameEP12Il2CppThreadP12Il2CppString
IGb:__ZN13ScreenManager18SetAllowCursorLockEb
eT:__ZN11UnityEngine15CloudWebService10RestClientINS0_23WebRequestRestHeaderMapEE16SetRequestHeaderERKN4core12basic_stringIcNS4_20StringStorageDefaultIcEEEESA_
Jfb:__ZN30RuntimeInitializeOnLoadManager15ClassMethodInfo8TransferI14SafeBinaryReadEEvRT_
zIe:_ConstructionCall_InitDictionary_m2824447813
BP:__ZL22InitializeModule_Audiov
Imb:__ZN16MemoryFileSystem8IsLockedERK13FileEntryData
O8i:__ZN6il2cpp6icalls8mscorlib6System2IO6MonoIO5WriteEiP11Il2CppArrayiiPi
Fpg:_Mathf_InverseLerp_m4155825980
eHg:__Z92RuntimeInvoker_RuntimeObject_RuntimeObject_RuntimeObject_SByte_t1669577662_SByte_t1669577662PFvvEPK10MethodInfoPvPS4_
Zk:_emscripten_glBindRenderbuffer
A0g:_List_1_System_Collections_IList_Insert_m1011775503_gshared
Ioj:_GC_dirty_init
Qcj:__ZN6il2cpp2vm5Image33GetCachedMemoryMappedResourceFileEP24Il2CppReflectionAssembly
hfj:__ZN6il2cpp2vm5Field14GetValueObjectEP9FieldInfoP12Il2CppObject
UPc:__ZNK2UI6Canvas16GetTargetDisplayEv
Mbg:_TimeSpan_CompareTo_m3633415627_AdjustorThunk
ida:__ZN6Object17FindObjectsOfTypeEPKN5Unity4TypeER13dynamic_arrayIPS_Lj4EEb
JUe:_MaskableGraphic_OnTransformParentChanged_m329502413
UDb:__ZN13MonoBehaviour17RemoveFromManagerEv
mzg:_Vector3_get_Item_m668685504_AdjustorThunk
LSa:__ZN12ImageFilters14AddImageFilterERK11ImageFilter
LGe:_Context_NotifyDynamicSinks_m1841702879
zvi:_GUIUtility_get_pixelsPerPoint_m2369948084
rnf:_WindowsIdentity_System_Runtime_Serialization_IDeserializationCallback_OnDeserialization_m3428853631
pW:__ZN13MemoryManagerC2Ev
HFa:__ZN12SkinMeshInfo10DeallocateEPS_
XXe:_ScrollRect_SetDirty_m214267968
qPa:__ZN20ArchiveStorageReader28AcquireAndPrefillUnusedBlockEjPNS_11CacheResultE
rpd:_Boolean_System_IConvertible_ToDateTime_m603510836
l5b:__Z12NHxRoughnessIA4_tEvP9Texture2DPT_iiii
H3e:_ASN1_get_Value_m1857007406
Cda:__ZN18AsyncUploadManagerD2Ev
kkb:__ZN9Transform5ResetEv
Wyf:_Decimal_op_Explicit_m1842265407
Cvb:__Z22TransferField_NonArrayI24GenerateTypeTreeTransfer16Converter_StringEvRK23StaticTransferFieldInfoR31RuntimeSerializationCommandInfoRT0_
xIi:_CanvasRenderer_SetAlphaTexture_m2009567627
yAc:_UNITY_FT_CMap_New
Wje:_InternalEnumerator_1_get_Current_m4241643334_AdjustorThunk
BGb:__Z17MainLoopKeepalivePv
kqe:_InternalEnumerator_1_get_Current_m1588647567_AdjustorThunk
Luj:_printf_core
Ish:__ZL51GCHandle_t3351438187_CustomAttributesCacheGeneratorP21CustomAttributesCache
HVb:__Z14CalcHullBoundsPK8Vector3fPKhhRK5PlaneRK10Matrix4x4fR10MinMaxAABB
ZOe:_InputField_get_caretBlinkRate_m3620074524
zOb:__Z19SetupLODFadeKeywordR17ShaderPassContexti
njf:_RSAPKCS1SignatureFormatter_CreateSignature_m3191980616
g$a:__ZN10builtintex16GetDefaultTexEnvE16TextureDimensionb
jFa:__ZL25CheckCopyTextureArgumentsRK7ApiGLESP11GLESTextureS3_
pIj:_glDeleteShader__wrapper
$ub:__Z29Transfer_Blittable_ArrayFieldI24GenerateTypeTreeTransferyEvRT_R9ArrayInfoRK23StaticTransferFieldInfo
qJ:__ZN4FMOD7SystemI9playSoundE17FMOD_CHANNELINDEXPNS_5SoundEbPPNS_7ChannelE
CGd:_Int64_GetHashCode_m703091690
DEf:_CultureInfo_set_DateTimeFormat_m1843682751
Sui:_Event_get_commandName_m4275147343
hx:__ZN27AnimationLayerMixerPlayable17LayerMixerProcessEP35AnimationPlayableEvaluationConstantP32AnimationPlayableEvaluationInputP33AnimationPlayableEvaluationOutputM17AnimationPlayableFvS1_S3_S5_EMS_FvS1_S3_S5_ESA_MS_FvS5_S1_S3_S5_ifE
bzf:_Decimal_op_Implicit_m4256234411
RH:__ZN12AudioManager23VirtualRedirectTransferER18StreamedBinaryReadILb0EE
HDg:__Z60RuntimeInvoker_RuntimeObject_RuntimeObject_Int16_t2552820387PFvvEPK10MethodInfoPvPS4_
cMd:_StreamReader__ctor_m3941437302
dkc:__Z57Register_UnityEngine_Transform_INTERNAL_get_localRotationv
XAj:dynCall_viif
ls:__ZN7mecanim4hand8HandPoseC2Ev
VMd:_StringReader_ReadLine_m2337102945
Hsb:__ZL26Transfer_SimpleNativeClassI17RemapPPtrTransfer8GradientLb0EEvRK29SerializationCommandArgumentsR31RuntimeSerializationCommandInfo
Rxd:_SyncHashtable_Add_m3016107307
Uy:__ZN17AnimationPlayable26DisconnectNoTopologyChangeEPS_i
_pd:_Boolean_Equals_m2410333903_AdjustorThunk
d7g:_List_1_System_Collections_IList_Contains_m2131605266_gshared
$T:__ZN13UploadHandlerD2Ev
tzj:dynCall_viiiiiffi
TFi:_Hacker__ctor_m518604791
zc:_emscripten_glBlendFuncSeparate
Afh:_Collection_1_Add_m809543251_gshared
D_:__Z20scripting_string_newPKc
Cic:__Z43Material_CUSTOM_Internal_CreateWithMaterialP12Il2CppObjectS0_
$si:_Parser_IsSingleline_m326238187
Vvd:_CollectionBase_get_Count_m1708965601
Wgd:_HMAC__ctor_m97939284
bhg:_ValueType_DefaultEquals_m2927252100
Vpc:__ZN9JSONWrite12AppendToNodeEPN5Unity9rapidjson12GenericValueINS1_4UTF8IcEE13JSONAllocatorEEPKcRS6_
O3e:_ASN1_ToString_m1340204511
Kdf:_X509Store_get_Certificates_m2149701265
CTh:__ZL144StandaloneInputModule_t2760469101_CustomAttributesCacheGenerator_StandaloneInputModule_t2760469101____allowActivationOnMobileDevice_PropertyInfoP21CustomAttributesCache
T6f:_StringBuilder_set_Chars_m3548656617
QVi:__ZN6il2cpp2os4File17GetFileAttributesERKNSt3__212basic_stringIcNS2_11char_traitsIcEENS2_9allocatorIcEEEEPi
_B:__ZNSt3__26__sortIRPFbPKN8Animator11AnimatorJobES4_EPS4_EEvT0_S9_T_
WG:__ZN17AudioCustomFilterD2Ev
HXg:__Z56RuntimeInvoker_Void_t1185182177_MonoResource_t4103430009PFvvEPK10MethodInfoPvPS4_
Bmj:_GC_unpromote_black_lists
ADa:__ZN18GfxFramebufferGLES18ReleaseFramebufferEP17RenderSurfaceBaseP14GfxContextGLES
gtc:__Z18Transfer_BlittableI8JSONReadLb1EiEvRK29SerializationCommandArgumentsR31RuntimeSerializationCommandInfo
oV:__ZN19CloudServiceHandler34HandleSaveFileWebRequestPlayerLoopEv
Gy:__ZN7mecanim21ValueArrayReverseCopyEPKNS_18ValueArrayConstantEPKNS_10ValueArrayES2_PS3_PKi
EG:__Z31GetParentSampleClipFromInstancePN11SoundHandle8InstanceE
L3b:__ZNK28RectTransformPropertyBinding13GetFloatValueERKN11UnityEngine9Animation10BoundCurveE
UXb:__ZN6Camera22StandaloneCustomRenderENS_10RenderFlagEP6ShaderRKN4core12basic_stringIcNS3_20StringStorageDefaultIcEEEEPNS_21PerformRenderFunctionE
cMf:_Array_InternalArray__IndexOf_TisKeyValuePair_2_t2401056908_m4118889689_gshared
$eb:__ZNSt3__26vectorI4PPtrI6ObjectE13stl_allocatorIS3_L18MemLabelIdentifier52ELi16EEE6assignINS_11__wrap_iterIPS3_EEEENS_9enable_ifIXaasr21__is_forward_iteratorIT_EE5valuesr16is_constructibleIS3_NS_15iterator_traitsISD_E9referenceEEE5valueEvE4typeESD_SD_
ytj:__ZN6il2cpp2os16ThreadLocalValue8GetValueEPPv
Ncf:_X509Certificate2_get_PublicKey_m370665820
Lxc:_cff_slot_init
fRi:__ZN6il2cpp2vm13MetadataCache14GetGenericInstEPKPK10Il2CppTypej
EP:__ZN13AudioListener17ReadExtensionNameEi
Lb:invoke_iiidii
cp:setThrew
c5b:__ZL21BuildEmptyCubeTexturePKci11ColorRGBA3217TextureColorSpace
Xha:__ZN14SafeBinaryRead21TransferSTLStyleArrayINSt3__26vectorIN9ShaderLab20SerializedSubProgramENS1_9allocatorIS4_EEEEEEvRT_17TransferMetaFlags
BMf:_Array_InternalArray__IndexOf_TisX509ChainStatus_t133602714_m48896230_gshared
VNa:__ZN19dynamic_block_arrayI13FileEntryInfoLj32EE4growEj
ptc:__Z15Transfer_StringI8JSONReadLb1EEvRK29SerializationCommandArgumentsR31RuntimeSerializationCommandInfo
wci:_Comparison_1_BeginInvoke_m816899747_gshared
jAa:__ZN6prcoreL17RemapGenericFloatI17TexFormatRGBFloat15TexFormatRGHalfEEvPKNS_9InnerInfoE
SCc:_sfnt_load_face
mKc:_UNITY_FT_Render_Glyph_Internal
G9i:__ZNSt3__212basic_stringIDsNS_11char_traitsIDsEENS_9allocatorIDsEEE21__grow_by_and_replaceEjjjjjjPKDs
SAc:_UNITY_ft_service_list_lookup
Xmc:__ZN5IMGUI21SelectReceivingWindowER8GUIStateb
khd:_HMAC_Initialize_m3157696427
Nvj:___strchrnul
QV:__ZN13BaseAllocator13TryDeallocateEPv
Gbf:_X509SubjectKeyIdentifierExtension__ctor_m2055934916
VTa:__ZNSt3__26vectorIN12FlareManager10FlareEntryENS_9allocatorIS2_EEE21__push_back_slow_pathIKS2_EEvRT_
Huj:_sprintf
Fdc:__ZN9Scripting25CreateNullExceptionObjectE18ScriptingObjectPtr
R5e:_PrivateKeyInfo_DecodeRSA_m2889346634
yH:__ZN13AudioListener17RemoveFromManagerEv
td:_glAttachShader
j6c:_ContentSizeFitter_SetLayoutHorizontal_m2833273874
hY:__ZNK6Camera19GetProjectionMatrixEv
OVh:__ZL70InputField_t3762917431_CustomAttributesCacheGenerator_m_SelectionColorP21CustomAttributesCache
zPe:_InputField_SetToCustomIfContentTypeIsNot_m2813459946
sKh:__ZL70RuntimePlatform_t4159857903_CustomAttributesCacheGenerator_FlashPlayerP21CustomAttributesCache
vGf:_Guid_GetHashCode_m3042133858_AdjustorThunk
c_:__Z38PreallocateObjectFromPersistentManagerib
Fgf:_Interpreter_Backtrack_m2828876822
M2a:__ZNK9Texture2D20GetUnscaledTextureIDEv
wed:_SByte_System_IConvertible_ToType_m4075253447
GGj:_glFenceSync__wrapper
kyg:_Transform_INTERNAL_get_worldToLocalMatrix_m2730237241
PQe:_InputField_IsValidChar_m1928072643
R2a:__ZNK9Texture2D26CanReuploadDataToGfxDeviceEv
jxh:__ZL63CodeAccessPermission_t2681295399_CustomAttributesCacheGeneratorP21CustomAttributesCache
Xgb:__Z29ClearRepeatingLogMessageStatev
xoe:_InternalEnumerator_1_get_Current_m3191242573_gshared
ard:_Byte_Equals_m1161982810_AdjustorThunk
Efe:_SslCipherSuite_ComputeMasterSecret_m3963626850
EJa:__ZN7ApiGLESD2Ev
aRa:__ZN9Transform47ClearTransformHierarchyAndApplyToSerializedDataEv
Euc:__ZN8JSONRead21TransferSTLStyleArrayINSt3__26vectorI8MonoPPtr13stl_allocatorIS3_L18MemLabelIdentifier1ELi16EEEEEEvRT_17TransferMetaFlags
kSa:__ZN6Camera23VirtualRedirectTransferER19StreamedBinaryWriteILb0EE
mBj:dynCall_fidi
WYi:__ZN15dense_hashtableINSt3__24pairIK10KeyWrapperINS1_IPK9FieldInfoP11Il2CppClassEEEjEES9_17ReflectionMapHashIS8_EN14dense_hash_mapIS9_jSD_NS9_14EqualsComparerINS0_8equal_toIS8_EEEENS0_9allocatorISB_EEE9SelectKeyESI_SK_E12resize_deltaEjj
Kvi:_GUILayoutEntry__ctor_m2229197035
m4:__ZN15dense_hashtableINSt3__24pairIKN9ShaderLab7Program23ShaderKeywordSetAndHashEPKNS2_10SubProgramEEES4_NS3_24ShaderKeywordHashFunctorEN14dense_hash_mapIS4_S8_SA_NS0_8equal_toIS4_EE13stl_allocatorIS9_L18MemLabelIdentifier67ELi16EEE9SelectKeyESD_SG_E15insert_noresizeERKS9_
Ddc:__ZNK13MonoBehaviour13GetScriptTypeEv
hZa:__ZN13RenderTexture12SetDimensionE16TextureDimension
r4e:_DSAManaged_add_KeyGenerated_m2286864968
je:_SDL_FreeRW
iRc:__Z34CanvasRenderer_Get_Custom_PropCullP12Il2CppObject
kN:__ZN20SoundChannelInstance8getDelayE14FMOD_DELAYTYPEPjS1_
D4:__ZNSt3__26vectorIN20GpuProgramParameters15StructParameterENS_9allocatorIS2_EEEC2ERKS5_
$he:_ArrayReadOnlyList_1_Contains_m232667507_gshared
wJg:__Z77RuntimeInvoker_Boolean_t97287965_IntPtr_t_Int32_t2950945753_SByte_t1669577662PFvvEPK10MethodInfoPvPS4_
jsg:_PlayableHandle_GetPlayableType_m432385838_AdjustorThunk
bJc:__ZNSt3__26vectorIN20TextRenderingPrivate8FontImpl13CharacterInfoE13stl_allocatorIS3_L18MemLabelIdentifier1ELi16EEE8__appendEj
v:tempBigInt
lQf:_Array_InternalArray__Insert_TisKeyframe_t4206410242_m1558638568_gshared
re:_emscripten_glVertexAttrib1fv
Eia:__ZNSt3__26vectorIN9ShaderLab20SerializedSubProgram12UAVParameterENS_9allocatorIS3_EEE7reserveEj
oyj:__ZSt11__terminatePFvvE
QJ:__ZN12AudioManager14systemCallbackEP11FMOD_SYSTEM24FMOD_SYSTEM_CALLBACKTYPEPvS3_
Edi:_Nullable_1_Equals_m4046255732_gshared
c9h:_ReadOnlyCollection_1_System_Collections_Generic_ICollectionU3CTU3E_Clear_m3451551308_gshared
W3c:_BaseMeshEffect_OnEnable_m3291426649
xF:__ZN10SampleClip23VirtualRedirectTransferER24GenerateTypeTreeTransfer
tYa:__ZN16ReflectionProbes16UpdateSampleDataEv
LEf:_CultureInfo_GetCultureInfo_m56098747
XUb:__Z20AddActiveLocalLightsR11CullResultsR27LocalLightCullingParametersPPK15SharedLightDataPK8Vector4fRK9IndexListPfRSA_R12ActiveLightsSG_P5RectTIfEP13TargetEyeMask
Boh:__ZL80Hashtable_t1853889766_CustomAttributesCacheGenerator_Hashtable__ctor_m1763145853P21CustomAttributesCache
jAd:_Convert_ToDecimal_m1284148187
qhh:_Collection_1__ctor_m3489157029_gshared
iEj:_emscripten_glRenderbufferStorage__wrapper
gXi:__ZNK6il2cpp2vm14TypeNameParser10NextWillBeEcb
myc:_cf2_getNormalizedVector
Oe:_JS_Sound_Play
$9h:_ReadOnlyCollection_1_System_Collections_IList_set_Item_m1538987737_gshared
jha:__ZN9ShaderLab16SerializedShader8TransferI14SafeBinaryReadEEvRT_
jbd:_GridLayoutGroup_set_constraint_m3308895167
SIe:_ConstructionCallDictionary_SetMethodProperty_m3145285304
uFd:_Int32_System_IConvertible_ToUInt32_m3557270157
rMg:__Z243RuntimeInvoker_Void_t1185182177_Int16_t2552820387_RuntimeObject_Int32_t2950945753_Int32_t2950945753_Int32_t2950945753_SByte_t1669577662_SByte_t1669577662_SByte_t1669577662_SByte_t1669577662_Int16_t2552820387_SByte_t1669577662_SByte_t1669577662PFvvEPK10MethodInfoPvPS4_
Uie:_InternalEnumerator_1_System_Collections_IEnumerator_get_Current_m1503522504_gshared
sB:__ZN7mecanim8skeleton13SkeletonAlignEPKNS0_8SkeletonERKN4math7_float4ES7_i
W5b:__ZN19ShaderPropertySheet16SetVectorIndexedEN9ShaderLab16FastPropertyNameEifRK8Vector4fNS_8SetFlagsE
Ecg:_Type_get_IsAbstract_m1120089130
szg:_Vector3_get_normalized_m2454957984_AdjustorThunk
yui:_UriFormatException__ctor_m1115096473
e5i:__ZN15dense_hashtableINSt3__24pairIK10KeyWrapperINS1_IP11Il2CppClassjEEES4_EES6_N6il2cpp8metadata14ArrayClassHashEN14dense_hash_mapIS6_S4_SB_NS6_14EqualsComparerINSA_17ArrayClassCompareEEENS0_9allocatorIS8_EEE9SelectKeyESF_SH_E9copy_fromERKSK_j
txi:_GUIUtility_IsExitGUIException_m3644066650
XU:__ZN11UnityEngine15CloudWebService14DataDispatcher4StopEv
Y5c:_ColorBlock_GetHashCode_m4264192507
jDd:_Int16_System_IConvertible_ToUInt64_m134975563
Gia:__ZNSt3__26vectorIN9ShaderLab20SerializedSubProgram12UAVParameterENS_9allocatorIS3_EEE8__appendEj
Pmc:__ZN5IMGUI9GUIWindow5OnGUIER8GUIState
wof:_Single_System_IConvertible_ToDecimal_m325860800_AdjustorThunk
YOf:_Array_InternalArray__ICollection_CopyTo_TisSingle_t1397266774_m455540885_gshared
RMa:__ZN17ScriptingGCHandle7AcquireE18ScriptingObjectPtr25ScriptingGCHandleWeakness
KLg:__Z74RuntimeInvoker_RuntimeObject_RuntimeObject_Int64_t3736567304_RuntimeObjectPFvvEPK10MethodInfoPvPS4_
cPc:__ZN2UI14CanvasRenderer14AttachToCanvasER8JobFencePNS_6CanvasENS0_15InstructionTypeE
iAj:dynCall_iifiii
jya:__Z21HasAlphaTextureFormat13TextureFormat
VO:__ZN12AudioManager6UpdateEv
cya:__ZN14ImageReference9BlitImageERKS_NS_8BlitModeE
Vs:__ZN8Animator12AddToManagerEv
Bef:_X509Chain__ctor_m2674663382
d9h:_ReadOnlyCollection_1_System_Collections_Generic_IListU3CTU3E_Insert_m1121807192_gshared
OEb:__ZN23CachedSerializationDataD2Ev
UWb:__ZNK25CameraStackRenderingState31CalculateStereoCameraTargetTypeEv
VXa:__ZN14RenderSettings23VirtualRedirectTransferER14SafeBinaryRead
vre:_InternalEnumerator_1_get_Current_m114240259_gshared
whj:__ZN6il2cpp2os10ThreadImpl15CurrentThreadIdEv
vQf:_Array_InternalArray__Insert_TisVector2_t2156229523_m2148694950_gshared
Okf:_SymmetricAlgorithm_get_Key_m3241860519
TRe:_U3CMouseDragOutsideRectU3Ec__Iterator1_Reset_m2233410497
jPe:_InputField_set_customCaretColor_m720445789
MGc:_UNITY_tt_face_load_fpgm
WQa:__Z17IsObjectAvailablei
dcb:__ZN12InputManagerD0Ev
Aah:_Queue_1_Peek_m1713833142_gshared
p9f:_ExecutionContext_Capture_m681135907
kke:_InternalEnumerator_1_System_Collections_IEnumerator_get_Current_m2889979481_AdjustorThunk
ixj:_posix_memalign
L3e:_ASN1_GetBytes_m3305539297
g_:__ZNK15MonoScriptCache7ReleaseEv
CLi:__ZN6il2cpp2vm5Class13HasReferencesEP11Il2CppClass
bg:_glBindTexture
yvj:_snprintf
sSg:__Z50RuntimeInvoker_RuntimeObject_Resources_t1597885468PFvvEPK10MethodInfoPvPS4_
yFj:_emscripten_glVertexAttrib1fv__wrapper
vib:__Z36scripting_liveness_calculation_begin17ScriptingClassPtriPFvPP12Il2CppObjectiPvES3_PFvvES7_
GAi:_AudioExtensionManager_RemoveExtensionFromManager_m442924172
YDj:_emscripten_glGetProgramInfoLog__wrapper
UD:__ZN25AnimatedPropertyEvaluator29BindCurveToScriptingObjectPtrERKN13AnimationClip10FloatCurveEj18ScriptingObjectPtrb
d0:__ZN17PersistentManager23DestroyFromFileInternalEi
Jlg:_Display__ctor_m501911701
N5h:_ReadOnlyCollection_1_System_Collections_Generic_IListU3CTU3E_Insert_m1020890112_gshared
h7c:_DefaultControls_SetDefaultTextValues_m1943359795
dQb:__Z19SetupMotionMatricesR6CameraR18RPDataMotionVector
hKi:__ZL7log2_64y
OC:__ZN26AnimatorControllerPlayable18PrepareForPlaybackERN7mecanim6memory9AllocatorE
kD:__ZN8Animator11AnimatorJob11AddPlayableEP17AnimationPlayablef
ebd:_GridLayoutGroup_get_cellSize_m2967185053
Xsf:_CurrentSystemTimeZone_GetUtcOffset_m340358963
Jli:_PKCS12_Decrypt_m1280162536
tke:_InternalEnumerator_1_get_Current_m3081223448_gshared
avi:_Event_get_isMouse_m1058251071
DWa:__ZN10VertexDataC2ERKS_17ShaderChannelMask10MemLabelId
Bvd:_CaseInsensitiveHashCodeProvider_AreEqual_m1790260777
tBc:_otv_JSTF_validate
G4:__ZN22CreateGpuProgramOutputC2Ev
Umg:_PersistentCallGroup_Initialize_m4253175514
qpd:_Boolean_System_IConvertible_ToChar_m4279513009_AdjustorThunk
Awd:_Hashtable__ctor_m1763145853
bJe:_LogicalCallContext__ctor_m1263247987
yEd:_NumberFormatter_ScaleOrder_m3813786990
S5e:_PrivateKeyInfo_DecodeDSA_m771724585
n_i:__ZNK15dense_hashtableINSt3__24pairIK10KeyWrapperINS1_IPK10MethodInfoP11Il2CppClassEEEjEES9_17ReflectionMapHashIS8_EN14dense_hash_mapIS9_jSD_NS9_14EqualsComparerINS0_8equal_toIS8_EEEENS0_9allocatorISB_EEE9SelectKeyESI_SK_E23find_position_with_hashERSA_j
Q6b:__ZN8GUILayer12CleanupClassEv
kfg:_UInt32_System_IConvertible_ToSByte_m1061556466
SFe:_WellKnownClientTypeEntry__ctor_m2471908952
BLi:__ZN6il2cpp2vm5Class4InitEP11Il2CppClass
ga:invoke_vidi
v$a:__ZN8Material17MainThreadCleanupEv
WDe:_RemotingServices_CreateClientProxyForContextBound_m783705199
dbc:__ZNK15GUIEventManager15GetEventAtIndexEi
tPc:__ZN2UI14CanvasRenderer17SyncDirtyElementsER8JobFence
Dwe:_Enumerator_System_Collections_IEnumerator_get_Current_m3816090481_gshared
Akj:__ZN6il2cpp5utils11StringUtils15StringDuplicateEPKc
xVf:_DefaultComparer_Equals_m2480133610_gshared
X3:__ZNK9ShaderLab21ShaderRasterStateDesc16ToGfxRasterStateEPK19ShaderPropertySheetS3_R14GfxRasterState
q0h:_Array_Sort_TisVector3_t3722313464_m1915176437_gshared
Ftj:__ZN6il2cpp2os9EventImplC2Ebb
d4g:_List_1_get_Item_m2113769949_gshared
aUa:__ZN12FlareManager12RemoveCameraER6Camera
W4:__Z20IsMatrixBuiltinParamPKcPi
fmf:_String_memcpy4_m979367827
t7f:_UnicodeEncoding_GetBytesInternal_m1902824297
D5b:__ZN8Renderer19PostInitializeClassEv
zLf:_Array_FindIndex_TisRuntimeObject_m2504082708_gshared
Ani:_X509Chain_FindCertificateRoot_m1937726457
Upj:__ZN6il2cpp6icalls8mscorlib6System8Delegate23CreateDelegate_internalEP20Il2CppReflectionTypeP12Il2CppObjectP22Il2CppReflectionMethodb
Exe:_Enumerator_System_Collections_IEnumerator_get_Current_m921113401_AdjustorThunk
ZVb:__ZNK13RendererScene22GetStaticBoundingBoxesEv
gEb:__ZN18DelayedCallManager18CancelCallDelayed2E4PPtrI6ObjectEPF15CallObjectStatePS1_PvES7_
Ipg:_Matrix4x4_GetHashCode_m4034747639
GKa:__ZN25ThreadsafeLinearAllocator10ReallocateEPvji
hob:__Z18Transfer_BlittableI14SafeBinaryReadLb1E11QuaternionfEvRK29SerializationCommandArgumentsR31RuntimeSerializationCommandInfo
Dga:__ZN18SpriteAtlasManagerD0Ev
$9a:__ZN10Matrix4x4f8TransferI14SafeBinaryReadEEvRT_
wfd:_CryptographicUnexpectedOperationException__ctor_m2381988196
E1i:__ZN14dense_hash_mapI10KeyWrapperIPK22Il2CppGenericParameterEPK24MonoGenericParameterInfoN6il2cpp5utils11PointerHashIS2_EENS4_14EqualsComparerINSt3__28equal_toIS3_EEEENSD_9allocatorINSD_4pairIKS4_S7_EEEEE15set_deleted_keyERSJ_
IC:__ZN14AvatarPlayback8StopTimeEv
Yme:_InternalEnumerator_1_System_Collections_IEnumerator_get_Current_m4213507601_gshared
gba:__Z6AppendRKN4core12basic_stringIcNS_20StringStorageDefaultIcEEEEPKc
mxi:_GUIUtility_RemoveCapture_m1294193818
dua:__ZN7ApiGLES18ClearBufferSubDataEjN2gl12BufferTargetEll
hfc:__Z37Camera_Get_Custom_PropAllCamerasCountv
w8a:__ZN14Texture2DArray8TransferI18StreamedBinaryReadILb0EEEEvRT_
eUb:__Z18ApplyOcclusionMaskR19ProbeOcclusionCacheRK17LightProbeContextRK10RenderNodeb
nIc:_Split_Cubic
cb:invoke_fiiii
qRe:_InputField_OnSubmit_m3583210804
Lti:_Uri_CheckHostName_m2213216182
vFj:_emscripten_glBindRenderbuffer__wrapper
V1h:_Mesh_SetUvsImpl_TisVector2_t2156229523_m3009194955_gshared
ahg:_ValueType_InternalEquals_m1384040357
s0h:_Array_Sort_TisVector4_t3319028937_TisVector4_t3319028937_m4254533673_gshared
Mtd:_ArrayListWrapper_Contains_m2641184447
$Hc:_ft_black_render
TIg:__Z177RuntimeInvoker_Int32_t2950945753_RuntimeObject_Int32_t2950945753_Int32_t2950945753_RuntimeObject_Int32_t2950945753_EncoderFallbackBufferU26_t2343550713_CharU5BU5DU26_t3299466565PFvvEPK10MethodInfoPvPS4_
sBj:dynCall_viiifi
NCa:__ZN18GfxFramebufferGLES20ActiveContextChangedEPP17RenderSurfaceBaseS2_
ECa:__Z19PluginsRenderMarkeri
BE:__ZN10HumanTrait18InitializeBoneNameEv
Nia:__ZNSt3__26vectorIN9ShaderLab20SerializedSubProgram15StructParameterENS_9allocatorIS3_EEE6assignINS_11__wrap_iterIPS3_EEEENS_9enable_ifIXaasr21__is_forward_iteratorIT_EE5valuesr16is_constructibleIS3_NS_15iterator_traitsISC_E9referenceEEE5valueEvE4typeESC_SC_
Vcj:__ZNSt3__214__split_bufferIN6il2cpp2vm5Image20EmbeddedResourceDataERNS_9allocatorIS4_EEEC2EjjS7_
cH:__ZN12AudioManager17RemoveAudioSourceEP11AudioSource
Ldf:_X509Certificate2Collection_Add_m3151757943
gve:_Comparer_1__cctor_m951016718_gshared
Fvd:_CaseInsensitiveHashCodeProvider_get_DefaultInvariant_m4264275163
jJg:__Z195RuntimeInvoker_Int32_t2950945753_RuntimeObject_Int32_t2950945753_Int32_t2950945753_Int32_t2950945753_RuntimeObject_DecoderFallbackBufferU26_t3866396827_ByteU5BU5DU26_t4057885439_SByte_t1669577662PFvvEPK10MethodInfoPvPS4_
LQ:__ZN5physx14PxLightCpuTask12addReferenceEv
lWa:__ZNK15InstancingProps35FillInstanceBufferDispatchConstantsIN10Instancing14RenderLoopArgsEEEvPPvjjRK19ShaderPropertySheetRKT_
lWg:__Z86RuntimeInvoker_Int32_t2950945753_Color32_t2600501292_Color32_t2600501292_RuntimeObjectPFvvEPK10MethodInfoPvPS4_
_4a:__ZN21EnlightenSceneMapping8TransferI19StreamedBinaryWriteILb0EEEEvRT_
Iej:__ZN6il2cpp2gc16GarbageCollector19InitializeFinalizerEv
Iy:__ZN7mecanim8skeleton18CreateSkeletonMaskEjPKNS0_19SkeletonMaskElementERNS_6memory9AllocatorE
umc:__ZN10GUIManager10DoGUIEventER10InputEventb
$tb:__Z35Transfer_Blittable_FixedBufferFieldI24GenerateTypeTreeTransferxEvRK29SerializationCommandArgumentsR31RuntimeSerializationCommandInfo
hCc:_otv_LangSys_validate
Aug:_RectOffset_get_right_m2294081512
KQf:_Array_InternalArray__set_Item_TisLink_t544317964_m1234244240_gshared
SGc:_UNITY_TT_Init_Glyph_Loading
ePb:__Z20CalculateSqrDistanceRK8Vector3fRK4AABB
bdd:_SerializationInfo_GetBoolean_m1756153320
BL:__Z32AudioMixerDuckingProcessCallbackP21UnityAudioEffectStatePfS1_jii
lqg:_Mesh_get_uv2_m3615020997
H4b:__ZN26CustomRenderTextureManagerD2Ev
jhc:__Z32Input_Get_Custom_PropInputStringv
xWf:_EqualityComparer_1_System_Collections_IEqualityComparer_Equals_m4172006498_gshared
WH:__ZN12AudioManager8TransferI24GenerateTypeTreeTransferEEvRT_
upg:_Mathf_Round_m4098141538
hxa:__Z25GetBytesFromTextureFormat13TextureFormat
j8i:__ZN6il2cpp6icalls8mscorlib6System9Threading6Thread20Thread_free_internalEP12Il2CppThreadi
vzj:dynCall_iiffi
E8e:__KeysEnumerator_get_Current_m2996478063
ND:__ZN16MecanimAnimation25RegisterIAnimationBindingEPKN5Unity4TypeEiP17IAnimationBinding
V$:__Z32scripting_class_get_assemblyname17ScriptingClassPtr
oTc:__ZN11UnityEngine15PlatformWrapper15GetVRDeviceNameEv
eSg:__Z99RuntimeInvoker_Boolean_t97287965_Int32_t2950945753_PointerEventDataU26_t867828220_SByte_t1669577662PFvvEPK10MethodInfoPvPS4_
Ele:_InternalEnumerator_1_get_Current_m2128158355_AdjustorThunk
IIa:__ZN9GfxDevice21RegisterNativeTextureE9TextureIDi16TextureDimension
R9c:_GraphicRegistry__ctor_m1851575309
irj:__ZN6il2cpp6icalls8mscorlib6System10Reflection4Emit11TypeBuilder20create_generic_classEP27Il2CppReflectionTypeBuilder
Bjf:_SHA1Internal_FillBuff_m3615718415
mJf:_PlayableHandle_IsPlayableOfType_TisAnimationLayerMixerPlayable_t3631223897_m201603007_gshared
oQ:__Z60Register_UnityEngine_AudioListener_GetNumExtensionPropertiesv
Wi:_emscripten_glUniformMatrix4fv
t5i:__ZN15dense_hashtableINSt3__24pairIK10KeyWrapperINS1_IP11Il2CppClassjEEES4_EES6_N6il2cpp8metadata14ArrayClassHashEN14dense_hash_mapIS6_S4_SB_NS6_14EqualsComparerINSA_17ArrayClassCompareEEENS0_9allocatorIS8_EEE9SelectKeyESF_SH_E13set_empty_keyERKS8_
ajb:__ZN12ScriptMapperD2Ev
iJj:b100
oqg:_Mesh_get_colors32_m1253190811
jnj:_GC_stopped_mark
Shg:_AnimationCurve_Finalize_m2397002729
u$e:_Text_OnEnable_m616205807
o0g:__Z50RuntimeInvoker_RuntimeObject_ColorTween_t809614380PFvvEPK10MethodInfoPvPS4_
jOe:_SerializationCallbacks__cctor_m1674315180
xjc:__Z52Register_UnityEngine_RenderTexture_Internal_GetWidthv
doj:_GC_check_leaked
Nla:__ZN9ShaderLab20SerializedSubProgram16TextureParameter8TransferI19StreamedBinaryWriteILb0EEEEvRT_
jKa:__ZNK7Hash12812PackToUInt32Ev
Nud:_SynchronizedArrayListWrapper_IndexOf_m3642674350
I1:__ZNSt3__227__insertion_sort_incompleteIRNS_6__lessI14ObjectLoadDataS2_EEPS2_EEbT0_S6_T_
dV:__ZN11UnityEngine15CloudWebService16SessionContainer8AddEventEPNS0_14CloudEventInfoE
xHa:__Z4TrimRKN4core12basic_stringIcNS_20StringStorageDefaultIcEEEES5_
m1h:_Dictionary_2_Do_ICollectionCopyTo_TisKeyValuePair_2_t3842366416_m1399105608_gshared
Xcf:_X509Certificate2_Import_m4026562329
EGj:_glGetStringi__wrapper
W6a:__ZN10VertexData8TransferI14SafeBinaryReadEEvRT_
kJ:__ZN4FMOD8ChannelI8setDelayE14FMOD_DELAYTYPEjj
Zoj:_GC_malloc_atomic
o5d:_ActivatedClientTypeEntry_ToString_m2494181680
u_f:_HashSet_1_GetEnumerator_m3346268098_gshared
Hrj:__ZN6il2cpp5utils6Memory13AlignedMallocEjj
wRe:_Selectable_get_animator_m2899312855
YY:__ZL20SortItemByInstanceIDRKN18AwakeFromLoadQueue4ItemES2_
_yg:_Vector2_op_Multiply_m2347887432
W8e:_TypeConverterAttribute__ctor_m1774069684
Ty:__ZNK34AnimationStateMachineMixerPlayable26GetInterruptedPosePlayableEv
UVc:__ZN20UnityConnectSettings8TransferI24GenerateTypeTreeTransferEEvRT_
VA:__ZN34BlobWriteTransferSTLStyleArrayImplI22OffsetPtrArrayTransferIbEEclERS1_17TransferMetaFlagsR9BlobWrite
ekd:_Byte_ToString_m4063101981
UPd:_MonoType_GetConstructors_m2574682189
G9e:_ServicePointManager_FindServicePoint_m4119451290
Mca:__ZL31InitializeRendererUpdateManagerPv
ZUd:_ParameterInfo__ctor_m2779026345
qPe:_InputField_set_onValueChange_m1251390545
eQc:__ZN2UI13CanvasManager14GetRenderOrderEPKNS_6CanvasE
mRd:_NumberFormatter_get_IsZeroInteger_m2263284741
Wji:_X509Certificate_PEM_m2020851166
IPf:_Array_InternalArray__Insert_TisDateTime_t3738529785_m2308632330_gshared
yif:_RNGCryptoServiceProvider_RngGetBytes_m1695806698
aee:_TlsServerCertificateRequest_ProcessAsTls1_m3214041063
DCc:_compare_uni_maps
bUc:__ZN11UnityEngine15PlatformWrapper27GetGraphicsCapsSupportFlagsEv
Cxb:__ZN12NativeBufferI16Converter_StringE15SetupForWritingER9ArrayInfo
Wfa:__ZN13RuntimeStaticI18AssetBundleManagerLb1EE16StaticInitializeEPv
$Cj:___cxa_end_catch__wrapper
Bsd:_Char_ToString_m278452217
$Ag:__Z32RuntimeInvoker_Boolean_t97287965PFvvEPK10MethodInfoPvPS4_
v6d:_BigInteger_op_RightShift_m460065452
REb:__ZN13MonoBehaviour22DoScriptRebuildWarningEv
jfc:__Z38Camera_CUSTOM_INTERNAL_CALL_RaycastTryP12Il2CppObjectRK3Rayfi
AMc:__Z38TextGenerator_Get_Custom_PropLineCountP12Il2CppObject
Cji:_InternalAsyncResult_SetComplete_m963842420
O5f:_Encoding_GetEncoding_m2801244948
wnc:__ZN11IMGUIModule25GetGUIStyleScriptingClassEv
fFc:_tt_get_interface
Sge:_SslStreamBase_EndRead_m495357226
W7i:__ZN6il2cpp5utils9PathUtils7CombineIcEENSt3__212basic_stringIT_NS3_11char_traitsIS5_EENS3_9allocatorIS5_EEEERKSA_SC_
etc:__ZN9JSONWrite8TransferI13dynamic_arrayIiLj4EEEEvRT_PKc17TransferMetaFlags
CLg:__Z64RuntimeInvoker_RuntimeObject_SByte_t1669577662_SByte_t1669577662PFvvEPK10MethodInfoPvPS4_
Q8b:__ZN13PlayableGraph21InvalidateMultithreadEv
i0f:_Enumerator_System_Collections_IEnumerator_get_Current_m713684915_AdjustorThunk
VYf:_GenericComparer_1_Compare_m459680062_gshared
CWd:_EnumBuilder_GetConstructorImpl_m3068576149
G_:__Z18ConvertUTF16toUTF8PPKtS0_PPhS2_15ConversionFlags
Sij:__ZN6il2cpp2os20PathErrnoToErrorCodeERKNSt3__212basic_stringIcNS1_11char_traitsIcEENS1_9allocatorIcEEEEi
EVh:__ZL68InputField_t3762917431_CustomAttributesCacheGenerator_m_KeyboardTypeP21CustomAttributesCache
WJi:__ZL16my_g_bit_nth_msfj
OBh:__ZL65NonSerializedAttribute_t2945079482_CustomAttributesCacheGeneratorP21CustomAttributesCache
X9g:_Enumerator_MoveNext_m3662315381_AdjustorThunk
Kde:_TlsClientFinished_ProcessAsTls1_m2429863130
qNb:__Z23SetupStereoFlareElementP11FlareVertexRK8Vector2fS3_S3_RK11ColorRGBA32RK10Matrix4x4fRK8Vector3fb
sa:invoke_iiiifiiii
wPe:_InputField_EnforceContentType_m2436948794
erf:_String_Join_m2050845953
Aye:_ShimEnumerator_MoveNext_m2406150314_gshared
GDa:__ZL19BlitFramebufferImplRN4gles23BlitFramebufferDrawQuadER9GfxDevice9TextureIDRK8Vector4f
xZi:__ZN15dense_hashtableINSt3__24pairIK10KeyWrapperIPK10Il2CppTypeEjEES6_N6il2cpp8metadata14Il2CppTypeHashEN14dense_hash_mapIS6_jSB_NS6_14EqualsComparerINSA_26Il2CppTypeEqualityComparerEEENS0_9allocatorIS8_EEE9SelectKeyESF_SH_E4findERS7_
fAj:dynCall_viiiiiiiiiiiiii
wGc:_UNITY_FT_List_Add
f5b:__ZN14Texture2DArray11InitTextureEiii13TextureFormatb
Vki:_X509Extension__ctor_m1474351312
Hfi:_InvokableCall_1_Invoke_m1524307439_gshared
jId:_Directory_CreateDirectoriesInternal_m3735342319
GTe:_LayoutUtility_GetLayoutProperty_m3731360667
t2i:__ZN15dense_hashtableINSt3__24pairIK10KeyWrapperINS1_IPK11Il2CppImageP11Il2CppClassEEEjEES9_17ReflectionMapHashIS8_EN14dense_hash_mapIS9_jSD_NS9_14EqualsComparerINS0_8equal_toIS8_EEEENS0_9allocatorISB_EEE9SelectKeyESI_SK_E14squash_deletedEv
Dkf:_SHAConstants__cctor_m1699027474
_X:__ZNK6Camera26GetStereoSingleCullEnabledEv
Ufb:__Z14resize_trimmedINSt3__26vectorIN4core12basic_stringIcNS2_20StringStorageDefaultIcEEEE13stl_allocatorIS6_L18MemLabelIdentifier13ELi16EEEEEvRT_j
Rob:__Z18Transfer_BlittableI14SafeBinaryReadLb0EaEvRK29SerializationCommandArgumentsR31RuntimeSerializationCommandInfo
Fsd:_CharEnumerator_System_Collections_IEnumerator_get_Current_m1328529384
lCj:_emscripten_glFrustum__wrapper
fJi:_AnimationLayerMixerPlayable__ctor_m860721801
aHc:_UNITY_FT_List_Iterate
_rd:_Char_System_IConvertible_ToUInt64_m3536560782
OVf:_EqualityComparer_1__cctor_m3452395357_gshared
fIc:_Render_Single_Pass
XLb:__Z20SyncFenceCullResultsR11CullResults
jGa:__ZN15TextureTFMethod20IsBoneCountSupportedEi
gBf:_Double_ToString_m3828879243_AdjustorThunk
ktb:__Z22TransferField_NonArrayI17RemapPPtrTransfer27Converter_SimpleNativeClassI8GUIStyleEEvRK23StaticTransferFieldInfoR31RuntimeSerializationCommandInfoRT0_
sNd:_TextReader_Synchronized_m3004980758
U0b:__ZNK17AnimationCurveTplIfE20EvaluateWithoutCacheEfRf
nQg:__Z67RuntimeInvoker_Boolean_t97287965_Rect_t2360479859_SByte_t1669577662PFvvEPK10MethodInfoPvPS4_
lYa:__ZN19ShaderPropertySheet10SetTextureERK23FastTexturePropertyNameP7Texture
XTd:_CustomAttributeData__ctor_m2966233049
_4c:_CanvasUpdateRegistry_PerformUpdate_m1793997159
_ce:_Context_set_ClientWriteIV_m3405909624
Gac:__ZN4Mesh10SetNormalsEPK8Vector3fj
iyi:_AesManaged_CreateDecryptor_m692040246
rkj:__ZNSt3__212basic_stringIDsNS_11char_traitsIDsEENS_9allocatorIDsEEE9__grow_byEjjjjjj
ns:__ZN17AnimationCurveTplIfE8TransferI14SafeBinaryReadEEvRT_
QQf:_Array_InternalArray__set_Item_TisInt16_t2552820387_m2544074754_gshared
tmd:_ArithmeticException__ctor_m3551809662
KId:_MonoIO_ExistsDirectory_m2182482658
B_b:__Z29StdTemplateConversionFunctionIybEbPvR14SafeBinaryRead
v5a:__ZNSt3__26vectorIN15QualitySettings14QualitySettingENS_9allocatorIS2_EEE6assignIPS2_EENS_9enable_ifIXaasr21__is_forward_iteratorIT_EE5valuesr16is_constructibleIS2_NS_15iterator_traitsIS9_E9referenceEEE5valueEvE4typeES9_S9_
f:HEAPU32
M2f:_List_1_CheckCollection_m1671972112_gshared
jbe:_CipherSuiteFactory_GetSsl3SupportedCiphers_m3757358569
F7f:_UnicodeEncoding_GetPreamble_m3002287178
jAi:_AudioSource_get_spatialize_m3609701298
SPg:__Z52RuntimeInvoker_Color_t2555686324_Color32_t2600501292PFvvEPK10MethodInfoPvPS4_
kna:__ZN20GpuProgramParameters14AddVectorParamEPKcii15ShaderParamTypeiiiP16PropertyNamesSet
JXc:__ZNK12HeaderHelper3GetERKN4core12basic_stringIcNS0_20StringStorageDefaultIcEEEE
tcb:__ZN9InputAxis8TransferI14SafeBinaryReadEEvRT_
rZ:__ZNK21ExecutionOrderManager30GetCustomAwakeFromLoadQueueForEPKN5Unity4TypeE
cXc:__Z27RegisterModule_UnityConnectv
bLd:_MemoryStream_Expand_m3554752073
Q0i:__ZN6il2cpp2vm10Reflection27GetCustomAttributesCacheForEP25Il2CppReflectionParameter
cwg:_ScriptableObject_CreateInstance_m2611081756
uMe:_ObjectRecord_get_IsInstanceReady_m2304516395
ure:_InternalEnumerator_1_System_Collections_IEnumerator_get_Current_m1635397542_gshared
ILd:_Path__cctor_m3273994011
uyj:__ZNSt11logic_errorD2Ev
Ptf:_DateTimeUtils_CountRepeat_m3396693018
Ghg:_WeakReference_get_Target_m168713953
EK:__ZN10ObjectPoolIN4FMOD12ChannelGroupENS0_13ChannelGroupIEE7SetSizeEi
Vxi:_SymmetricTransform_FinalDecrypt_m764004682
Chj:__ZN6il2cpp2os10ThreadImpl33UnregisterCurrentThreadForCleanupEv
Fqi:_Parser_ParseGroupingConstruct_m263270497
z2i:__ZN14dense_hash_mapI10KeyWrapperINSt3__24pairIPK9EventInfoP11Il2CppClassEEEj17ReflectionMapHashIS8_ENS9_14EqualsComparerINS1_8equal_toIS8_EEEENS1_9allocatorINS2_IKS9_jEEEEE15set_deleted_keyERSH_
Zw:__ZN27AnimationLayerMixerPlayable22PrepareAnimationEventsEfR13dynamic_arrayI22AnimationClipEventInfoLj4EE
Bqb:__Z14resize_trimmedINSt3__26vectorI17AnimationCurveTplIfE13stl_allocatorIS3_L18MemLabelIdentifier1ELi16EEEEEvRT_j
SWb:__ZN25CameraStackRenderingState19SetupLastEyeCamerasERK11CameraStack
GPa:__Z12GUIDToStringRK9UnityGUID
wfe:_RSASslSignatureDeformatter_SetKey_m2204705853
BG:__ZN11SoundHandleC2ERKS_
it:__ZN17AnimationPlayableC2E18DirectorPlayerType
yOe:_InputField_set_shouldHideMobileInput_m1650743574
MQi:__ZNK6il2cpp5utils11collections13ArrayValueMapIPK10Il2CppType17Il2CppInteropData26InteropDataToTypeConverterNS_8metadata14Il2CppTypeLessENS8_26Il2CppTypeEqualityComparerEE10find_firstERKS5_
FJd:_FileStream_get_CanSeek_m331583577
zgd:_DSAParameters_t1885824122_marshal_pinvoke_back
xz:__ZN8Animator22OnGraphTopologyChangedEP8Playablei
f3e:_Kernel_MultiplyByDword_m1266935086
gBd:_Convert_ToInt64_m3916071102
AYb:__ZN6Camera25StandaloneRenderToCubemapEP7TextureiPFvPK9SceneNodePK4AABBR9IndexListPvESA_j
aqf:_String_Trim_m3384720403
ZXa:__ZN14RenderSettings18TransferDeprecatedI14SafeBinaryReadEEvRT_
qJg:__Z93RuntimeInvoker_Single_t1397266774_SingleU26_t1922108698_Single_t1397266774_Single_t1397266774PFvvEPK10MethodInfoPvPS4_
Lui:_Event__ctor_m526447123
zMg:__Z88RuntimeInvoker_RuntimeObject_RuntimeObject_RuntimeObject_RuntimeObject_Int32_t2950945753PFvvEPK10MethodInfoPvPS4_
Adg:_Type_ToString_m3975981286
jZ:__ZN12TLSAllocatorI14StackAllocatorE8AllocateEji
k$:__ZN16ScriptingManager18GetMonoScriptCacheEi
Tqi:_ExpressionAssertion__ctor_m2554412824
Yob:__Z18Transfer_BlittableI14SafeBinaryReadLb1EyEvRK29SerializationCommandArgumentsR31RuntimeSerializationCommandInfo
ZQd:_NullReferenceException__ctor_m3076065613
aqc:__ZN8JSONRead8TransferIfEEvRT_PKc17TransferMetaFlagsb
Jbf:_X509SubjectKeyIdentifierExtension_Decode_m1505409124
Vma:__ZL23AddGpuProgramParametersR20GpuProgramParametersRKNSt3__26vectorIN9ShaderLab20SerializedSubProgram15MatrixParameterENS1_9allocatorIS5_EEEERKNS2_INS4_15VectorParameterENS6_ISB_EEEEiiP16PropertyNamesSet
yAa:__ZN6prcoreL17RemapGenericFloatI18TexFormatARGBFloat17TexFormatRGBAHalfEEvPKNS_9InnerInfoE
Fpf:_String_System_IConvertible_ToUInt16_m2888090399
lM:__ZN11AudioSource21ApplyCachedParametersE12SoundChannel
OSd:_Assembly_InternalGetType_m3065345470
hR:__ZN13Simd4iFactoryIN6detail9FourTupleEEC2Eiiii
I3d:_ResourceSet__ctor_m3356376607
E6d:_PrimeGeneratorBase_get_PrimalityTest_m2487240563
tth:__ZL56_ParameterInfo_t489405856_CustomAttributesCacheGeneratorP21CustomAttributesCache
A4a:__ZN15SerializeTraitsI33EnlightenTerrainChunksInformationE8TransferI14SafeBinaryReadEEvRS0_RT_
T5b:__ZNK32RendererMaterialAnimationBinding9BindValueER6ObjectRKN11UnityEngine9Animation14GenericBindingERNS3_10BoundCurveE
Fze:_Transform_1_Invoke_m1731820209_gshared
UYa:__Z13GetIAnimationv
Hya:__ZL18stbir__support_onef
Yof:_Single_CompareTo_m189772128
Nrc:__Z26Transfer_UnityEngineObjectI9JSONWriteLb0EEvRK29SerializationCommandArgumentsR31RuntimeSerializationCommandInfo
Gte:_DefaultComparer_Compare_m4042058291_gshared
Nbd:_Image_set_overrideSprite_m3213596394
g0a:__ZNSt3__26vectorIN4core12basic_stringIcNS1_20StringStorageDefaultIcEEEE13stl_allocatorIS5_L18MemLabelIdentifier1ELi16EEE6assignINS_11__wrap_iterIPS5_EEEENS_9enable_ifIXaasr21__is_forward_iteratorIT_EE5valuesr16is_constructibleIS5_NS_15iterator_traitsISF_E9referenceEEE5valueEvE4typeESF_SF_
BOc:__ZNSt3__27__sort5IRNS_6__lessIN2UI14DepthSortEntryES3_EEPS3_EEjT0_S7_S7_S7_S7_T_
qJd:_FileLoadException_ToString_m2989457882
BAi:_AudioListener_ClearExtensionProperties_m3849891634
Vxc:_UNITY_FT_DivFix
w2h:_Array_InternalArray__get_Item_TisDecimal_t2948259380_m3511003792_gshared
rmf:_SecurityElement_IsValidAttributeValue_m948345692
Owc:__ZN19ControllerHitReport15onControllerHitERKN5physx16PxControllersHitE
Ba:invoke_vdd
yn:FUNCTION_TABLE_fiii
DNd:_TextWriter_Write_m2252948084
f8b:__Z19RegisterModule_Corev
eMc:__ZZ29InitializeTextRenderingModulevEN27cleanupAfterLoadRegistrator7ForwardEv
ckb:__ZNSt3__26__sortIRPFbRK23TransformAccessReadOnlyS3_EPS1_EEvT0_S8_T_
ZCf:_CCFixed_FromDateTime_m3894190577
FWb:__Z29PluginsIssueRenderingExtEvent26UnityRenderingExtEventTypePv
pEg:__Z116RuntimeInvoker_RuntimeObject_RuntimeObject_Int32_t2950945753_RuntimeObject_RuntimeObject_RuntimeObject_RuntimeObjectPFvvEPK10MethodInfoPvPS4_
YMe:_MessageFormatter_ReadMethodCall_m2327590823
U4b:__Z14RandomRotationP9Texture2DPhiiii
WNf:_Array_InternalArray__ICollection_Add_TisUInt16_t2177724958_m3981262878_gshared
Wxf:_Decimal_GetBits_m453754410
r_f:_HashSet_1_Contains_m3173358704_gshared
Ayi:_ToggleEvent__ctor_m834619998
B8d:_PKCS1_Encode_v15_m2077073129
yug:_RectOffset_get_left_m1232181034
IBa:__ZN4gles14UseGLSLProgramER15DeviceStateGLESjbij
oIj:_glDeleteProgram__wrapper
qfc:__Z50Register_UnityEngine_Camera_INTERNAL_get_pixelRectv
Qza:__ZN6prcoreL18BlitFloatToIntegerERK14ImageReferenceRS0_
Twf:_DBNull_System_IConvertible_ToUInt32_m3784627971
bce:_ClientSessionCache_Add_m964342678
TFa:__ZN13dynamic_arrayI15ComputeShaderCBLj4EE6assignEPKS0_S3_
yU:__ZN11UnityEngine15CloudWebService14RestDownloader17OnCompleteContentEv
oYi:__ZN15dense_hashtableINSt3__24pairIK10KeyWrapperINS1_IPK14Il2CppAssemblyP11Il2CppClassEEEjEES9_17ReflectionMapHashIS8_EN14dense_hash_mapIS9_jSD_NS9_14EqualsComparerINS0_8equal_toIS8_EEEENS0_9allocatorISB_EEE9SelectKeyESI_SK_E15insert_noresizeERKSB_
byg:_Transform_get_localScale_m129152068
oyf:_DivideByZeroException__ctor_m3496959969
Qa:invoke_viffi
dz:__ZN17AnimationPlayable28UpdateInternalStateRecursiveILi1ELb0EEEvPK35AnimationPlayableEvaluationConstant
Wej:__ZN6il2cpp2gcL10CleanupCCWEPvS1_
Ta:invoke_vifff
aHj:_glGetVertexAttribiv__wrapper
Ne:_emscripten_request_fullscreen
aei:_Predicate_1_Invoke_m851618236_gshared
LFb:__ZN20LocalFileSystemWebGL6DeleteER13FileEntryDatab
Pe:_emscripten_glDisableVertexAttribArray
KIf:_Array_InternalArray__ICollection_Remove_TisSingle_t1397266774_m3361324455_gshared
Um:FUNCTION_TABLE_iiiifiiii
Ega:__ZN4core8hash_mapINS_12basic_stringIcNS_20StringStorageDefaultIcEEEE13dynamic_arrayI4PPtrI6SpriteELj4EENS_4hashIS4_EENSt3__28equal_toIS4_EEE12delete_nodesEv
jc:invoke_fifffi
uhh:_Collection_1_System_Collections_IList_Add_m2969482770_gshared
uJ:__ZN4FMOD5Sound15getNumSubSoundsEPi
cwa:__ZN4gles23ClearCurrentFramebufferEP7ApiGLESbbbRK10ColorRGBAffi
Lwe:_Enumerator_System_Collections_IDictionaryEnumerator_get_Entry_m3249874482_AdjustorThunk
fhi:_UnityEvent_1_Invoke_m3604335408_gshared
_e:_emscripten_glDeleteObjectARB
W_c:_EventSystem_RaycastComparer_m3685368675
Vf:_IMG_Load
jIg:__Z131RuntimeInvoker_Void_t1185182177_RuntimeObject_RuntimeObject_Int64_t3736567304_ObjectU26_t2146539884_SerializationInfoU26_t419328957PFvvEPK10MethodInfoPvPS4_
yjc:__Z53Register_UnityEngine_RenderTexture_Internal_GetHeightv
q7e:_PKCS12_RemoveCertificate_m1421555398
A_e:_Slider_FindSelectableOnLeft_m1667068522
RAa:__ZN6prcoreL17RemapGenericFloatI17TexFormatRGBAHalf18TexFormatARGBFloatEEvPKNS_9InnerInfoE
mnc:__Z14GetBuiltinSkini
KJe:_MethodDictionary_get_Item_m1201458851
F7:___cxx_global_var_init_18
il:_JS_SystemInfo_GetBrowserVersionString
Ejb:__ZN2UI13RectTransform23VirtualRedirectTransferER14SafeBinaryRead
zAe:_Enumerator_MoveNext_m3045873697_gshared
cka:__ZNSt3__26vectorIN9ShaderLab20SerializedSubProgramENS_9allocatorIS2_EEE6assignIPS2_EENS_9enable_ifIXaasr21__is_forward_iteratorIT_EE5valuesr16is_constructibleIS2_NS_15iterator_traitsIS9_E9referenceEEE5valueEvE4typeES9_S9_
Ztc:__Z18Transfer_BlittableI8JSONReadLb0E8BitFieldEvRK29SerializationCommandArgumentsR31RuntimeSerializationCommandInfo
Ulf:_SecurityPermission_set_Flags_m1503445204
l_f:_HashSet_1_CopyTo_m2849056227_gshared
Wyb:__ZL17Transfer_GUIStyleI18StreamedBinaryReadILb1EELb0EEvRK29SerializationCommandArgumentsR31RuntimeSerializationCommandInfo
P2e:_ModulusRing_Multiply_m343333088
Tha:__ZN9ShaderLab14SerializedPass8TransferI14SafeBinaryReadEEvRT_
eoc:__Z71Register_UnityEngine_GUILayoutUtility_INTERNAL_CALL_Internal_MoveWindowv
ZO:__ZN12AudioManager16SetListenerPauseEb
Rfb:__ZNSt3__26vectorIN30RuntimeInitializeOnLoadManager9ClassInfoE13stl_allocatorIS2_L18MemLabelIdentifier13ELi16EEE6assignINS_11__wrap_iterIPS2_EEEENS_9enable_ifIXaasr21__is_forward_iteratorIT_EE5valuesr16is_constructibleIS2_NS_15iterator_traitsISC_E9referenceEEE5valueEvE4typeESC_SC_
wJf:_SetPropertyUtility_SetStruct_TisSingle_t1397266774_m2805350785_gshared
r9i:__ZN6il2cpp2vm9Exception25RaiseOutOfMemoryExceptionERKNS_5utils10StringViewIDsEE
da:invoke_viiiiiiiiiii
kuj:___syscall_ret
Mli:_DeriveBytes_set_Salt_m1400945044
d1c:_PointerEventData_set_worldNormal_m1888481930
Bri:_AnchorInfo__ctor_m46784903
Jae:_CipherSuiteCollection_get_Item_m4188309062
rge:_SslHandshakeHash_HashFinal_m2573455475
GHe:_SynchronizationAttribute_ReleaseLock_m1030353464
y7a:__ZN11ChannelInfo8TransferI19StreamedBinaryWriteILb0EEEEvRT_
ukj:__ZN4utf88internal13validate_nextIPKcEENS0_9utf_errorERT_S5_Rj
NXh:__ZL53ToggleGroup_t123837990_CustomAttributesCacheGeneratorP21CustomAttributesCache
eOb:__ZN14qsort_internal13Partition3WayIP17RODataReplacementi19ROSorterReplacementEENSt3__24pairIT_S6_EES6_S6_T0_T1_
hRe:_InputField_CreateCursorVerts_m3585916868
ygc:__Z34Register_UnityEngine_Gradient_Initv
UGe:_Context_ToString_m1073616138
w6a:__ZN13ScreenManager23SetIsOrientationEnabledE18EnabledOrientationb
sOe:_InputField_EnforceTextHOverflow_m3400115777
ycb:__ZN9InputAxis8TransferI19StreamedBinaryWriteILb0EEEEvRT_
IDd:__Z33il2cpp_codegen_check_sub_overflowxx
eAj:dynCall_viififiii
fPe:_InputField_get_caretColor_m2973283772
P3h:_Resources_ConvertObjects_TisRuntimeObject_m1486780300_gshared
yAf:_Double_System_IConvertible_ToInt16_m3591921965_AdjustorThunk
nci:_Comparison_1_Invoke_m2925518770_gshared
DQa:__ZN10GameObject23VirtualRedirectTransferER18StreamedBinaryReadILb0EE
Exi:_SymmetricTransform__ctor_m2693628991
TRd:_ObjectDisposedException__ctor_m1034312941
qg:_glFrontFace
uug:_RectOffset__ctor_m3236153262
HUe:_MaskUtilities_IsDescendantOrSelf_m2247511982
aTb:__ZNSt3__26vectorI16ShadowCasterData13stl_allocatorIS1_L18MemLabelIdentifier2ELi16EEE21__push_back_slow_pathIKS1_EEvRT_
OMc:__Z51Register_UnityEngine_TextGenerator_GetLinesInternalv
Xze:_Enumerator_get_Current_m2250080680_AdjustorThunk
pyi:_AesManaged_set_Key_m767972181
KCd:_Int16_System_IConvertible_ToBoolean_m1656400658_AdjustorThunk
Hqd:_Byte_System_IConvertible_ToInt64_m285584218
vta:__ZN13GfxDeviceGLES22SetScissorRectPlatformERK5RectTIiE
gAa:__ZN6prcoreL17RemapGenericFloatI17TexFormatRGBFloat18TexFormatRGBAFloatEEvPKNS_9InnerInfoE
oNf:_Array_InternalArray__ICollection_Add_TisDictionaryEntry_t3123975638_m665385049_gshared
QOd:_MissingMemberException__ctor_m2707802176
WWc:__ZN20UnityConnectSettings10InitializeEv
CHi:_Canvas_get_renderMode_m841659411
G4a:__ZN15SerializeTraitsI13dynamic_arrayI28EnlightenRendererInformationLj8EEE19ResizeSTLStyleArrayERS2_i
Xcd:_SerializationInfo_GetValue_m42271953
sG:__ZN9AudioClip11CreateSoundEv
N2i:__ZN14dense_hash_mapI10KeyWrapperINSt3__24pairIPK9FieldInfoP11Il2CppClassEEEj17ReflectionMapHashIS8_ENS9_14EqualsComparerINS1_8equal_toIS8_EEEENS1_9allocatorINS2_IKS9_jEEEEEC2EjRKSB_RKSF_
j_i:__ZNK15dense_hashtableINSt3__24pairIK10KeyWrapperINS1_IPK10MethodInfoP11Il2CppClassEEEjEES9_17ReflectionMapHashIS8_EN14dense_hash_mapIS9_jSD_NS9_14EqualsComparerINS0_8equal_toIS8_EEEENS0_9allocatorISB_EEE9SelectKeyESI_SK_E13find_positionERSA_
Csa:__ZN13GfxDeviceGLES20CreateComputeProgramEPKhj
pWc:__ZN11UnityEngine7Connect16PersistentValues13RestoreValuesER8JSONRead
BGf:_Guid_BaseToString_m3600006650
kOa:__ZN20ArchiveStorageReader31TryToReadDirectoryFromBlockDataEyPKvj
xbj:__ZN6il2cpp2vmL11GetIdentityEP14Il2CppIUnknown
Onj:_GC_push_gc_structures
Ude:_TlsServerCertificate_ProcessAsTls1_m819212276
Y7h:_ReadOnlyCollection_1_System_Collections_Generic_ICollectionU3CTU3E_Clear_m2102011098_gshared
z1h:_Dictionary_2_Do_ICollectionCopyTo_TisRuntimeObject_m3942192587_gshared
OUi:__ZN6il2cpp6icalls8mscorlib6SystemL8IsPublicEPK9EventInfo
P6d:_PrimalityTests_RabinMillerTest_m2544317101
_5d:_Kernel_DwordDivMod_m1540317819
S9g:_Enumerator_System_Collections_IEnumerator_get_Current_m1399273671_gshared
v_d:_TypeBuilder_GetPropertyImpl_m3104345782
S7a:__ZNSt3__213__stable_sortIRNS_4lessI4PPtrI11SpriteAtlasEEENS_11__wrap_iterIPS4_EEEEvT0_SA_T_NS_15iterator_traitsISA_E15difference_typeEPNSD_10value_typeEi
YGd:_Int64_ToString_m2085073918_AdjustorThunk
b$d:_FieldInfo_GetFieldOffset_m1356898082
zMf:_Array_InternalArray__IndexOf_TisTypeTag_t3541821701_m2988972362_gshared
X8:__ZN8keywords6CreateEPKc
iKi:__ZL7log2_32j
S:Math_imul
nee:_TlsServerKeyExchange_Update_m453798279
J5a:__ZN11PlayerPrefs6GetIntERKN4core12basic_stringIcNS0_20StringStorageDefaultIcEEEEi
Qae:_CipherSuiteCollection_System_Collections_IList_IndexOf_m1361500977
t$e:_Text_set_fontStyle_m648756124
wMc:__Z45TextGenerator_CUSTOM_INTERNAL_get_rectExtentsP12Il2CppObjectP5RectTIfE
htf:_DateTime__ctor_m2135476686_AdjustorThunk
LP:__ZN11AudioSource12SetAudioClipEP9AudioClip
ivg:_RectTransform_GetLocalCorners_m823861473
Vud:_SynchronizedArrayListWrapper_GetEnumerator_m1579424644
s_:__ZN18ScriptingArguments9AddObjectE18ScriptingObjectPtr
KQc:__Z39CanvasGroup_Get_Custom_PropInteractableP12Il2CppObject
GR:__ZN11UnityEngine15CloudWebService16SessionContainerD2Ev
zWc:__ZL38InitializeUnityConnectScriptingClassesv
nXb:__ZN13ProbeRenderer8ConvolveEbijjb
ixi:_GUIUtility_set_systemCopyBuffer_m608712289
wwa:__ZN17GenericDynamicVBOC2ER9GfxDevice13GfxBufferModejj
nmc:__ZZN10GUIManager14InitGUIManagerEvEN41PreUpdateIMGUISendQueuedEventsRegistrator7ForwardEv
Maf:_ServicePointManager_get_SecurityProtocol_m966397919
aDa:__ZN13dynamic_arrayIN18GlslGpuProgramGLES9GLProgramELj4EE6insertEPS1_jRKS1_
iDf:_CCGregorianCalendar_day_from_fixed_m1674702403
ZS:__ZN11UnityEngine15CloudWebService17SessionEventQueue10PurgeItemsEj
TXb:__ZN6Camera16StandaloneRenderENS_10RenderFlagEP6ShaderRKN4core12basic_stringIcNS3_20StringStorageDefaultIcEEEE
ndf:_X509Chain_PrepareForNextCertificate_m3691934993
oyb:__Z18Transfer_BlittableI18StreamedBinaryReadILb1EELb1EtEvRK29SerializationCommandArgumentsR31RuntimeSerializationCommandInfo
zPh:__ZL58EventType_t3528516131_CustomAttributesCacheGenerator_keyUpP21CustomAttributesCache
Bvh:__ZL57X509Certificate_t713131622_CustomAttributesCacheGeneratorP21CustomAttributesCache
Kab:__ZN12BoneWeights48TransferI19StreamedBinaryWriteILb0EEEEvRT_
Hqa:__ZN9GfxDevice20DeallocRenderSurfaceEP17RenderSurfaceBase
_ma:__ZN20GpuProgramParameters36UpdatePrepareValuesMaximumBufferSizeEv
D6h:_ReadOnlyCollection_1_System_Collections_IList_RemoveAt_m2129436005_gshared
G0e:_SimpleCollator_GetContraction_m2205549079
x7d:_ARC4Managed_GenerateKey_m1607343060
EOf:_Array_InternalArray__ICollection_CopyTo_TisDecimal_t2948259380_m2749946216_gshared
bSa:__ZN12BaseRenderer23RendererBecameInvisibleEv
jJc:__ZN20TextRenderingPrivate8FontImpl13CharacterInfo8TransferI18StreamedBinaryReadILb0EEEEvRT_
Dvb:__Z29Transfer_Blittable_ArrayFieldI24GenerateTypeTreeTransferfEvRT_R9ArrayInfoRK23StaticTransferFieldInfo
zba:__ZNSt3__26__treeINS_12__value_typeIN4core12basic_stringIcNS2_20StringStorageDefaultIcEEEES6_EENS_19__map_value_compareIS6_S7_NS_4lessIS6_EELb1EEE13stl_allocatorIS7_L18MemLabelIdentifier13ELi16EEE7destroyEPNS_11__tree_nodeIS7_PvEE
cng:_UnityEvent_FindMethod_Impl_m2312362624
hZb:__ZN19CustomRenderTexture9AddParentE4PPtrIS_E
W6:__ZN8Gradient8TransferI14SafeBinaryReadEEvRT_
Pig:_Vector3_GetHashCode_m2879461828
Dqi:_Parser_ParseSpecial_m1961501104
Qof:_Single_System_IConvertible_ToUInt64_m3299129161_AdjustorThunk
f0a:__ZNSt3__26vectorIN4core12basic_stringIcNS1_20StringStorageDefaultIcEEEE13stl_allocatorIS5_L18MemLabelIdentifier1ELi16EEE7reserveEj
raf:_IPv6Address_AsIPv4Int_m844941024
pSd:_Random__ctor_m3209279193
Kee:_RecordProtocol__cctor_m1280873827
G6f:_StringBuilder__ctor_m3504405255
S4d:_Marshal__cctor_m4007734770
Imj:_GC_new_free_list_inner
y6e:_SymmetricTransform_Random_m2004892672
nmj:_GC_err_printf
b9d:_RSAManaged_DecryptValue_m1804388365
Cie:_InternalEnumerator_1_System_Collections_IEnumerator_get_Current_m2980550840_AdjustorThunk
Nuc:__ZN8JSONRead8TransferI10RectOffsetEEvRT_PKc17TransferMetaFlagsb
IS:__ZN9JSONWrite8TransferIN11UnityEngine15CloudWebService14DataErrorEvent15FileErrorDetailEEEvRT_PKc17TransferMetaFlags
JFd:_Int32_Parse_m2087562008
vLf:_Array_compare_TisVector4_t3319028937_m1974066282_gshared
R1d:_MonoProperty_GetAccessors_m412928203
Dii:_TweenRunner_1_Start_m3757154622_gshared
yJ:__ZN12SoundManager20RegisterModifiedClipEP10SampleClip
cEe:_RemotingServices_GetClientChannelSinkChain_m1499550585
PSd:_Assembly_FillName_m1660001542
ith:__ZL56_EventBuilder_t2558055199_CustomAttributesCacheGeneratorP21CustomAttributesCache
dkf:_SHA384Managed_processBlock_m1272529332
cM:__ZN11AudioSource4PlayEd
Csd:_Char_ToString_m278452217_AdjustorThunk
pOi:__ZN15dense_hashtableI10KeyWrapperIPK17Il2CppGenericInstES4_N6il2cpp8metadata21Il2CppGenericInstHashEN14dense_hash_setIS4_S7_NS4_14EqualsComparerINS6_24Il2CppGenericInstCompareEEENSt3__29allocatorIS4_EEE8IdentityESB_SE_E13set_empty_keyERKS4_
SBg:__Z63RuntimeInvoker_Char_t3634460470_Int16_t2552820387_RuntimeObjectPFvvEPK10MethodInfoPvPS4_
vAd:_Convert_ToDouble_m2924063577
rUd:_CustomAttributeNamedArgument_ToString_m1488801416_AdjustorThunk
eBe:_ValueCollection_System_Collections_Generic_ICollectionU3CTValueU3E_Remove_m3673494156_gshared
H2a:__ZN7Cubemap23VirtualRedirectTransferER18StreamedBinaryReadILb0EE
Ohc:__ZNSt3__27__sort4IRNS_6__lessI11KeyframeTplIfES3_EEPS3_EEjT0_S7_S7_S7_T_
MFc:_Read_CVT
SL:__ZN11AudioSource23VirtualRedirectTransferER19StreamedBinaryWriteILb0EE
I0e:_SimpleCollator_GetTailContraction_m2107754083
rub:__ZL26Transfer_SimpleNativeClassI24GenerateTypeTreeTransfer17AnimationCurveTplIfELb0EEvRK29SerializationCommandArgumentsR31RuntimeSerializationCommandInfo
Nvc:__ZN8JSONRead21TransferSTLStyleArrayI13dynamic_arrayI9BoundsIntLj4EEEEvRT_17TransferMetaFlags
O4a:__ZN24GenerateTypeTreeTransfer8TransferI13dynamic_arrayI33EnlightenTerrainChunksInformationLj4EEEEvRT_PKc17TransferMetaFlags
Ztf:_DateTimeFormatInfo__ctor_m3106345035
Gbe:_TlsServerKeyExchange_verifySignature_m3412856769
FVf:_EqualityComparer_1_System_Collections_IEqualityComparer_GetHashCode_m4137147946_gshared
Wca:__ZN16LightmapSettings20DidChangeActiveSceneEP10UnitySceneS1_
OZh:__ZL59g_AssemblyU2DCSharp_Assembly_CustomAttributesCacheGeneratorP21CustomAttributesCache
aVi:__ZN6il2cpp5utils9PathUtils8BasenameIcEENSt3__212basic_stringIT_NS3_11char_traitsIS5_EENS3_9allocatorIS5_EEEERKSA_
QLe:_RemotingProxy__cctor_m4096951805
Snc:__Z35Register_UnityEngine_Event_get_typev
C9i:__ZN6il2cpp2vm9Exception23GetInvalidCastExceptionERKNS_5utils10StringViewIDsEE
ez:__ZN8Animator28BuildControllerPlayableCacheEv
$Y:__Z63ThreadAndSerializationSafeCheckGetMonoBehaviourBeingTransferredv
Yzf:_StackTrace__ctor_m206492268
n1g:_List_1_set_Item_m4224739467_gshared
p6c:_ColorTween_set_startColor_m2562993758_AdjustorThunk
hVd:_ConstructorBuilder_get_Name_m2426555260
uhc:__Z37Register_UnityEngine_Input_GetAxisRawv
Eqi:_Parser_ParseCharacterClass_m4285351396
sBd:_Convert_ToSByte_m2653418303
Hxd:_SyncHashtable__ctor_m2449935938
QL:__ZN11AudioSource5ResetEv
pjf:_RSAPKCS1SignatureFormatter_SetKey_m2935054088
ENb:__ZN12ImageFilters27SetSurfaceUseResolvedBufferEP13RenderTextureb
f8a:__ZN14Texture2DArray23VirtualRedirectTransferER18StreamedBinaryReadILb0EE
o8f:_UTF7Encoding_GetByteCount_m209415911
vjb:__ZN2UI13RectTransform13AwakeFromLoadE17AwakeFromLoadMode
kti:_RegularExpression_Compile_m2385682508
sDf:_CompareInfo__cctor_m1837489679
ASb:__ZN14qsort_internal30FindAndMovePivotToLastPositionIP20ShadowCasterSortDatai26ShadowCasterSortDataSorterEEvT_S4_T0_T1_
Pnb:__Z18Transfer_BlittableI14SafeBinaryReadLb1EiEvRK29SerializationCommandArgumentsR31RuntimeSerializationCommandInfo
tdf:_X509ExtensionEnumerator_get_Current_m256207749
_7:__GLOBAL__sub_I_modules_profiler_public_0_cpp
Xhb:__ZN17PersistentManager13GetAllFileIDsERKN4core12basic_stringIcNS0_20StringStorageDefaultIcEEEER13dynamic_arrayIxLj8EE
aod:_Array_Sort_m182264525
zSe:_LayoutGroup_set_padding_m282562135
LTd:_Default_IsArrayAssignable_m953489228
Neg:_UInt16_ToString_m355311020_AdjustorThunk
cid:_RC2__ctor_m1146135664
Ek:_glGetStringi
csf:_DecoderExceptionFallback_CreateFallbackBuffer_m1133375601
tdj:__ZNK15dense_hashtableI10KeyWrapperIP18Il2CppGenericClassES3_N6il2cpp8metadata22Il2CppGenericClassHashEN14dense_hash_setIS3_S6_NS3_14EqualsComparerINS5_25Il2CppGenericClassCompareEEENSt3__29allocatorIS3_EEE8IdentityESA_SD_E10test_emptyERK30dense_hashtable_const_iteratorIS3_S3_S6_SF_SA_SD_E
lxe:_Enumerator_get_CurrentKey_m889650866_gshared
xA:__ZN8Animator9WriteStepEy
Ewe:_Enumerator_VerifyCurrent_m829026141_gshared
Y8b:__ZN16PropertyAccessorC2Ev
S5a:__ZNSt3__23mapIN4core12basic_stringIcNS1_20StringStorageDefaultIcEEEE9PrefValueNS_4lessIS5_EENS_9allocatorINS_4pairIKS5_S6_EEEEEixERSB_
s8b:__ZN15DirectorManager22ConstructPlayableGraphEv
nch:_Collection_1_ConvertItem_m1743542180_gshared
DMc:__Z38Register_UnityEngine_Font_HasCharacterv
xWb:__Z35IntersectSpherePlaneBoundsOptimizedRKN4math7_float4EPS1_i
wif:_RNGCryptoServiceProvider__cctor_m3587754670
hgj:__ZN6il2cpp2os5posix15PosixWaitObject13InterruptWaitEv
tca:__Z22CleanupLODGroupManagerPv
Onc:__Z21Event_CUSTOM_PopEventP12Il2CppObject
ol:_glUniform3fv
Csj:__ZNK6il2cpp8metadata24Il2CppGenericInstCompareclERK10KeyWrapperIPK17Il2CppGenericInstES8_
Veb:__ZNSt3__218__insertion_sort_3IRN15ResourceManager10Dependency6SorterEPS2_EEvT0_S6_T_
Odf:_X509ChainElement_Set_m655180762
Kqg:_MonoBehaviour_StopCoroutine_m615723318
lRb:__ZNK16LightmapSettings31GetRealtimeLightmapDecodeValuesEv
SK:__ZN5audio5mixer12SetSuspendedERNS0_16AudioMixerMemoryEb
Pib:__ZN17PersistentManager21UnloadNonDirtyStreamsEv
VIg:__Z96RuntimeInvoker_Int32_t2950945753_RuntimeObject_Int32_t2950945753_RuntimeObject_Int32_t2950945753PFvvEPK10MethodInfoPvPS4_
Mti:_Uri_get_Parser_m3737125102
LHi:_Canvas_get_overrideSorting_m2740418462
Mag:_Scheduler__ctor_m3313141270
g9a:__ZN12ImageFilters4BlitER17ShaderPassContextP7TextureP13RenderTextureiPK18SharedMaterialDataPKcP6ShaderiNS_9BlitFlagsE11CubemapFaceRK8Vector2fSH_
Cqf:_String_LastIndexOf_m3451222878
Aoi:_Mark_get_Index_m3048692661
eYh:__ZL69CanvasScaler_t2767979955_CustomAttributesCacheGenerator_m_ScaleFactorP21CustomAttributesCache
lFe:_ConfigHandler_CheckPath_m3079311646
hT:__ZN11UnityEngine15CloudWebService10RestClientINS0_23WebRequestRestHeaderMapEED2Ev
Kl:_emscripten_glDepthMask
VDe:_RemotingServices_CreateClientProxy_m3886727610
Lxa:__ZN4crnd25static_huffman_data_model22prepare_decoder_tablesEv
Pee:_RecordProtocol_GetMessage_m2086135164
Nmc:__Z23GUIStatePopDisplayIndexv
$ca:__Znaj
OIj:_emscripten_glEnableClientState__wrapper
J9:__ZN17MessageIdentifierC2EPKcNS_7OptionsEPKN5Unity4TypeES1_
Cqg:_Mesh_SetTriangles_m1523451247
Fof:_Single_System_IConvertible_ToSByte_m1208276900
B_h:_Array_InternalArray__set_Item_TisVector4_t3319028937_m757305038_gshared
mHg:__Z105RuntimeInvoker_Void_t1185182177_RuntimeObject_RuntimeObject_RuntimeObject_RuntimeObject_Int32_t2950945753PFvvEPK10MethodInfoPvPS4_
PAe:_ValueCollection_System_Collections_Generic_ICollectionU3CTValueU3E_Add_m3298059628_gshared
nCg:__Z64RuntimeInvoker_RuntimeObject_Int16_t2552820387_Int16_t2552820387PFvvEPK10MethodInfoPvPS4_
xQ:__Z55Register_UnityEngine_AudioSource_get_spatializeInternalv
aLa:__ZN14SafeBinaryRead8TransferI14ConstantStringEEvRT_PKc17TransferMetaFlags
RLb:__ZNK6Camera16GetStereoEnabledEv
WLg:__Z72RuntimeInvoker_Int32_t2950945753_TimeSpan_t881159249_TimeSpan_t881159249PFvvEPK10MethodInfoPvPS4_
ofe:_SendRecordAsyncResult_SetComplete_m153213906
Ena:__ZL24FindBelongingStructParamRPKcRNSt3__26vectorIN9ShaderLab20SerializedSubProgram14ConstantBufferENS2_9allocatorIS6_EEEE
v5b:__ZN12LightManager15InitializeClassEv
Zag:_WaitHandle__cctor_m4242752477
e$a:__ZN9ShaderLab11shaderprops16GetComputeBufferEPK19ShaderPropertySheetS3_NS_16FastPropertyNameE
Fkj:__ZN6il2cpp6icalls8mscorlib6System10Reflection10MethodBase31GetMethodFromHandleInternalTypeEii
I_:__ZN18ScriptingArgumentsC2Ev
jjg:_Vector3_op_Equality_m4231250055
jEj:_emscripten_glBlendFuncSeparate__wrapper
UId:_FileSystemInfo__ctor_m3769019897
d3h:_Array_InternalArray__get_Item_TisContentType_t1787303396_m421427711_gshared
Oua:__Z17HasSampledTexture14GraphicsFormat13formatSupport
eNb:__ZNK25CameraStackRenderingState27GetStereoImageEffectTextureEb
whd:_HMACSHA384__ctor_m1677515580
sif:_RIPEMD160Managed_J_m1336489154
sp:__ZN8Vector3f8TransferI14SafeBinaryReadEEvRT_
ySi:__ZN6il2cpp6icalls6System6System3Net7Sockets6Socket7ReceiveEiP11Il2CppArrayiiNS4_11SocketFlagsEPi
wo:FUNCTION_TABLE_ii
TRa:__ZN10TagManager8TransferI18StreamedBinaryReadILb0EEEEvRT_
nrc:__Z18Transfer_BlittableI9JSONWriteLb0E8BitFieldEvRK29SerializationCommandArgumentsR31RuntimeSerializationCommandInfo
TKd:_MemoryStream_set_Capacity_m1773624579
l5i:__ZNK15dense_hashtableINSt3__24pairIK10KeyWrapperINS1_IP11Il2CppClassjEEES4_EES6_N6il2cpp8metadata14ArrayClassHashEN14dense_hash_mapIS6_S4_SB_NS6_14EqualsComparerINSA_17ArrayClassCompareEEENS0_9allocatorIS8_EEE9SelectKeyESF_SH_E10test_emptyEj
Oia:__ZNSt3__26vectorIN9ShaderLab20SerializedSubProgram15StructParameterENS_9allocatorIS3_EEE8__appendEj
tb:invoke_diiii
RCj:b47
$Ng:__Z95RuntimeInvoker_Void_t1185182177_RuntimeObject_RuntimeObject_SByte_t1669577662_SByte_t1669577662PFvvEPK10MethodInfoPvPS4_
zMa:__Z24CreateDirectoryRecursiveRKN4core12basic_stringIcNS_20StringStorageDefaultIcEEEE
DCj:b41
ila:__ZN9ShaderLab20SerializedSubProgram8TransferI18StreamedBinaryReadILb0EEEEvRT_
CCj:b40
eKh:__ZL54ContextMenu_t1295656858_CustomAttributesCacheGeneratorP21CustomAttributesCache
j9:__ZN13RuntimeStaticI21ScalableBufferManagerLb0EE13StaticDestroyEPv
jNc:__ZN2UI13CanvasManager9AddCanvasEPNS_6CanvasE
Z8a:__ZN9Texture3D8TransferI19StreamedBinaryWriteILb0EEEEvRT_
JNb:__ZNK6Camera22CalculateRenderingPathEv
cBd:_Convert_ToInt64_m3758262873
gC:__ZN11UnityEngine9Animation37SetGenericRootTransformPropertyValuesERKNS0_30AnimatorGenericBindingConstantERKN7mecanim10ValueArrayER9Transformbb
YDa:__Z13ConvertMipmap14GraphicsFormatPKvS_Pviiii
Zsb:__ZL12InvokeMethodI17RemapPPtrTransferEvRK29SerializationCommandArgumentsR31RuntimeSerializationCommandInfo
v9e:_RemoteCertificateValidationCallback_Invoke_m3086073466
Crf:_StringComparer_Compare_m991165676
tDc:_tt_sbit_decoder_load_image
pii:_U3CStartU3Ec__Iterator0_Dispose_m261027331_gshared
XEa:__ZN4core8hash_mapIPK17RenderSurfaceBaseP13RenderTexture19PointerHashFunctionIS3_ENSt3__28equal_toIS3_EEE6insertERKNS8_4pairIKS3_S5_EE
Hmc:__ZNSt3__24listIN10GUIManager12SortedScriptE11memory_poolIS2_EE6__sortI13OldSortScriptEENS_15__list_iteratorIS2_PvEESA_SA_jRT_
nfh:_Collection_1_System_Collections_IList_Add_m3364892189_gshared
K1g:_List_1_AddEnumerable_m3500350831_gshared
O8d:_PrivateKeyInfo_get_PrivateKey_m3647771102
i8i:__ZN6il2cpp6icalls8mscorlib6System9ThreadingL11ThreadStartEPv
Tea:__ZN15DirectorManager12OnSampleTimeEv
qZd:_TypeBuilder_check_not_created_m3652863637
z2c:_StandaloneInputModule_UpdateModule_m450861257
BGi:_Font_add_textureRebuilt_m2164317336
Zai:_ReadOnlyCollection_1_System_Collections_IList_Insert_m2928873627_gshared
mXf:_EqualityComparer_1__cctor_m314889309_gshared
f6:__ZN12CachedReader10Align4ReadEv
ymi:_X501__cctor_m2428304915
KHi:_Canvas_get_renderOrder_m1489855841
MCg:__Z50RuntimeInvoker_Void_t1185182177_Single_t1397266774PFvvEPK10MethodInfoPvPS4_
dvi:_Event_ToString_m1688862299
bKa:__ZNK9Behaviour22GetTypeVirtualInternalEv
hDf:_CCGregorianCalendar_month_from_fixed_m4268992710
mLf:_Array_compare_TisUICharInfo_t75501106_m1310495481_gshared
hXb:__Z21GetScriptingArraySize17ScriptingArrayPtr
HIc:__ZN20TextRenderingPrivate8FontImpl8TransferI14SafeBinaryReadEEvRT_
m9h:_ReadOnlyCollection_1_System_Collections_IList_Clear_m4022532825_gshared
Q5f:_Encoding_get_ASCII_m3595602635
Dra:__ZN9GfxDevice17ImmediateTexCoordEifff
fWd:_DerivedType_GetCustomAttributes_m3536779709
tyh:__ZL93Interlocked_t2273387594_CustomAttributesCacheGenerator_Interlocked_CompareExchange_m388540288P21CustomAttributesCache
s_d:_MethodBase_get_IsAbstract_m428833029
Atb:__Z35Transfer_Blittable_FixedBufferFieldI24GenerateTypeTreeTransferhEvRK29SerializationCommandArgumentsR31RuntimeSerializationCommandInfo
dCj:_emscripten_glUniform4f__wrapper
E1f:_Enumerator_MoveNext_m2595190390_AdjustorThunk
KMf:_Array_InternalArray__IndexOf_TisColor32_t2600501292_m3783551884_gshared
mY:__ZNK6Camera16GetProjectionFarEv
Nq:__Z24InverseTransformRotationRK23TransformAccessReadOnlyRKN4math7_float4E
yni:_X509Chain_Build_m2469702749
XL:__ZN11AudioSource6UpdateEv
h1a:__ZNK14PlayableOutput11DerivesFromE17ScriptingClassPtr
u2a:__ZN7Texture34CreateFileTextureUploadInstructionE18TextureUploadFlagsj
Y3e:_BitConverterLE_ULongFromBytes_m1677445591
oZd:_TypeBuilder_DefineConstructor_m2989882735
ePa:__ZN25SingleBlockMemoryFileDataC2E10MemLabelIdPvjb
pD:__ZN8Animator8TransferI14SafeBinaryReadEEvRT_
WVb:__ZN27IntermediateRendererManager24GetIntermediateRenderersEi
A1:__Z23AsyncReadForceCloseFileRKN4core12basic_stringIcNS_20StringStorageDefaultIcEEEE
Ut:__ZN17AnimationPlayable34CollectAnimatorControllerPlayablesER13dynamic_arrayIP26AnimatorControllerPlayableLj4EE
RO:__ZN16BaseVideoTexture19UpdateVideoTexturesEv
Q0d:_MonoField_GetValue_m3124733531
dWa:__Z28BuildSingleStreamChannelInfo17ShaderChannelMaskRK20VertexChannelsLayoutS_S2_P11ChannelInfo
D6a:__ZN6Sprite23VirtualRedirectTransferER19StreamedBinaryWriteILb0EE
k$c:_EventTrigger_Execute_m2453060771
bci:_Comparison_1_Invoke_m517083441_gshared
mJg:__Z253RuntimeInvoker_Int32_t2950945753_RuntimeObject_Int32_t2950945753_Int32_t2950945753_RuntimeObject_Int32_t2950945753_UInt32U26_t3735378166_UInt32U26_t3735378166_RuntimeObject_DecoderFallbackBufferU26_t3866396827_ByteU5BU5DU26_t4057885439_SByte_t1669577662PFvvEPK10MethodInfoPvPS4_
lZi:__ZNK15dense_hashtableINSt3__24pairIK10KeyWrapperINS1_IPK9FieldInfoP11Il2CppClassEEEjEES9_17ReflectionMapHashIS8_EN14dense_hash_mapIS9_jSD_NS9_14EqualsComparerINS0_8equal_toIS8_EEEENS0_9allocatorISB_EEE9SelectKeyESI_SK_E5beginEv
Rna:__ZNK9ShaderLab7Program19HasMatchingVariantsERK13dynamic_arrayI16ShaderKeywordSetLj4EE
kB:__ZN15SerializeTraitsIN4math4trsXEE8TransferI8BlobSizeEEvRS1_RT_
xva:__ZN14DataBufferGLES11CopySubDataEPKS_jjj
fe:_emscripten_glVertexPointer
lPc:__ZN2UI13PrepareOutputERNS_7BatchesEjjNS_30AdditionalCanvasShaderChannelsE
nVi:__ZN6il2cpp2vm7Runtime47RaiseExecutionEngineExceptionIfMethodIsNotFoundEPK10MethodInfo
gpi:_PatternCompiler_GetMachineFactory_m3758869886
dTb:__Z17GetFrustumPortionPK8Vector3fffPS_
Uaj:__ZN15dense_hashtableINSt3__24pairIK10KeyWrapperIP14Il2CppIUnknownEjEES5_N6il2cpp5utils11PointerHashIS3_EEN14dense_hash_mapIS5_jSB_NS5_14EqualsComparerINS0_8equal_toIS4_EEEENS0_9allocatorIS7_EEE9SelectKeyESG_SI_E14squash_deletedEv
B$c:_EventTrigger_OnCancel_m585099428
pwi:_GUILayoutEntry_ApplyOptions_m1741659338
$dd:_RuntimeTypeHandle_Equals_m2857439487_AdjustorThunk
upa:__ZNK9GfxDevice27GetPlatformAdjustedViewportEv
t6h:_ReadOnlyCollection_1_System_Collections_Generic_IListU3CTU3E_set_Item_m88350439_gshared
ldi:_Func_3_Invoke_m1194147890_gshared
Rri:_Reference_Compile_m4195878675
hGi:_InputBuffer_remove_onCommandSent_m3139499669
H8h:_ReadOnlyCollection_1_System_Collections_ICollection_CopyTo_m2672196987_gshared
a9b:__ZN16StreamedResource8TransferI24GenerateTypeTreeTransferEEvRT_
Mug:_RectTransform_get_anchorMin_m2928307238
Nsd:_ArrayList__ctor_m3828927650
Fta:__ZThn9568_N13GfxDeviceGLES26EnableScissorRectsPlatformEv
HGa:__ZN10Matrix3x3f15InvertTransposeEv
Bwi:_GUILayoutGroup_SetHorizontal_m996475327
swi:_GUILayoutEntry__cctor_m663865902
lLb:__Z11IsBatchmodev
h0f:_Enumerator_System_Collections_IEnumerator_get_Current_m713684915_gshared
zrb:__Z29Transfer_Blittable_ArrayFieldI14SafeBinaryRead8Vector3fEvRT_R9ArrayInfoRK23StaticTransferFieldInfo
wJc:__ZN20TextRenderingPrivate8FontImpl18ResetCachedTextureEv
RTi:__ZN6il2cpp6icalls8mscorlib6SystemL16GetFieldFromTypeINS_5utils10functional6FilterINSt3__212basic_stringIcNS7_11char_traitsIcEENS7_9allocatorIcEEEENS4_13VmStringUtils21CaseSensitiveComparerEEEEEP21Il2CppReflectionFieldP11Il2CppClassSK_iRKT_
Kkc:__Z27Screen_Get_Custom_PropWidthv
qnj:_GC_print_finalization_stats
gxi:_GUITargetAttribute_GetGUITargetAttrValue_m2954410352
Vec:__Z53Register_UnityEngine_Behaviour_get_isActiveAndEnabledv
iod:_SimpleEnumerator_get_Current_m72361444
hq:__ZNSt3__26vectorIN4core12basic_stringIcNS1_20StringStorageDefaultIcEEEENS_9allocatorIS5_EEE8__appendEj
eP:__ZN13ProduceHelperI10SampleClipLb0EE7ProduceE10MemLabelId18ObjectCreationMode
ieb:__ZN26PlayerSettingsSplashScreen8TransferI17RemapPPtrTransferEEvRT_
I3e:_ASN1_set_Value_m2803403806
YTi:__ZN6il2cpp6icalls8mscorlib6SystemL17CollectTypeFieldsINS_5utils10functional10TrueFilterEEEvP11Il2CppClassPKS7_iRNSt3__26vectorIP9FieldInfoNSB_9allocatorISE_EEEERKT_
I1b:__Z13GetTagManagerv
Nld:_Hashtable__ctor_m1815022027
L8f:_UTF8Encoding_GetChars_m1433288684
$Ji:__ZL10roundUp128PyS_
qR:__ZN11UnityEngine15CloudWebService17CloudJobSchedulerD0Ev
Lhe:_ArrayReadOnlyList_1_Contains_m381552673_gshared
tcg:_TimeZone_ToUniversalTime_m2789507578
ICg:__Z96RuntimeInvoker_Boolean_t97287965_RuntimeObject_RuntimeObject_Int32_t2950945753_Int32_t2950945753PFvvEPK10MethodInfoPvPS4_
OLf:_Array_IndexOf_TisUICharInfo_t75501106_m3198896198_gshared
HNc:__ZNK2UI11CanvasGroup22GetTypeVirtualInternalEv
gde:_Context_get_Current_m2853615040
sGi:_Keyboard_WarnIfTerminalNotConneced_m1063217717
$mc:__Z21CleanupGlobalGUIStatev
vdg:_Type_IsContextfulImpl_m3693603908
$0f:_Enumerator_VerifyState_m2873941769_gshared
OAb:__Z18Transfer_BlittableI18StreamedBinaryReadILb0EELb1EN4math12int3_storageEEvRK29SerializationCommandArgumentsR31RuntimeSerializationCommandInfo
eIa:__ZN22VertexDeclarationCache5ClearEv
Hfd:_CspParameters__ctor_m3852972821
i_b:__ZN17PersistentManager12SetPathRemapERKN4core12basic_stringIcNS0_20StringStorageDefaultIcEEEES6_
xw:__Z27ProcessRootMotionEmptyMixerP35AnimationPlayableEvaluationConstantP32AnimationPlayableEvaluationInputP33AnimationPlayableEvaluationOutput
GUb:__ZN6Camera24PrepareCullingParametersERK23CameraCullingParameters13RenderingPathR11CullResults
ubc:__Z12SetIUISystemP9IUISystem
Bgb:__ZN19RuntimeSceneManager22EndIntegrateMainThreadEP10UnitySceneNS_11LoadingModeE
e0h:_Array_Sort_TisUICharInfo_t75501106_m3474449559_gshared
$sb:__Z26Transfer_UnityEngineObjectI17RemapPPtrTransferLb0EEvRK29SerializationCommandArgumentsR31RuntimeSerializationCommandInfo
dqi:_QuickSearch_GetShiftDistance_m2542665852
E2h:_Array_InternalArray__get_Item_TisCustomAttributeTypedArgument_t2723150157_m2639399822_gshared
Z1e:_BigInteger_GenerateRandom_m3141592944
uvb:__Z29Transfer_Blittable_ArrayFieldI24GenerateTypeTreeTransfer4AABBEvRT_R9ArrayInfoRK23StaticTransferFieldInfo
Chf:_Interval_Contains_m1454846757
S9c:_Graphic_CacheCanvas_m1120385152
guj:_emscripten_GetProcAddress
Ca:invoke_fiiifii
Cvj:_modff
CYa:__ZN20SphericalHarmonicsL219AddDirectionalLightERKN4math7_float3ERKNS0_7_float4E
Kea:__Z26ScheduleJobForEachInternalR8JobFencePFvPvjES1_iPFvS1_E11JobPriority
YKb:__ZZ23InitPlayerLoopCallbacksvEN41PostLateUpdateProfilerEndFrameRegistrator7ForwardEv
Obc:__ZN9Scripting18RaiseMonoExceptionEPKcz
hNc:__ZN2UI13UIInstruction19ClearSharedMeshDataER8JobFence
Q7b:__ZN10GameObject17WillHandleMessageERK17MessageIdentifier
zmf:_StrongNamePublicKeyBlob_Equals_m3655422942
wnf:_SecurityContext__ctor_m1730177197
VIi:_RectTransformUtility_GetTransposed_m3952754222
U5b:__ZN9ShaderLab16FastPropertyName15InitBy28BitHashEj
I0g:_List_1_System_Collections_IList_set_Item_m4182383657_gshared
QFg:__Z96RuntimeInvoker_Void_t1185182177_Int32_t2950945753_Single_t1397266774_RuntimeObject_RuntimeObjectPFvvEPK10MethodInfoPvPS4_
Pve:_Enumerator_System_Collections_IDictionaryEnumerator_get_Key_m195047678_AdjustorThunk
JHi:_Canvas_get_pixelPerfect_m333060872
Z9a:__ZN17PackedFloatVector12UnpackFloatsEPfiiii
Cz:__ZN17AnimationPlayable28UpdateInternalStateRecursiveILi3ELb0EEEvPK35AnimationPlayableEvaluationConstant
Dsa:__ZN13GfxDeviceGLES21DestroyComputeProgramER12ObjectHandleI18ComputeProgram_TagPvE
Cpi:_PatternCompiler_EmitIfDefined_m2075050865
Lxf:_Decimal_System_IConvertible_ToInt64_m1446427516_AdjustorThunk
xca:__ZN17UniqueIDGenerator16DestroyPureIndexEj
UQd:_NotImplementedException__ctor_m3095902440
W$:__ZL21AppendNestedClassName17ScriptingClassPtrRN4core17string_with_labelILi1EEE
via:__ZN14SafeBinaryRead21TransferSTLStyleArrayINSt3__26vectorIN9ShaderLab20SerializedSubProgram12UAVParameterENS1_9allocatorIS5_EEEEEEvRT_17TransferMetaFlags
EGi:_FontTextureRebuildCallback_Invoke_m3604797831
AS:__ZN24TextDOMTransferWriteBaseI9JSONWriteE12PushMetaFlagEi
uth:__ZL59_PropertyBuilder_t1366136710_CustomAttributesCacheGeneratorP21CustomAttributesCache
iBa:__ZN6prcoreL26RemapGenericIntegerToFloatI17TexFormatARGB888815TexFormatRFloatEEvPKNS_9InnerInfoE
qTi:__ZN6il2cpp2vm10ThreadPool10InitializeEv
g4g:_List_1__ctor_m808270210_gshared
kXi:__ZN6il2cpp2vm17TypeNameParseInfoD2Ev
_Zf:_PrimeHelper_ToPrime_m3704362632_gshared
YI:__ZN4FMOD7Channel7setModeEj
txf:_Decimal_System_IConvertible_ToType_m2919262279
fzg:_Vector2_get_right_m1027081661
vX:__ZNK8Renderer8GetLayerEv
QLd:_Stream_Close_m771352034
Pte:__ZN21InterfaceFuncInvoker1Ii19TimeSpan_t881159249E6InvokeEjP11Il2CppClassP12Il2CppObjectS0_
qPb:__ZNK6Camera20GetReplacementShaderEv
g7g:_List_1_System_Collections_IList_Remove_m4226673807_gshared
Erj:__ZNSt3__26__treeINS_12__value_typeINS_12basic_stringIcNS_11char_traitsIcEENS_9allocatorIcEEEEPFvvEEENS_19__map_value_compareIS7_SA_NS_4lessIS7_EELb1EEENS5_ISA_EEE4findIS7_EENS_15__tree_iteratorISA_PNS_11__tree_nodeISA_PvEEiEERKT_
xya:__ZL23stbir__calculate_memoryP11stbir__info
Mgf:_Interpreter_Close_m126356671
s9a:__ZNK6Camera18GetRenderRectangleEv
O7a:__ZN13sorted_vectorIN4core12basic_stringIcNS0_20StringStorageDefaultIcEEEENSt3__24lessIS4_EE13stl_allocatorIS4_L18MemLabelIdentifier81ELi16EEE4findIS4_EENS5_11__wrap_iterIPS4_EERKT_
vqi:_Parser_HandleExplicitNumericGroups_m1412234891
b3h:_Array_InternalArray__get_Item_TisRaycastHit2D_t2279581989_m2440275162_gshared
kUd:_CustomAttributeNamedArgument_Equals_m1414002036
guc:__ZL26Transfer_SimpleNativeClassI8JSONRead10RectOffsetLb1EEvRK29SerializationCommandArgumentsR31RuntimeSerializationCommandInfo
hpg:_Material_SetInt_m475299667
SQc:__Z44CanvasRenderer_CUSTOM_INTERNAL_CALL_SetColorP12Il2CppObjectRK10ColorRGBAf
AAe:_Enumerator_MoveNext_m3045873697_AdjustorThunk
x$f:_Enumerator_System_Collections_IEnumerator_Reset_m959124362_AdjustorThunk
WBf:_Enum_ToObject_m121831801
fcd:_Image_get_hasBorder_m3423344180
Xqc:__Z18Transfer_BlittableI9JSONWriteLb1EsEvRK29SerializationCommandArgumentsR31RuntimeSerializationCommandInfo
vcc:__ZN9Transform16SetLocalRotationERK11Quaternionf
m9c:_FontData_set_richText_m993590067
HLb:__ZN13RenderManager37RenderCamerasWithScriptableRenderLoopEi
jbg:_TimeSpan__ctor_m3689759052
tB:__ZN7mecanim8skeleton25SkeletonPoseComputeLocalQEPKNS0_8SkeletonEPKNS0_13SkeletonPoseTIN4math4trsXEEEPS7_ii
G$g:__Z37RuntimeInvoker_Enumerator_t3123848928PFvvEPK10MethodInfoPvPS4_
$dj:__ZN6il2cpp2os19ReleaseSocketHandleEj
cO:__ZN11AudioModule16GetDSPSampleRateEv
xIb:__ZN15InstancingProps11NewConstantERKN9ShaderLab16FastPropertyNameEj15ShaderParamTypehhjjP6Object
VOe:_InputField_get_characterValidation_m4196664041
Bcg:_Type_get_Attributes_m58528356
xjd:_Array_GetUpperBound_m4018715963
foi:_X509Store__ctor_m2736551756
agj:__ZN6il2cpp2os5posix15PosixWaitObjectC2ENS2_4TypeE
DNb:__ZN6Camera21PostMultiCustomRenderENS_10RenderFlagEb
VPf:_Array_InternalArray__Insert_TisMonoResource_t4103430009_m1997865927_gshared
vkf:_SHA512Managed_HashFinal_m2173184560
lIb:__ZN23ShaderVariantCollection13WarmupShadersEv
X3b:__ZN13ProduceHelperI9TransformLb0EE7ProduceE10MemLabelId18ObjectCreationMode
E$:__Z25GetCommonScriptingClassesv
Zgb:__Z27scripting_gc_collect_unsafei
o8d:_MD5SHA1_HashFinal_m4115488658
hO:__ZN11AudioModule20SuspendVideoTexturesEv
qNf:_Array_InternalArray__ICollection_Add_TisKeyValuePair_2_t71524366_m3468275433_gshared
PAi:_AudioSettings_InvokeOnAudioManagerUpdate_m4044425648
mQ:__Z59Register_UnityEngine_AudioExtensionManager_GetAudioListenerv
Nub:__Z26Transfer_UnityEngineObjectI24GenerateTypeTreeTransferLb0EEvRK29SerializationCommandArgumentsR31RuntimeSerializationCommandInfo
tAd:_Convert_ToDouble_m278900635
iAc:_UNITY_FT_GlyphLoader_CheckPoints
Hlg:_DebugLogHandler_LogException_m302830419
QQe:_InputField_LineDownCharacterPosition_m2798128425
pxe:_Enumerator_System_Collections_IDictionaryEnumerator_get_Value_m684446183_AdjustorThunk
xUa:__ZN15SharedLightData7PrecalcEv
N1:__ZN10Matrix4x4fmLERKS_
ytg:_Vector2__ctor_m3970636864
jyb:__Z35Transfer_Blittable_FixedBufferFieldI18StreamedBinaryReadILb1EEsEvRK29SerializationCommandArgumentsR31RuntimeSerializationCommandInfo
sCf:_Environment_InternalGetFolderPath_m468390978
YNa:__ZN15ArchiveReadFileD0Ev
hUc:__ZN11UnityEngine15PlatformWrapper18GetOperatingSystemEv
eof:_SecurityFrame_ToString_m339310712
Kuc:__ZN8GUIStyle8TransferI8JSONReadEEvRT_
a3c:_TouchInputModule_ProcessTouchPress_m3504077560
zZe:_Selectable_IsInteractable_m2611421038
Nzc:_FT_MSB
pGj:_emscripten_glReadPixels__wrapper
p_f:_HashSet_1_Add_m1971460364_gshared
Urj:__ZN6il2cpp6icalls8mscorlib4Mono8Security12Cryptography18KeyPairPersistence10_CanSecureEP12Il2CppString
zHf:_Array_InternalArray__ICollection_Contains_TisParameterModifier_t1461694466_m1000453323_gshared
fSf:_Dictionary_2_System_Collections_ICollection_CopyTo_m4047192178_gshared
TVi:__ZN6il2cpp2os4File11GetFileStatERKNSt3__212basic_stringIcNS2_11char_traitsIcEENS2_9allocatorIcEEEEPNS0_8FileStatEPi
Yhf:_RIPEMD160Managed_Initialize_m2173168986
H5b:__ZN9TransformC2E10MemLabelId18ObjectCreationMode
Poa:__ZN13GfxDeviceGLES14SetRasterStateEPK17DeviceRasterState
USd:_Assembly_ToString_m2053237013
Mpg:_Vector4_Equals_m1779210055
cCc:_otv_Coverage_get_count
F2d:_ParameterModifier_t1461694466_marshal_pinvoke_back
E2:__ZN14SafeBinaryRead11EndTransferEv
xYf:_EqualityComparer_1__cctor_m2741186979_gshared
zpb:__ZN14SafeBinaryRead8TransferI8MonoPPtrEEvRT_PKc17TransferMetaFlags
MBf:_Enum_System_IConvertible_ToUInt16_m4216751959
oGa:__ZN21UniformBufferTFMethod13MapBoneBufferEj
cGi:_StringExtension_Anagram_m968226828
MPf:_Array_InternalArray__Insert_TisInt32_t2950945753_m4073217122_gshared
zif:_RNGCryptoServiceProvider_RngClose_m3915778345
vyd:_SortedList_Remove_m2784369438
vxa:__ZN4crnd12crn_unpacker10unpack_dxnEPPhjjj
m0:__ZN14SerializedFileD2Ev
Inc:__Z30Event_Get_Custom_PropModifiersP12Il2CppObject
hu:__ZN7mecanim9animation16CreateClipOutputEPKNS0_4ClipERNS_6memory9AllocatorE
vVe:_RawImage_get_mainTexture_m2396337033
gYi:__ZN6il2cpp2vm10Reflection17GetAssemblyObjectEPK14Il2CppAssembly
ZCb:__ZNSt3__218__stable_sort_moveIRN10vector_mapI17ScriptingClassPtrPKN5Unity4TypeENS_4lessIS2_EENS_9allocatorINS_4pairIS2_S6_EEEEE13value_compareENS_11__wrap_iterIPSB_EEEEvT0_SJ_T_NS_15iterator_traitsISJ_E15difference_typeEPNSM_10value_typeE
Zga:__ZN6Shader21AwakeFromLoadThreadedEv
kAa:__ZN6prcoreL17RemapGenericFloatI17TexFormatRGBFloat17TexFormatRGBAHalfEEvPKNS_9InnerInfoE
U1e:_BigInteger__ctor_m3991350270
Uyg:_Vector2_GetHashCode_m3916089713_AdjustorThunk
etj:__ZN6il2cpp2os9SemaphoreC2Eii
Bpb:__ZNSt3__26vectorI8MonoPPtr13stl_allocatorIS1_L18MemLabelIdentifier1ELi16EEE8__appendEj
gOb:__ZN14qsort_internal30FindAndMovePivotToLastPositionIP17RODataReplacementi19ROSorterReplacementEEvT_S4_T0_T1_
zGa:__ZN15UniformTFMethod20IsBoneCountSupportedEi
Ogg:_UnauthorizedAccessException__ctor_m246605039
a5b:__Z12BuildTextureIA4_tPFvP9Texture2DPS0_iiiiEES2_PKcii13TextureFormatRKT0_17TextureColorSpaceb
Tzj:dynCall_viidi
U_:__ZN24ScriptingMethodFiltering17FilterOnSignatureENS_18MethodSearchFilterE
IZb:__ZN18ScreenManagerWebGL13SetLockCursorE14CursorLockMode
vae:_CipherSuite_DecryptRecord_m1495386860
Wmi:_X509Certificate_VerifySignature_m3538124832
ULd:_StreamAsyncResult_SetComplete_m1102187093
Asi:_CharacterClass_GetIntervalCost_m4036989868
v3b:__ZN13MonoBehaviour19HandleNotificationsEPviR11MessageData
vug:_RectOffset_Init_m2028508611
Htj:__ZN6il2cpp2os9EventImpl5ResetEv
z9d:_Alert__ctor_m3135936936
iGd:_Int64_System_IConvertible_ToInt32_m772105781
Nji:_TlsClientSettings__ctor_m3220697265
h0i:__ZNK15dense_hashtableINSt3__24pairIK10KeyWrapperINS1_IPK9EventInfoP11Il2CppClassEEEjEES9_17ReflectionMapHashIS8_EN14dense_hash_mapIS9_jSD_NS9_14EqualsComparerINS0_8equal_toIS8_EEEENS0_9allocatorISB_EEE9SelectKeyESI_SK_E23find_position_with_hashERSA_j
mDj:b58
xRf:_Dictionary_2_make_pair_m2250450206_gshared
s6f:_ForwardingDecoder_GetChars_m4228908854
fhf:_InterpreterFactory_get_GroupCount_m2226373271
fDj:b53
UCj:b50
VCj:b51
kDj:b56
lDj:b57
iDj:b54
jDj:b55
O0e:_SimpleCollator_IsSafe_m310268646
Ijd:_X509Certificate_get_RawData_m2387471414
REj:_glDetachShader__wrapper
pod:_ArrayTypeMismatchException__ctor_m3375008173
Iye:_Transform_1_BeginInvoke_m1757796657_gshared
pWg:__Z88RuntimeInvoker_Int32_t2950945753_UIVertex_t4057497605_UIVertex_t4057497605_RuntimeObjectPFvvEPK10MethodInfoPvPS4_
j7b:__ZN10GameObject12CleanupClassEv
Dpa:__ZN9GfxDevice25SetShaderPropertiesSharedERK19ShaderPropertySheet
V3c:_BaseMeshEffect_get_graphic_m1852367505
Gvd:_CaseInsensitiveHashCodeProvider_GetHashCode_m2168170016
rrf:_String_CreateString_m3400201881
D6b:__ZL25InitializeDefaultMaterialv
rRc:__Z53Register_UnityEngine_CanvasRenderer_get_materialCountv
XZd:_PropertyBuilder_GetCustomAttributes_m3798356764
J2d:_PropertyInfo_get_MemberType_m2794839864
Lue:_Comparer_1_System_Collections_IComparer_Compare_m4179495191_gshared
jMa:__ZN17PersistentManager12UnloadStreamERKN4core12basic_stringIcNS0_20StringStorageDefaultIcEEEEb
XOa:__ZN10MemoryFile4ReadEyyPvPy
rQf:_Array_InternalArray__Insert_TisUICharInfo_t75501106_m2924156520_gshared
gNf:_MonoProperty_GetterAdapterFrame_TisRuntimeObject_TisRuntimeObject_m458718082_gshared
X5a:__ZN13ScreenManager17RequestResolutionEiibi
o4i:_il2cpp_unity_liveness_calculation_from_statics
Qx:__ZNK26AnimatorControllerPlayable11DerivesFromE17ScriptingClassPtr
gse:_InternalEnumerator_1_System_Collections_IEnumerator_get_Current_m2649471526_gshared
_5:__ZN8Renderer8TransferI17RemapPPtrTransferEEvRT_
bpa:__ZN13GfxDeviceGLES26UpdateViewProjectionMatrixEv
Lve:_Enumerator_System_Collections_IDictionaryEnumerator_get_Entry_m522483686_gshared
P5e:_PrivateKeyInfo_RemoveLeadingZero_m3921889925
T9f:_Thread_get_CurrentContext_m1695017876
GXb:__Z24LookRotationToQuaternionRK8Vector3fS1_P11Quaternionf
EXb:__ZN16ReflectionProbes9GetCameraEv
Rma:__ZL18IsGpuProgramUsable20ShaderGpuProgramTypePK6Shader
TPc:__ZN2UI6Canvas17SetSortingLayerIDEi
Zfj:__ZN6il2cpp2vm11MethodStack23CleanupForCurrentThreadEv
A4h:_Collection_1_ConvertItem_m618594517_gshared
oCd:_Convert_ToUInt64_m388601487
tVa:__ZN20TierGraphicsSettings8TransferI24GenerateTypeTreeTransferEEvRT_
SPi:__ZN15dense_hashtableINSt3__24pairIK10KeyWrapperIN6il2cpp5utils13dynamic_arrayIPK10Il2CppTypeLj4EEEEPFvvEEESA_NS3_8metadata19Il2CppSignatureHashEN14dense_hash_mapISA_SD_SG_NSA_14EqualsComparerINSF_22Il2CppSignatureCompareEEENS0_9allocatorISE_EEE9SelectKeyESK_SM_E16reset_thresholdsEv
hqg:_Mesh_get_vertices_m3585684815
orb:__ZN14SafeBinaryRead21TransferSTLStyleArrayI13dynamic_arrayI4AABBLj4EEEEvRT_17TransferMetaFlags
yxg:_TouchScreenKeyboard_get_text_m1797464608
OYb:__ZN26CustomRenderTextureManager25UpdateCustomRenderTextureEP19CustomRenderTexturei
Ofa:__ZNSt3__26__treeINS_12__value_typeIiN11TypeManager18TypeCallbackStructEEENS_19__map_value_compareIiS4_NS_4lessIiEELb1EEENS_9allocatorIS4_EEE7destroyEPNS_11__tree_nodeIS4_PvEE
UEb:__ZN13MonoBehaviour18TransferEngineDataI24GenerateTypeTreeTransferEE4PPtrI10MonoScriptERT_
T8b:__ZNK14PlayableOutput23GetSourcePlayableUnsafeEv
eTc:__ZN11UnityEngine7Connect17XRDeviceInfoEventD0Ev
zuh:__ZL60SoapTypeAttribute_t1750930817_CustomAttributesCacheGeneratorP21CustomAttributesCache
ATd:_Binder_ConvertArgs_m2124461494
PV:__ZN21UnityDefaultAllocatorI17LowLevelAllocatorE10DeallocateEPv
ts:__ZN15PackedIntVector8TransferI14SafeBinaryReadEEvRT_
hzg:_Vector3__ctor_m3353183577_AdjustorThunk
Wke:_InternalEnumerator_1_System_Collections_IEnumerator_get_Current_m1514266661_gshared
n8d:_MD5SHA1_Initialize_m675470944
bOf:_Array_InternalArray__ICollection_Add_TisKeyframe_t4206410242_m442111799_gshared
J4g:_List_1_CheckMatch_m3263549496_gshared
AH:__ZN13AudioListener8DoUpdateEv
VFd:_Int32_GetTypeCode_m1648562395_AdjustorThunk
Dzd:__Z13bankers_roundd
Zdb:__ZN14SafeBinaryRead8TransferI5RectTIfEEEvRT_PKc17TransferMetaFlags
ri:_emscripten_glGenFramebuffers
Ifa:__ZN17BaseObjectManager16StaticInitializeEPv
F4f:_List_1_CheckCollection_m2602703205_gshared
Drc:__Z18Transfer_BlittableI9JSONWriteLb0EyEvRK29SerializationCommandArgumentsR31RuntimeSerializationCommandInfo
q_a:__ZN13RenderTexture15ThreadedCleanupEv
ycf:_X509BasicConstraintsExtension__ctor_m3721156175
H1a:__ZN12CubemapArray23VirtualRedirectTransferER14SafeBinaryRead
lu:__ZN21AnimationClipPlayable16ProcessHumanPassEPK35AnimationPlayableEvaluationConstantPK32AnimationPlayableEvaluationInputP33AnimationPlayableEvaluationOutput
uId:_Path_GetFileName_m1354558116
a4e:_BitConverterLE_ToDouble_m1601000678
PDj:_emscripten_glUniform3i__wrapper
dug:_Rect_Contains_m1232228501_AdjustorThunk
iic:__Z43RectTransform_CUSTOM_INTERNAL_set_sizeDeltaP12Il2CppObjectRK13Vector2fIcall
rGd:_Int64_System_IConvertible_ToType_m3223988955_AdjustorThunk
Pbj:__ZN15dense_hashtableINSt3__24pairIK10KeyWrapperINS1_IPKcS4_EEEiEES6_24NamespaceAndNamePairHashN14dense_hash_mapIS6_iS9_NS6_14EqualsComparerI26NamespaceAndNamePairEqualsEENS0_9allocatorIS8_EEE9SelectKeyESD_SF_E6insertERKS8_
X5:__ZN24GenerateTypeTreeTransfer18BeginArrayTransferEPKcS1_Ri17TransferMetaFlags
$2h:_Array_InternalArray__get_Item_TisPlayableBinding_t354260709_m3837494573_gshared
om:___syscall51
qmc:__Z26BeforeDomainReloadCallbackv
Roi:_MatchCollection_get_FullList_m1829231879
sm:___syscall54
end:_Array_GetValue_m2528415604
lvg:_Transform_INTERNAL_CALL_TransformPoint_m4261269221
zGf:_Guid_AppendShort_m791023083
d5g:_List_1__ctor_m4212503576_gshared
_na:__ZN9ShaderLab9SubShader19CreateFromSubShaderERKS0_
jAc:_cff_builder_add_point1
Ycj:__ZN6il2cpp2vm5Image21GetCachedResourceDataEPK11Il2CppImageRKNSt3__212basic_stringIcNS5_11char_traitsIcEENS5_9allocatorIcEEEE
iob:__Z18Transfer_BlittableI14SafeBinaryReadLb0E10ColorRGBAfEvRK29SerializationCommandArgumentsR31RuntimeSerializationCommandInfo
za:invoke_iiiiiiiiii
OP:__ZN11AudioSource25GetNumExtensionPropertiesEv
nPf:_Array_InternalArray__ICollection_CopyTo_TisUILineInfo_t4195266810_m104406798_gshared
vsd:_Char_ToLowerInvariant_m1926695830
tlg:_Debug_LogErrorFormat_m3558239521
O9c:_Graphic_get_canvas_m3320066409
nQe:_InputField_ActivateInputFieldInternal_m3360893886
fG:__ZN4FMOD7SystemI11createSoundEPKcjP22FMOD_CREATESOUNDEXINFOPPNS_5SoundE
Q$b:__ZN10FileSystem19SetCurrentDirectoryERKN4core12basic_stringIcNS0_20StringStorageDefaultIcEEEE
Bkg:_Component_get_gameObject_m442555142
AOd:_Math_Log_m2526073084
Nec:__Z47Register_UnityEngine_Coroutine_ReleaseCoroutinev
lI:__ZN15AudioReverbZone13SetFMODValuesEv
GZ:__ZN14SafeBinaryRead4InitERK16TypeTreeIteratorxx24TransferInstructionFlags10MemLabelId
Tga:__ZL19StaticDestroyShaderPv
ae:_glRenderbufferStorageMultisample
C8b:__ZN8Playable4PlayEv
Xxd:_SyncHashtable_Clone_m3726939774
$y:__ZN23AnimationPlayableOutput17SetTargetAnimatorEP8Animator
_sc:__ZN9JSONWrite8TransferI13dynamic_arrayIN4math12int3_storageELj4EEEEvRT_PKc17TransferMetaFlags
wQb:__ZN22MotionVectorRenderLoopD2Ev
vlg:_Debug_LogException_m2207318968
kNf:_Array_InternalArray__ICollection_Add_TisClientCertificateType_t1004704908_m2622721177_gshared
Bs:__ZN17PackedFloatVector8TransferI18StreamedBinaryReadILb0EEEEvRT_
I2a:__ZN7Cubemap23VirtualRedirectTransferER17RemapPPtrTransfer
Nkc:__Z37Register_UnityEngine_Screen_get_widthv
fui:_Uri_get_Authority_m3816772302
R9b:__ZN22BlockMemoryCacheWriter11GetPathNameEv
Tbf:_X509BasicConstraintsExtension__ctor_m1244152959
pxg:_Touch_get_position_m3109777936
U1d:_ParameterInfo__ctor_m3269320476
zff:_X509SubjectKeyIdentifierExtension_FromHexChars_m3244835916
Rof:_Single_CompareTo_m2785801815
Fli:_PKCS12_MAC_m3355614022
_o:stackAlloc
ffc:__Z44Camera_CUSTOM_INTERNAL_CALL_ScreenPointToRayP12Il2CppObjectRK8Vector3fR3Ray
hPa:__ZN25SingleBlockMemoryFileData4LockEPPv
uHj:_glProgramParameteri__wrapper
BZ:__ZN17PersistentManager23PostReadActivationQueueEiPK8TypeTreeb
Kgc:__Z32RectOffset_Get_Custom_PropBottomP12Il2CppObject
plg:_Debug_LogError_m2850623458
nhh:_Collection_1_CheckWritable_m3225530705_gshared
UHj:_emscripten_glGetObjectParameterivARB__wrapper
Ovj:_stat
q4:__ZN9ShaderLab10SubProgram7CompileEv
zIb:__ZN15InstancingProps14CombineBuiltinEN10Instancing11BuiltinPropES1_S1_
QZd:_PropertyBuilder_get_CanRead_m3783190070
p0:__ZN14SerializedFile14SerializedTypeD2Ev
rNf:_Array_InternalArray__ICollection_Add_TisKeyValuePair_2_t3699644050_m4052349323_gshared
Iae:_CipherSuiteCollection_System_Collections_IList_get_Item_m2175128671
dSa:__ZN6CameraD2Ev
la:invoke_iiiiiiiiiiii
fuf:_DateTime_System_IConvertible_ToType_m1242864300_AdjustorThunk
qre:_InternalEnumerator_1_get_Current_m2446410893_AdjustorThunk
cWa:__Z29CalculateDefaultChannelsToAdd17ShaderChannelMaskS_
IRa:__ZN10TagManager13RegisterLayerEjRKN4core12basic_stringIcNS0_20StringStorageDefaultIcEEEE
lIa:__ZNSt3__26__treeI20DeviceBlendStateGLES14MemoryCompLessI16DeviceBlendStateENS_9allocatorIS1_EEE7destroyEPNS_11__tree_nodeIS1_PvEE
tIi:_CanvasRenderer_SetMaterial_m633746949
hL:__ZN10AudioMixer12RebindOutputEv
J5i:__ZNK15dense_hashtableINSt3__24pairIK10KeyWrapperIP11Il2CppClassES4_EES5_N6il2cpp8metadata16SZArrayClassHashEN14dense_hash_mapIS5_S4_SA_NS5_14EqualsComparerINS9_19SZArrayClassCompareEEENS0_9allocatorIS7_EEE9SelectKeyESE_SG_E5beginEv
rTe:_LayoutRebuilder_PerformLayoutControl_m4241054021
uLi:__ZN6il2cpp2vm17SetupFieldsLockedEP11Il2CppClassRKNS_2os12FastAutoLockE
lHb:__ZNK9GfxDevice20IsViewportFullscreenEv
ZCa:__ZN18GlslGpuProgramGLES13SwitchProgramEj
VPa:__ZN20ArchiveStorageReaderC2E10MemLabelId
gCg:__Z132RuntimeInvoker_Int32_t2950945753_RuntimeObject_Int32_t2950945753_Int32_t2950945753_RuntimeObject_Int32_t2950945753_Int32_t2950945753PFvvEPK10MethodInfoPvPS4_
Bmb:__ZN16MemoryFileSystem4NameEv
oof:_Single_System_IConvertible_ToBoolean_m1716619219_AdjustorThunk
Ikc:__Z13SetCopyBufferRKN4core12basic_stringIcNS_20StringStorageDefaultIcEEEE
dki:_TlsException__ctor_m818940807
Wjd:_X509CertificateEnumerator_System_Collections_IEnumerator_get_Current_m418791713
IKc:_UNITY_FT_New_Size
ddc:__Z42ScriptingGetComponentsOfTypeFromGameObjectRK26ScriptingGetComponentsArgs
kLh:__ZL73ArgumentCache_t2187958399_CustomAttributesCacheGenerator_m_ObjectArgumentP21CustomAttributesCache
H0h:_Array_swap_TisRaycastResult_t3360306849_TisRaycastResult_t3360306849_m3400922624_gshared
sAi:_AudioListener_ReadExtensionName_m929423100
Gfd:_CspParameters__ctor_m2741097571
Q0a:__ZNSt3__27__sort4IRPFbRKNS_4pairIN9ShaderLab16FastPropertyNameEN18UnityPropertySheet11UnityTexEnvEEES8_EPS6_EEjT0_SD_SD_SD_T_
hzc:_cf2_hintmap_build
$wg:_Texture_get_width_m888163864
qIc:_Line_Up
Yzb:__Z29Transfer_Blittable_ArrayFieldI18StreamedBinaryReadILb1EExEvRT_R9ArrayInfoRK23StaticTransferFieldInfo
he:_emscripten_glBufferSubData
Pqf:_String_ReplaceUnchecked_m1381393810
Ute:_DefaultComparer_Compare_m3278268937_gshared
Rp:__Z17CalculateGlobalRS23TransformAccessReadOnly
rqj:__ZNSt3__210__list_impIPN6il2cpp5utils10MemoryPool6RegionENS_9allocatorIS5_EEE5clearEv
krb:__ZN14SafeBinaryRead21TransferSTLStyleArrayI13dynamic_arrayI9BoundsIntLj4EEEEvRT_17TransferMetaFlags
Tib:__ZN22MemoryCacherReadBlocks14LockCacheBlockEjPPhS1_
VWi:__ZN6il2cpp2vm14TypeNameParser17ParseAssemblyNameEv
n9a:__ZNK9GfxDevice26GetSinglePassStereoEyeMaskEv
Elg:_DebugLogHandler_Internal_Log_m4175774469
zkj:__ZN4utf88internal15increase_safelyIPKcEENS0_9utf_errorERT_S5_
vLi:__ZN6il2cpp2vmL21SetupPropertiesLockedEP11Il2CppClassRKNS_2os12FastAutoLockE
XJc:__ZN20TextRenderingPrivate8FontImpl16CacheFontForTextEPtiifjPK13dynamic_arrayINS_16TextFormatChangeELj4EE
Gsd:_CharEnumerator_get_Current_m525608209
D_c:__Z21ArrayElementTypeCheckP11Il2CppArrayPv
zGj:_emscripten_glTexSubImage2D__wrapper
Zzf:_StackTrace_init_frames_m641783388
lcf:_PublicKey_DecodeRSA_m1824703659
Gxj:__ZNSt3__212basic_stringIcNS_11char_traitsIcEENS_9allocatorIcEEE6appendEjc
PCb:__Z13TransferFieldI18StreamedBinaryReadILb0EELb0E16Converter_StringEvRK23StaticTransferFieldInfoR31RuntimeSerializationCommandInfoRT1_
xSc:__Z42Register_UnityEngine_Canvas_get_rootCanvasv
Ctd:_ArrayListWrapper_set_Item_m3849584877
Qe:_TTF_RenderText_Solid
$2f:_List_1__ctor_m3947764094_gshared
Ysi:_Parser_IsIgnorePatternWhitespace_m2107132682
x9e:_HttpRequestCreator_Create_m400548686
QWc:__ZN11UnityEngine7Connect16PersistentValuesC2Ev
vai:_ReadOnlyCollection_1_System_Collections_IList_Insert_m134149130_gshared
hrc:__Z18Transfer_BlittableI9JSONWriteLb0E5RectTIiEEvRK29SerializationCommandArgumentsR31RuntimeSerializationCommandInfo
Y1e:_BigInteger_get_Rng_m4216817480
qyc:_cf2_getStdVW
pIf:_Array_InternalArray__ICollection_Remove_TisDateTime_t3738529785_m2250893026_gshared
pDa:__Z15IsIEEE754Format14GraphicsFormat
etb:__Z19TransferField_ArrayI17RemapPPtrTransfer27Converter_UnityEngineObjectEvRK23StaticTransferFieldInfoR31RuntimeSerializationCommandInfoRT0_
Za:invoke_iifiii
twd:_KeyNotFoundException__ctor_m541499307
LJf:_SetPropertyUtility_SetStruct_TisSpriteState_t1362986479_m665096788_gshared
CCg:__Z61RuntimeInvoker_Single_t1397266774_RuntimeObject_RuntimeObjectPFvvEPK10MethodInfoPvPS4_
vIf:_Array_InternalArray__ICollection_Remove_TisIntPtr_t_m3807208150_gshared
lPg:__Z71RuntimeInvoker_Void_t1185182177_Vector3_t3722313464_Vector3_t3722313464PFvvEPK10MethodInfoPvPS4_
_ne:_InternalEnumerator_1_get_Current_m2316281569_AdjustorThunk
itf:_DateTime__ctor_m1095105629
Yqa:__ZN13GfxDeviceGLES15UploadTexture2DE9TextureID16TextureDimensionPKhiii14GraphicsFormati18TextureUploadFlags16TextureUsageMode
Mui:_Event_Cleanup_m2477919477
dK:__ZN4FMOD6System9createDSPEP20FMOD_DSP_DESCRIPTIONPPNS_3DSPE
Kyh:__ZL87Thread_t2300836069_CustomAttributesCacheGenerator_Thread_GetCompressedStack_m2923422412P21CustomAttributesCache
Rfe:_SslClientStream_get_ClientCertificates_m998716871
dG:__ZN4FMOD8ChannelI11EndCallbackEv
lnc:__ZN8GUIStyle14SetDefaultFontEPN13TextRendering4FontE
p5a:__ZN15QualitySettings23VirtualRedirectTransferER24GenerateTypeTreeTransfer
tNe:_ObjectReader_ReadValue_m3145979203
K4c:_CanvasScaler_OnDisable_m3424669401
EWh:__ZL68Scrollbar_t1494447233_CustomAttributesCacheGenerator_m_NumberOfStepsP21CustomAttributesCache
fOi:__ZN30dense_hashtable_const_iteratorINSt3__24pairIK10KeyWrapperIPK19Il2CppGenericMethodEPK26Il2CppGenericMethodIndicesEES6_N6il2cpp8metadata23Il2CppGenericMethodHashEN14dense_hash_mapIS6_SA_SE_NS6_14EqualsComparerINSD_26Il2CppGenericMethodCompareEEENS0_9allocatorISB_EEE9SelectKeyESI_SK_EppEv
Wxc:_UNITY_FT_Request_Metrics
Kaj:__ZN6il2cpp6icalls8mscorlib6System10Reflection10MonoMethod29get_IsGenericMethodDefinitionEP22Il2CppReflectionMethod
d7i:__ZN6il2cpp2vm6Thread21AllocThreadStaticDataEi
FTd:_Default_SelectMethod_m469311730
iog:_Input_get_mousePosition_m1616496925
Qn:FUNCTION_TABLE_difi
vjj:__ZN30dense_hashtable_const_iteratorINSt3__24pairIK10KeyWrapperIPK19Il2CppGenericMethodEP10MethodInfoEES6_N6il2cpp8metadata23Il2CppGenericMethodHashEN14dense_hash_mapIS6_S9_SD_NS6_14EqualsComparerINSC_26Il2CppGenericMethodCompareEEENS0_9allocatorISA_EEE9SelectKeyESH_SJ_EppEv
Lfg:_UInt32_ToString_m2066897296_AdjustorThunk
$O:__Z13RegisterClassI13AudioListenerEvv
pjb:__ZN24GenerateTypeTreeTransfer19TransferSTLStyleMapINSt3__23mapI4PPtrI6ShaderEN4core12basic_stringIcNS6_20StringStorageDefaultIcEEEENS1_4lessIS5_EENS1_9allocatorINS1_4pairIKS5_SA_EEEEEEEEvRT_17TransferMetaFlags
Kwd:_Enumerator_Reset_m4274366540
Gqc:__Z18Transfer_BlittableI9JSONWriteLb0E8Vector3fEvRK29SerializationCommandArgumentsR31RuntimeSerializationCommandInfo
Pf:_emscripten_glUniform4i
eCc:_otv_FeatureList_validate
$e:_emscripten_glUniform4f
yj:___unlock
mBc:_otv_validate
k_b:__ZN13sorted_vectorINSt3__24pairIN4core12basic_stringIcNS2_20StringStorageDefaultIcEEEES6_EEN10vector_mapIS6_S6_27compare_tstring_insensitiveIS6_E13stl_allocatorIS7_L18MemLabelIdentifier38ELi16EEE13value_compareESD_E9erase_oneIS6_EEjRKT_
Qlf:_X509Certificate_Equals_m3784196370
T8g:_List_1__ctor_m3376067838_gshared
xM:__ZN20SoundChannelInstance19setReverbPropertiesEP29FMOD_REVERB_CHANNELPROPERTIES
f1f:_Enumerator_MoveNext_m1446151600_gshared
Ejf:_SHA1Internal_ProcessFinalBlock_m1403775421
pkc:__Z40Register_UnityEngine_Transform_IsChildOfv
DLe:_RemotingServices_GetOrCreateClientIdentity_m648299611
ste:_InternalEnumerator_1_get_Current_m2356858238_AdjustorThunk
Vfc:__Z45Register_UnityEngine_Display_GetSystemExtImplv
d6e:_RSAManaged_ImportParameters_m1844641996
Sve:_Enumerator_System_Collections_IDictionaryEnumerator_get_Value_m3325938730_AdjustorThunk
lv:__ZN7mecanim9animation23TransformValuesFromClipEiiiRKNS_10ValueArrayERKNS0_10ClipOutputERKNS0_12ClipBindingsERS1_RNS_14ValueArrayMaskEb
yBe:_ValueCollection_System_Collections_ICollection_get_SyncRoot_m1114275063_gshared
fKi:__ZL17log2withScale_128yyi
pGf:_Guid_Equals_m1866984197
COc:__ZNSt3__218__insertion_sort_3IRNS_6__lessIN2UI14DepthSortEntryES3_EEPS3_EEvT0_S7_T_
mSd:_PlatformNotSupportedException__ctor_m1787918017
Gda:__ZN13RuntimeStaticI15DirectorManagerLb0EE16StaticInitializeEPv
B7h:_ReadOnlyCollection_1_System_Collections_ICollection_CopyTo_m2643246984_gshared
Lcb:__ZN11TimeManager6UpdateEv
X1f:_Enumerator_System_Collections_IEnumerator_get_Current_m209407522_gshared
D4c:_CanvasScaler_get_fallbackScreenDPI_m2811935689
_tf:_DateTimeFormatInfo_ReadOnly_m890935083
zlj:__ZN6il2cpp2vm3CCW9CreateCCWEP12Il2CppObject
Vvj:_fflush
G3:__ZN17LightProbeContext4InitERK16LightmapSettingsRK14RenderSettings
DTb:__ZN18DeferredRenderLoop14RenderLightingER21ActiveLightingContextP13RenderTexture9TextureIDPS3_iRK8Vector4fRK14LightingLayersR10MinMaxAABBb12ObjectHandleI17RenderSurface_TagP17RenderSurfaceBaseE
Xvg:_SceneManager_Internal_ActiveSceneChanged_m3676176255
xAf:_Double_System_IConvertible_ToInt16_m3591921965
y8a:__ZN9Texture3DD2Ev
Vhh:_Collection_1_set_Item_m4280581817_gshared
Vzd:_Convert_ToChar_m2796006345
qQf:_Array_InternalArray__Insert_TisContentType_t1787303396_m3566390691_gshared
Xtd:_ArrayListWrapper_GetEnumerator_m2336495952
VVb:__Z34ProcessIndexListIsNodeVisibleStep2RK22SceneCullingParametersPK9SceneNodePK4AABBR9IndexList
cFb:__ZN10MonoScriptD2Ev
mHa:__ZN19ConstantBuffersGLES8UpdateCBE5CbKeyPKvj
Yzi:_AudioSource_get_spatializeInternal_m2117549793
fhc:__Z39Input_CUSTOM_INTERNAL_get_mousePositionP8Vector3f
and:_SimpleEnumerator__ctor_m353509656
TDc:_tt_cmap13_char_next
MRh:__ZL117EventSystem_t1003666588_CustomAttributesCacheGenerator_EventSystem_t1003666588____lastSelectedGameObject_PropertyInfoP21CustomAttributesCache
Xna:__ZN9ShaderLab4Pass16SetupPassOptionsEv
dh:_JS_Sound_ReleaseInstance
Vpa:__ZN13GfxDeviceGLES19DrawBuffersIndirectEP9GfxBufferPK18VertexStreamSourceiP17VertexDeclaration17ShaderChannelMask16GfxPrimitiveType15ComputeBufferIDj
bGf:_Guid_CheckArray_m921056615
uFe:_ConfigHandler_ReadLifetine_m208994800
_dg:_UInt16_System_IConvertible_ToByte_m3185614807_AdjustorThunk
Jtg:_Rect_get_max_m350137314_AdjustorThunk
Cm:FUNCTION_TABLE_diddi
q7i:__ZN6il2cpp6icalls8mscorlib6System5Array8FastCopyEP11Il2CppArrayiS5_ii
zic:__Z26Material_CUSTOM_SetIntImplP12Il2CppObjectii
Xgc:__Z42Register_UnityEngine_RectOffset_get_bottomv
wvj:_newlocale
lrb:__ZN9BoundsInt8TransferI14SafeBinaryReadEEvRT_
DEj:_emscripten_glUniform1f__wrapper
Czj:dynCall_di
pmg:_BaseInvokableCall_AllowInvoke_m878393606
nqc:__Z28RegisterModule_JSONSerializev
Jjb:__ZN2UI13RectTransform8TransferI14SafeBinaryReadEEvRT_
zrc:__Z35Transfer_Blittable_FixedBufferFieldI9JSONWriteaEvRK29SerializationCommandArgumentsR31RuntimeSerializationCommandInfo
Iig:_Behaviour_get_enabled_m753527255
obc:__Z20IsHumanControllingUsv
KAe:_Enumerator_MoveNext_m181298207_gshared
EW:__ZNK20DynamicHeapAllocatorI17LowLevelAllocatorE10GetPtrSizeEPKv
Aph:__ZL51TextInfo_t3810425522_CustomAttributesCacheGeneratorP21CustomAttributesCache
yMa:__ZN10systeminfo21GetPersistentDataPathEv
Ipa:__ZN13GfxDeviceGLES17DestroyGpuProgramEPK10GpuProgram
o_h:_Array_InternalArray__set_Item_TisRaycastResult_t3360306849_m730888808_gshared
Hnb:__Z44InitializeTransferFunctionScriptingTraitsForI18StreamedBinaryReadILb0EEEvR31TransferFunctionScriptingTraits
lAe:_Enumerator_System_Collections_IEnumerator_Reset_m53411943_gshared
ZRb:__ZNSt3__218__insertion_sort_3IR23CompareReflectionProbesP31RuntimeReflectionProbeBlendInfoEEvT0_S5_T_
otb:__ZN12NativeBufferI27Converter_SimpleNativeClassI8GradientEE15SetupForWritingER9ArrayInfo
E2e:_Kernel_RightShift_m2207393597
oga:__ZNSt3__213__stable_sortIRNS_4lessIN4core12basic_stringIcNS2_20StringStorageDefaultIcEEEEEENS_11__wrap_iterIPS6_EEEEvT0_SC_T_NS_15iterator_traitsISC_E15difference_typeEPNSF_10value_typeEi
JZh:__ZL48Shadow_t773074319_CustomAttributesCacheGeneratorP21CustomAttributesCache
i8:__ZN12_GLOBAL__N_113StaticDestroyEPv
oJj:_glUnmapBuffer__wrapper
fvc:__ZN8JSONRead21TransferSTLStyleArrayINSt3__26vectorI8Gradient13stl_allocatorIS3_L18MemLabelIdentifier1ELi16EEEEEEvRT_17TransferMetaFlags
gdb:__ZNSt3__218__insertion_sort_3IRNS_6__lessINS_4pairIPKN5Unity4TypeE7Hash128EES8_EEPS8_EEvT0_SC_T_
rPe:_InputField_set_onValueChanged_m3658917578
Yub:__ZN10RectOffset8TransferI24GenerateTypeTreeTransferEEvRT_
GHd:_BinaryReader__ctor_m2266204403
uae:__ZN21InterfaceFuncInvoker5IiP22ByteU5BU5D_t4116647657iiS1_iE6InvokeEjP11Il2CppClassP12Il2CppObjectS1_iiS1_i
O$f:_Enumerator_VerifyState_m3047769867_AdjustorThunk
iub:__Z18Transfer_BlittableI24GenerateTypeTreeTransferLb1E5RectTIiEEvRK29SerializationCommandArgumentsR31RuntimeSerializationCommandInfo
anc:__ZN16GUIKeyboardStateD2Ev
mOc:__ZN2UI13CanvasManager19RemoveDirtyRendererEPNS_6CanvasEPNS_14CanvasRendererE
yuj:_isspace
aMe:_BinaryFormatter__ctor_m2620705134
VTc:__ZN11UnityEngine15PlatformWrapper25GetGraphicsRendererStringEv
e8f:_UTF7Encoding_InternalGetBytes_m797138468
lV:__ZN11UnityEngine15CloudWebService17WebFileDownloaderINS0_20WebRequestRestClientENS0_23WebRequestRestHeaderMapEED2Ev
Qb:invoke_vi
ykd:_SmallXmlParser_HandleWhitespaces_m549588711
Osc:__ZN9JSONWrite8TransferI13dynamic_arrayI9BoundsIntLj4EEEEvRT_PKc17TransferMetaFlags
Ob:invoke_vd
pb:invoke_vf
Noi:_Regex_get_RightToLeft_m2317867572
p3:__ZNK10GameObject8IsActiveEv
Cfc:__Z34Component_Get_Custom_PropTransformP12Il2CppObject
rQh:__ZL67g_UnityEngine_PhysicsModule_Assembly_CustomAttributesCacheGeneratorP21CustomAttributesCache
OCa:__ZN18GfxFramebufferGLES23SetupDefaultFramebufferEPP17RenderSurfaceBaseS2_N2gl6HandleILNS3_10ObjectTypeE9EEE
u7c:_DefaultControls_CreateDropdown_m3286664171
t6a:__ZN13ScreenManager18RequestOrientationE17ScreenOrientation
TLi:__ZN6il2cpp2vm5Class12SetupMethodsEP11Il2CppClass
Ecc:__Z39DeleteLastPathNameComponentWithAnySlashRKN4core12basic_stringIcNS_20StringStorageDefaultIcEEEE
lmc:__ZN10GUIManager14InitGUIManagerEv
Aeg:_UInt16_Equals_m642257745
Gmd:_Array_System_Collections_IList_IndexOf_m3301661616
cTd:_AssemblyFileVersionAttribute__ctor_m3720707642
Y3d:_RuntimeResourceSet_CloneDisposableObjectIfPossible_m2725520898
uoc:__Z37Register_UnityEngine_GUIStyle_Cleanupv
Ma:invoke_iiifii
PZe:_SliderEvent__ctor_m3149452941
Sid:_DeriveBytes__cctor_m1212925033
cad:_Graphic_OnDisable_m1097930217
IUi:__ZN6il2cpp6icalls8mscorlib6System8MonoType13IsPointerImplEP20Il2CppReflectionType
Qi:_emscripten_glFramebufferRenderbuffer
IUb:__ZN19CullingGroupManager17CullAndSendEventsERK22SceneCullingParametersiRK13CullingOutputRK8JobFence
fRa:__ZN9Transform30EnsureTransformHierarchyExistsEv
ycg:_Type_FilterName_impl_m2651733559
und:_Array_GetValue_m116098292
wec:__Z46Register_UnityEngine_Application_get_isPlayingv
_Zb:__ZNSt3__26vectorINS_4pairIN4core12basic_stringIcNS2_20StringStorageDefaultIcEEEEPK17MessageIdentifierEENS_9allocatorISA_EEE12__move_rangeEPSA_SE_SE_
hOb:__ZN14qsort_internal17MedianOfThreeSwapIP17RODataReplacement19ROSorterReplacementEEvT_S4_S4_T0_
Qpf:_String_Split_m3646115398
Jug:_RectOffset_ToString_m2007443979
JKi:__ZNK15dense_hashtableINSt3__24pairIK10KeyWrapperIPK22Il2CppGenericParameterEP11Il2CppClassEES6_N6il2cpp5utils11PointerHashIS4_EEN14dense_hash_mapIS6_S9_SE_NS6_14EqualsComparerINS0_8equal_toIS5_EEEENS0_9allocatorISA_EEE9SelectKeyESJ_SL_E3endEv
Acc:__ZN17TransformInternal36OnScaleChangedCalculateTransformTypeE15TransformAccess
kNa:__ZN17ArchiveFileSystem10ToAbsoluteEPKc
HUc:__ZN19UnityConnectService15GetPlayerUserIdEv
AMf:_Array_InternalArray__IndexOf_TisSByte_t1669577662_m4156538463_gshared
ir:__ZN7mecanim6CRCKeyENS_7eStringE
iac:__ZL12SetPrefValueRKN4core12basic_stringIcNS_20StringStorageDefaultIcEEEERK9PrefValue
a9a:__ZN19ShaderPropertySheet20ReservePropertyCountEj
fkj:__ZN6il2cpp5utils11StringUtils6PrintfEPKcz
Z5i:__ZNSt3__26vectorIN6il2cpp8metadata18GenericArrayMethodENS_9allocatorIS3_EEE7reserveEj
Bma:__ZN15NameToObjectMapI6ShaderNSt3__23mapI4PPtrIS0_EN4core12basic_stringIcNS5_20StringStorageDefaultIcEEEENS1_4lessIS4_EENS1_9allocatorINS1_4pairIKS4_S9_EEEEEENS1_8multimapIS9_S4_NSA_IS9_EENSC_INSD_IKS9_S4_EEEEEEE4FindERSK_
f2a:__ZN24GenerateTypeTreeTransfer21TransferResourceImageE19ActiveResourceImagePKcR13StreamingInfoPvjiPKN5Unity4TypeE
r0h:_Array_Sort_TisVector3_t3722313464_m1030213405_gshared
zfj:__ZN6il2cpp2vm6Object5CloneEP12Il2CppObject
Srj:__ZN6il2cpp6icalls8mscorlib6System9Threading5Mutex20CreateMutex_internalEbP12Il2CppStringPb
KIj:_emscripten_glLinkProgram__wrapper
Qkg:_Coroutine_Finalize_m1957108547
Cxi:_KeyBuilder_Key_m2503211157
IXa:__ZNSt3__212__deque_baseI18ReflectionProbeJobNS_9allocatorIS1_EEED2Ev
Ez:__ZN11UnityEngine9Animation27DestroyAnimationSetBindingsEPNS0_20AnimationSetBindingsERN7mecanim6memory9AllocatorE
kia:__ZN15dense_hashtableINSt3__24pairIKiN4core17string_with_labelILi1EEEEEi18SInt32HashFunctionN14dense_hash_mapIiS5_S7_NS0_8equal_toIiEE13stl_allocatorIS6_L18MemLabelIdentifier1ELi16EEE9SelectKeyESA_SD_E13set_empty_keyERKS6_
Ekg:_Component_GetComponentInChildren_m388868270
AZf:_GenericEqualityComparer_1_Equals_m1705889345_gshared
oE:__ZN8Animator12CleanupClassEv
dvc:__Z13TransferFieldI8JSONReadLb0E27Converter_SimpleNativeClassI10RectOffsetEEvRK23StaticTransferFieldInfoR31RuntimeSerializationCommandInfoRT1_
t9e:_FtpWebRequest__cctor_m699542155
$cj:__GLOBAL__sub_I_GenericMetadata_cpp
s8e:_NameObjectCollectionBase_GetEnumerator_m3677320185
wVb:__Z24CalculateSpotLightBoundsffRK10Matrix4x4fR15SpotLightBounds
ADe:_Dictionary_2_TryGetValue_m3495031886_gshared
zZa:__ZNK13RenderTexture21GetShadowSamplingModeEv
yR:__ZN23CloudWebServicesManager23VirtualRedirectTransferER14SafeBinaryRead
u7e:_PKCS12_AddCertificate_m3857004455
KEb:__Z19ShouldTransferFieldR32SerializationCommandQueueBuilder17ScriptingClassPtriR18TransferField_InfoRK20CoreScriptingClasses
gnf:_SecurityElement_IsValidText_m1346599242
MHa:__ZN26SinglePassStereoSupportExt21SetStereoMatrixCommonE21MonoOrStereoscopicEye24BuiltinShaderMatrixParamRK10Matrix4x4f
NK:__ZN5audio5mixer22UpdateAudioMixerMemoryERKNS0_18AudioMixerConstantERNS0_16AudioMixerMemoryEfPN4FMOD6SystemEf
hxc:__ZL21InitializeCachedStripPv
hRf:_Dictionary_2_System_Collections_Generic_ICollectionU3CSystem_Collections_Generic_KeyValuePairU3CTKeyU2CTValueU3EU3E_Add_m3652125112_gshared
l8i:__ZN6il2cpp6icalls8mscorlib6System9Threading6Thread23GetCachedCurrentCultureEP12Il2CppThread
gY:__ZNK6Camera22GetWorldToCameraMatrixEv
Nyj:runPostSets
Pfj:__ZN6il2cpp2vm12GenericClass11IsValueTypeEP18Il2CppGenericClass
FDb:__ZN13MonoBehaviour7SetNameEPKc
JJe:_MethodDictionary_IsOverridenKey_m946843558
VJd:_FileStream_BeginRead_m2419864669
sii:_U3CStartU3Ec__Iterator0_MoveNext_m4270440387_gshared
BPi:__ZN10KeyWrapperIN6il2cpp5utils13dynamic_arrayIPK10Il2CppTypeLj4EEEEC2ERKS7_
AIb:__ZN17InstancingBatcher22FindCBUpperBoundKonstsEv
W7:__GLOBAL__sub_I_runtime_shaders_shaderimpl_0_cpp
Egb:__ZN18AwakeFromLoadQueue5ClearEv
rKd:_FileStream_SetLength_m99749826
ZTb:__ZNSt3__27__sort5IR15ReflProbeSorterPP15ReflectionProbeEEjT0_S6_S6_S6_S6_T_
tea:__ZN8Playable10DisconnectEPS_i
uk:_glGenTransformFeedbacks
aMa:__ZN13LoadOperationD2Ev
dDd:_Int16_System_IConvertible_ToType_m3672347013
pdg:_Type_GetProperty_m4206634422
fld:_AttrListImpl_GetValue_m3657391095
vHb:__Z21PlayerStartFirstSceneb
z9g:_List_1_CheckIndex_m3933537097_gshared
R0a:__ZNSt3__27__sort5IRPFbRKNS_4pairIN9ShaderLab16FastPropertyNameEN18UnityPropertySheet11UnityTexEnvEEES8_EPS6_EEjT0_SD_SD_SD_SD_T_
$ua:__ZNK7ApiGLES18GetExtensionStringEv
_8g:_List_1_System_Collections_IList_IndexOf_m2444653486_gshared
EEj:_emscripten_glVertexAttrib1f__wrapper
Kkb:__ZNK12HandlerChain4SizeERK13FileEntryData
Yo:FUNCTION_TABLE_iiiiiiiii
_7h:_ReadOnlyCollection_1_System_Collections_Generic_ICollectionU3CTU3E_Remove_m4177779688_gshared
lsd:_Char_IsLetter_m3996985877
pah:_Queue_1_Peek_m2302800625_gshared
nlh:__ZL51Delegate_t1188392813_CustomAttributesCacheGeneratorP21CustomAttributesCache
Rmj:_GC_allochblk
Ogb:__Z15UnloadGameScenev
gPf:_Array_InternalArray__ICollection_CopyTo_TisKeyframe_t4206410242_m2132255743_gshared
jJj:_glCheckFramebufferStatus__wrapper
Kbd:_Image__ctor_m2551076292
rCe:_Dictionary_2_System_Collections_ICollection_CopyTo_m3143696177_gshared
BEg:__Z103RuntimeInvoker_Void_t1185182177_Int32_t2950945753_Int32_t2950945753_Int32_t2950945753_SByte_t1669577662PFvvEPK10MethodInfoPvPS4_
Tkc:__Z36Renderer_Get_Custom_PropSortingOrderP12Il2CppObject
DZi:__ZNK15dense_hashtableINSt3__24pairIK10KeyWrapperIPK10Il2CppTypeEjEES6_N6il2cpp8metadata14Il2CppTypeHashEN14dense_hash_mapIS6_jSB_NS6_14EqualsComparerINSA_26Il2CppTypeEqualityComparerEEENS0_9allocatorIS8_EEE9SelectKeyESF_SH_E13find_positionERS7_
pZa:__ZN7Texture5ResetEv
Ktb:__Z18Transfer_BlittableI24GenerateTypeTreeTransferLb0E8Vector2fEvRK29SerializationCommandArgumentsR31RuntimeSerializationCommandInfo
MGe:_Context_get_HasDynamicSinks_m3952434387
u6f:_Latin1Encoding_GetByteCount_m1145650505
ztb:__Z18Transfer_BlittableI24GenerateTypeTreeTransferLb1EhEvRK29SerializationCommandArgumentsR31RuntimeSerializationCommandInfo
Mmc:__ZN8GUIState18CycleKeyboardFocusERNSt3__26vectorIP6IDListNS0_9allocatorIS3_EEEEb
tAb:__Z13TransferFieldI18StreamedBinaryReadILb1EELb0E16Converter_StringEvRK23StaticTransferFieldInfoR31RuntimeSerializationCommandInfoRT1_
fec:__ZNK16TypeTreeIterator10ByteOffsetEv
Xzj:dynCall_iiifii
pda:__ZnwjRKSt9nothrow_t
PC:__ZN8Animator11ClearObjectEv
Hdi:_Nullable_1_GetHashCode_m4232053575_gshared
$ld:_ApplicationException__ctor_m2557611022
K$a:__ZN14SafeBinaryRead19TransferSTLStyleMapINSt3__23mapI39DeprecatedFastPropertyNameSerializationN18UnityPropertySheet11UnityTexEnvENS1_4lessIS3_EENS1_9allocatorINS1_4pairIKS3_S5_EEEEEEEEvRT_17TransferMetaFlags
D6g:_List_1_CheckMatch_m579516778_gshared
jqd:_Buffer_ByteLengthInternal_m1388208719
IOf:_Array_InternalArray__ICollection_CopyTo_TisInt64_t3736567304_m2845057751_gshared
aec:__Z35UnregisterSerializationCacheBuilderPFv17ScriptingClassPtrR23CachedSerializationDataRbE
vGd:_Int64_System_IConvertible_ToUInt32_m109903525_AdjustorThunk
Z3:__Z30GetBuiltinVectorParamArraySize24BuiltinShaderVectorParam
mPf:_Array_InternalArray__ICollection_CopyTo_TisUICharInfo_t75501106_m4268526610_gshared
iZa:__ZN13RenderTextureC2E10MemLabelId18ObjectCreationMode
tDd:_Int32_GetFormatException_m519586683
Rxh:__ZL46StringBuilder_t_CustomAttributesCacheGeneratorP21CustomAttributesCache
r$f:_Enumerator_MoveNext_m1131351993_gshared
tSd:_RankException__ctor_m2226473861
i3h:_Array_InternalArray__get_Item_TisVector2_t2156229523_m2502961026_gshared
x6:__ZN21RendererUpdateManager11AddRendererER8Renderer
J2b:__Z13RegisterClassI15ResourceManagerEvv
OAi:_AudioConfigurationChangeHandler_Invoke_m1233557945
qob:__Z35Transfer_Blittable_FixedBufferFieldI14SafeBinaryReadsEvRK29SerializationCommandArgumentsR31RuntimeSerializationCommandInfo
dab:__ZN14SafeBinaryRead21TransferSTLStyleArrayI13dynamic_arrayIfLj4EEEEvRT_17TransferMetaFlags
Zzd:_Convert_ToDateTime_m3802186295
gkj:__ZN6il2cpp5utils11StringUtils11Utf16ToUtf8EPKDs
nfb:__ZN18StreamedBinaryReadILb0EE21TransferSTLStyleArrayINSt3__26vectorIN15ResourceManager10DependencyE13stl_allocatorIS5_L18MemLabelIdentifier52ELi16EEEEEEvRT_17TransferMetaFlags
tgg:_UInt64_CompareTo_m1614517204_AdjustorThunk
kUc:__ZN11UnityEngine15PlatformWrapper20IsRootedOrJailbrokenEv
eLb:__ZZ23InitPlayerLoopCallbacksvEN52PreLateUpdateScriptRunBehaviourLateUpdateRegistrator7ForwardEv
rVb:__Z33IntersectAABBPlaneBoundsOptimizedRK4AABBPKN4math7_float4Ei
Zpa:__ZN9GfxDevice19EndGeometryJobFrameEv
yvi:_GUILayoutUtility_Layout_m1159951704
AOe:_InputField_get_shouldActivateOnSelect_m3055465770
ttb:__ZN27Converter_SimpleNativeClassI17AnimationCurveTplIfEE17ScriptingToNativeER18ScriptingObjectPtrPS1_
xcg:_Type__cctor_m2371893800
Dsj:__ZN6il2cpp8metadata24Il2CppGenericInstCompare7CompareERK10KeyWrapperIPK17Il2CppGenericInstES8_
cOi:__ZNK15dense_hashtableINSt3__24pairIK10KeyWrapperIPK19Il2CppGenericMethodEPK26Il2CppGenericMethodIndicesEES6_N6il2cpp8metadata23Il2CppGenericMethodHashEN14dense_hash_mapIS6_SA_SE_NS6_14EqualsComparerINSD_26Il2CppGenericMethodCompareEEENS0_9allocatorISB_EEE9SelectKeyESI_SK_E5beginEv
G$c:_ExecuteEvents_Execute_m3049310229
xt:__ZN27AnimationLayerMixerPlayable21UpdateLayerParametersEv
bw:__ZN7mecanim9animation16CopyMotionOutputEPKNS0_18AnimationNodeStateEPS1_bbRKNS_6bitsetILj83EEE
S0b:__ZNK17AnimationCurveTplIfE8EvaluateEfPNS0_5CacheE
iKb:__Z31ManagerContextInitializeClassesv
h8h:_ReadOnlyCollection_1_System_Collections_IList_Contains_m2650112051_gshared
UGf:_Array_get_swapper_TisVector3_t3722313464_m1221246401_gshared
vFc:_UNITY_FT_List_Finalize
kPb:__Z20LightAttenuateApproxRKfS0_
n7:__ZN9Scripting30SetCachedPtrOnScriptingWrapperE18ScriptingObjectPtrP6Object
Ugf:_RepeatContext_get_IsMinimum_m3640286252
cOe:_ObjectRecord_ChainFixup_m1889316362
LUa:__ZN18BlockRangeInternal16PopLastNodeIndexEP10BlockRangeji
Blj:__ZN6il2cpp2vm13CachedCCWBaseINS0_13ManagedObjectEE6AddRefEv
V2c:_TouchInputModule_UpdateModule_m2582897964
z9a:__ZN4MeshD0Ev
iZc:__ZL42RequestRecreateEyeTexturesBeforeNextUpdatev
FEa:__ZNK6Camera20IsCurrentlyRenderingEv
kv:__ZN21AnimationClipPlayable23ProcessRootMotionNoClipEPK35AnimationPlayableEvaluationConstantPK32AnimationPlayableEvaluationInputP33AnimationPlayableEvaluationOutput
$Qc:__Z36CanvasRenderer_CUSTOM_SetPopMaterialP12Il2CppObjectS0_i
Grc:__Z18Transfer_BlittableI9JSONWriteLb0EdEvRK29SerializationCommandArgumentsR31RuntimeSerializationCommandInfo
ypf:_String_System_IConvertible_ToDouble_m3740733360
ESa:__ZN6Camera8TransferI19StreamedBinaryWriteILb0EEEEvRT_
Pwf:_DBNull_System_IConvertible_ToSByte_m3533624679
Tuj:_wctomb
bsd:_Char_CompareTo_m42489266
jYg:__Z67RuntimeInvoker_Void_t1185182177_Int32_t2950945753_Double_t594665363PFvvEPK10MethodInfoPvPS4_
ifc:__Z27Camera_CUSTOM_GetAllCamerasP11Il2CppArray
Wc:___cxa_rethrow
y2d:_ParameterInfo_GetCustomAttributes_m2376494592
jtc:__Z18Transfer_BlittableI8JSONReadLb1EhEvRK29SerializationCommandArgumentsR31RuntimeSerializationCommandInfo
W9c:_Graphic_get_canvasRenderer_m315509948
Deh:_Collection_1_System_Collections_IList_Contains_m3397768605_gshared
UPg:__Z90RuntimeInvoker_Void_t1185182177_Int64_t3736567304_Int32_t2950945753_RuntimeObject_IntPtr_tPFvvEPK10MethodInfoPvPS4_
KEj:_glBindRenderbuffer__wrapper
q1h:_Dictionary_2_Do_CopyTo_TisInt32_t2950945753_TisInt32_t2950945753_m3384108308_gshared
HEf:_CultureInfo_construct_internal_locale_from_name_m3254739477
ufe:_RSASslSignatureDeformatter_VerifySignature_m1061897602
V5e:_RSAManaged_remove_KeyGenerated_m2046909903
aid:_RandomNumberGenerator_Create_m4162970280
TPf:_Array_InternalArray__Insert_TisLabelFixup_t858502054_m171542753_gshared
Mse:_InternalEnumerator_1_System_Collections_IEnumerator_get_Current_m3539708496_AdjustorThunk
ylb:__ZN20LocalFileSystemPosix4ReadER13FileEntryDatayyPvPy
ISb:__ZNSt3__211__sift_downIRN23ForwardShaderRenderLoop18RenderObjectSorterILb0EEEP21ForwardRenderPassDataEEvT0_S7_T_NS_15iterator_traitsIS7_E15difference_typeES7_
Tlf:_SecurityPermission__ctor_m1462427327
jBj:dynCall_iiiiiiffiiiiiiiiiffffiiii
VDb:__ZN13MonoBehaviour5DoGUIENS_13GUILayoutTypeEii
AEe:_ChannelData_get_ClientProviders_m594662942
cqi:_QuickSearch_GetChar_m1297698557
SKa:__ZNK12TLSAllocatorI14StackAllocatorE8ContainsEPKv
Ncb:__ZN11TimeManager8TransferI18StreamedBinaryReadILb0EEEEvRT_
TAg:__Z68RuntimeInvoker_Boolean_t97287965_Int16_t2552820387_SByte_t1669577662PFvvEPK10MethodInfoPvPS4_
mvf:_DateTime__ParseEnum_m253019513
bCd:_Convert_ToUInt32_m2194577773
M6:__ZN15dense_hashtableINSt3__24pairIKyP17VertexDeclarationEEy14GfxGenericHashIyEN14GfxDoubleCacheIyS4_S7_NS0_8equal_toIyEEN31GfxDoubleCacheConcurrencyPolicy11LocklessGetE42GfxDoubleCacheDefaultEmptyDeletedGeneratorIyEE9SelectKeyESA_13stl_allocatorIS5_L18MemLabelIdentifier24ELi16EEE12resize_deltaEjj
cxd:_Hashtable_Remove_m4032631466
ouc:__Z18Transfer_BlittableI8JSONReadLb1EyEvRK29SerializationCommandArgumentsR31RuntimeSerializationCommandInfo
T1a:__ZN7Texture25ReloadFromStorageIfNeededEPvb
WLf:_Array_InternalArray__IndexOf_TisBoolean_t97287965_m1161209222_gshared
urj:__ZN6il2cpp2os12Cryptography24OpenCryptographyProviderEv
Jud:_SynchronizedArrayListWrapper_Clear_m2191301493
xGc:_Update_Max
z7i:__ZN6il2cpp6icalls8mscorlib6SystemL15ThrowNoWideningEv
b1b:__ZNK23TransformChangeDispatch24GetChangeMaskForInterestENS_12InterestTypeE
D8b:__ZN8Playable5PauseEv
Vjc:__Z45Transform_CUSTOM_INTERNAL_CALL_TransformPointP12Il2CppObjectRK8Vector3fRS1_
TXd:_GenericTypeParameterBuilder_InvokeMember_m1647304778
Hbd:_HorizontalOrVerticalLayoutGroup_set_childControlWidth_m3261460516
$$a:__ZNSt3__26__treeINS_12__value_typeI39DeprecatedFastPropertyNameSerializationfEENS_19__map_value_compareIS2_S3_NS_4lessIS2_EELb1EEENS_9allocatorIS3_EEE7destroyEPNS_11__tree_nodeIS3_PvEE
rEc:_tt_cmap4_char_index
C3c:_AspectRatioFitter_GetParentSize_m3159144324
bof:_SecurityFrame_get_Assembly_m2874566710
Q9g:_Enumerator_System_Collections_IEnumerator_Reset_m1487823313_gshared
Ukb:__ZNK12HandlerChain8IsHiddenERK13FileEntryData
Jsb:__ZL26Transfer_SimpleNativeClassI17RemapPPtrTransfer10RectOffsetLb0EEvRK29SerializationCommandArgumentsR31RuntimeSerializationCommandInfo
rLc:__Z14ValidateFormatR13dynamic_arrayIN20TextRenderingPrivate16TextFormatChangeELj4EE
UFd:_Int32_ToString_m2507389746_AdjustorThunk
Yyf:_Decimal_op_Explicit_m438967917
BJi:_AnimatorControllerPlayable_SetHandle_m2260644454_AdjustorThunk
Eja:__ZNSt3__26vectorIN9ShaderLab20SerializedSubProgram13BufferBindingENS_9allocatorIS3_EEEC2ERKS6_
lPe:_InputField_set_selectionColor_m2084640295
V3:__ZNK9ShaderLab20ShaderBlendStateDesc15ToGfxBlendStateEPK19ShaderPropertySheetS3_R13GfxBlendState
iz:__ZN11UnityEngine9AnimationL22GenericBindingCallbackEPvS1_i
cGc:_Compute_Point_Displacement
doa:__ZN9ShaderLab9IntShaderC2Ev
PUi:__ZN6il2cpp6icalls8mscorlib6SystemL9IsPrivateEPK9EventInfo
lrj:__ZN6il2cpp6icalls8mscorlib6System10Reflection4Emit11TypeBuilder20setup_internal_classEP27Il2CppReflectionTypeBuilderS7_
Tac:__Z18TransformPoints3x4RK10Matrix4x4fPK8Vector3fjPS2_ji
tMf:_Array_InternalArray__IndexOf_TisILTokenInfo_t2325775114_m2602704009_gshared
j7f:_StringBuilder_AppendFormat_m3255666490
iSd:_OverflowException__ctor_m4029085969
I_d:_TypeBuilder_GetGenericArguments_m2872156836
tKi:__ZN13Il2CppHashMapIPK22Il2CppGenericParameterP11Il2CppClassN6il2cpp5utils11PointerHashIS1_EENSt3__28equal_toIS2_EENS9_9allocatorINS9_4pairIK10KeyWrapperIS2_ES4_EEEEEC2EjRKS8_RKSB_
i5e:_KeyPairPersistence_Remove_m1876145547
AMa:__Z15CreateDirectoryRKN4core12basic_stringIcNS_20StringStorageDefaultIcEEEE
xYa:__Z21CalculateGlobalMatrix23TransformAccessReadOnly
J_d:_TypeBuilder_GetGenericTypeDefinition_m1632720438
hHf:_Array_InternalArray__ICollection_Contains_TisLink_t544317964_m163190451_gshared
dwf:_DateTimeOffset_System_IComparable_CompareTo_m176229495_AdjustorThunk
Tog:_ManagedStreamHelpers_ValidateLoadFromStream_m580138133
Scb:__ZNK13BuildSettings22GetTypeVirtualInternalEv
F7g:_List_1_CheckIndex_m2250397830_gshared
H2b:__Z13RegisterClassI14RenderSettingsEvv
z:tempBigIntI
rhf:_Interval_get_Empty_m3617514670
QSd:_Assembly_GetName_m981771927
zx:__ZN7mecanim12statemachine24CreateStateMachineOutputEPKNS0_20StateMachineConstantEjRNS_6memory9AllocatorE
Nfj:__ZN6il2cpp2vm12GenericClass8GetClassEP18Il2CppGenericClass
yqa:__ZNK9GfxDevice27GetActiveRenderSurfaceWidthEv
ATh:__ZL114StandaloneInputModule_t2760469101_CustomAttributesCacheGenerator_StandaloneInputModule_ForceAutoSelect_m2837047882P21CustomAttributesCache
XTc:__ZN11UnityEngine15PlatformWrapper28GetCleanGraphicsFixedVersionEv
MUe:_MaskableGraphic_RecalculateClipping_m1772937317
fOd:_UnmanagedMemoryStream_SetLength_m3752964620
LXi:__ZN6il2cpp2vm4Type7GetTypeEPK10Il2CppType
CKc:_open_face_PS_from_sfnt_stream
Gne:_InternalEnumerator_1_get_Current_m165106323_AdjustorThunk
V7f:_UTF32Encoding_GetByteCount_m3610769032
rAa:__ZN6prcoreL17RemapGenericFloatI18TexFormatRGBAFloat17TexFormatRGBAHalfEEvPKNS_9InnerInfoE
ILb:__Z16FindCameraStacksRKNSt3__24listI4PPtrI6CameraENS_9allocatorIS3_EEEERNS_6vectorI11CameraStackNS4_ISA_EEEE
Woi:_MatchCollection_CopyTo_m3807326147
q4a:__ZN10GISettings8TransferI14SafeBinaryReadEEvRT_
un:FUNCTION_TABLE_vifff
JXh:__ZL54Text_t1901882714_CustomAttributesCacheGenerator_m_TextP21CustomAttributesCache
Rhd:_MD5CryptoServiceProvider__ctor_m3271163125
dZb:__ZN19CustomRenderTexture12ClearGPUDataEv
yZa:__ZN13RenderTexture13ApplySettingsEv
dNe:_ObjectReader_RegisterObject_m1853376334
uZd:_ModuleBuilderTokenGenerator_GetToken_m2588853565
vpd:_Boolean_System_IConvertible_ToDecimal_m3176932461_AdjustorThunk
Ue:_JS_Sound_SetListenerPosition
mn:FUNCTION_TABLE_fiffi
xYe:_ScrollRect_OnInitializePotentialDrag_m3139711961
b8h:_ReadOnlyCollection_1_System_Collections_Generic_IListU3CTU3E_set_Item_m711370667_gshared
QTd:_Default_check_arguments_with_score_m3467814020
nGj:_glGetActiveUniform__wrapper
JMd:_StreamWriter_LowLevelWrite_m1081676583
Pda:__ZZN15DirectorManager15InitializeClassEvEN45FixedUpdateDirectorFixedSampleTimeRegistrator7ForwardEv
Kib:__ZNK8Material16MarkDependenciesER27GarbageCollectorThreadState
WZe:_Slider_set_handleRect_m1101657556
rwf:_DateTimeOffset_ToString_m3985341516_AdjustorThunk
Jrc:__ZL17Transfer_GUIStyleI9JSONWriteLb0EEvRK29SerializationCommandArgumentsR31RuntimeSerializationCommandInfo
cQb:__Z28GetHaloVertexPositionsStereoP8Vector3fRKS_S2_f
gBa:__ZN6prcoreL27StretchGenericFloatBilinearI15TexFormatRGHalfEEvPKNS_9InnerInfoE
S7:__GLOBAL__sub_I_runtime_misc_0_cpp
PFf:_SortKey_GetHashCode_m3547067087
_Ab:__Z18Transfer_BlittableI18StreamedBinaryReadILb0EELb1E9BoundsIntEvRK29SerializationCommandArgumentsR31RuntimeSerializationCommandInfo
FXh:__ZL71SpriteState_t1362986479_CustomAttributesCacheGenerator_m_DisabledSpriteP21CustomAttributesCache
mcf:_PublicKey_DecodeDSA_m3490622362
xic:__Z49Register_UnityEngine_Resources_GetBuiltinResourcev
mdg:_Type_GetMethod_m1479779718
eEc:_tt_cmap10_char_index
eki:_TlsException__ctor_m3242533711
h7d:_BitConverterLE_GetUIntBytes_m795219058
ayd:_SortedList__ctor_m3676552745
XKi:__ZN15dense_hashtableINSt3__24pairIK10KeyWrapperIPK22Il2CppGenericParameterEP11Il2CppClassEES6_N6il2cpp5utils11PointerHashIS4_EEN14dense_hash_mapIS6_S9_SE_NS6_14EqualsComparerINS0_8equal_toIS5_EEEENS0_9allocatorISA_EEE9SelectKeyESJ_SL_E3endEv
fqb:__Z35Transfer_Blittable_SingleValueFieldI14SafeBinaryReadjEvRT_R17GeneralMonoObjectRK23StaticTransferFieldInfo
SP:__ZN11AudioSource24ClearExtensionPropertiesE12PropertyName
n_h:_Array_InternalArray__set_Item_TisColor32_t2600501292_m1891325855_gshared
Kla:__ZN9ShaderLab22SerializedBindChannels8TransferI19StreamedBinaryWriteILb0EEEEvRT_
Vqb:__ZN15SerializeTraitsI5RectTIiEE8TransferI14SafeBinaryReadEEvRS1_RT_
onc:__ZN5IMGUI20MoveWindowFromLayoutER8GUIStateiRK5RectTIfE
KAc:_UNITY_FT_Stream_ReadUShort
$gc:__Z51Register_UnityEngine_GUILayer_INTERNAL_CALL_HitTestv
Pha:__ZNSt3__26__treeINS_12__value_typeIN4core12basic_stringIcNS2_20StringStorageDefaultIcEEEES6_EENS_19__map_value_compareIS6_S7_NS_4lessIS6_EELb1EEE13stl_allocatorIS7_L18MemLabelIdentifier1ELi16EEE7destroyEPNS_11__tree_nodeIS7_PvEE
gwa:__Z13IsDepthFormat14GraphicsFormat
deb:__ZN12AspectRatios8TransferI24GenerateTypeTreeTransferEEvRT_
ZPd:_MonoType_GetFields_m4176012508
Hwc:__Z12FormatBufferPciPKcz
Usf:_CurrentSystemTimeZone_GetTimeZoneData_m2641861607
LWf:_EqualityComparer_1_System_Collections_IEqualityComparer_GetHashCode_m3423304513_gshared
iLi:__ZN6il2cpp2vm5Class13GetArrayClassEP11Il2CppClassj
n2c:_StandaloneInputModule_set_inputActionsPerSecond_m4057208843
HHb:__ZN19RuntimeSceneManager18LoadSceneAsyncIntoER10UnitySceneRKN4core12basic_stringIcNS2_20StringStorageDefaultIcEEEENS_11LoadingModeEb
crc:__Z35Transfer_Blittable_FixedBufferFieldI9JSONWritetEvRK29SerializationCommandArgumentsR31RuntimeSerializationCommandInfo
vnc:__ZN11IMGUIModule12AddGUIScriptER8ListNodeI13MonoBehaviourE
nb:invoke_difi
vvi:_GUILayoutUtility_BeginWindow_m2240221150
iFj:_glDeleteSamplers__wrapper
H7e:_HybridDictionary_set_Item_m2997363718
YLa:__ZNSt3__26__treeIiNS_4lessIiEE13stl_allocatorIiL18MemLabelIdentifier1ELi16EEE7destroyEPNS_11__tree_nodeIiPvEE
ite:_InternalEnumerator_1_get_Current_m1477715453_AdjustorThunk
lgg:_UInt64_System_IConvertible_ToUInt32_m2784653358
Nva:__ZN21GLESGpuProgramApplier11ApplyVectorERKN20GpuProgramParameters14ValueParameterEPK8Vector4ft
NUb:__Z17PrepareSceneNodesP11CullResults
jed:_SByte_System_IConvertible_ToDecimal_m2548745278
Kxc:_cff_size_done
mVb:__ZN29ExtractProjectionPlanesHelperILb1EE5ApplyERK10Matrix4x4fP5Plane
m7b:__ZN13ProduceHelperI7CubemapLb0EE7ProduceE10MemLabelId18ObjectCreationMode
vZb:__ZN6Camera34UpdatePreviousViewProjectionMatrixEv
Ema:__ZN9ShaderLab11ShaderState25RemoveUnsupportedProgramsEPK6Shader
pMc:__Z28Font_Get_Custom_PropMaterialP12Il2CppObject
mpg:_Mathf_Abs_m3281243566
iNd:_SynchronizedWriter_WriteLine_m1552352268
Wbc:__Z26scripting_class_has_parent17ScriptingClassPtrS_
Rba:__ZN13RuntimeStaticI21AssetReferenceStorageLb0EE16StaticInitializeEPv
vVc:__ZNSt3__26__treeINS_12__value_typeIN4core12basic_stringIcNS2_20StringStorageDefaultIcEEEEN11UnityEngine7Connect19RemoteSettingsValueEEENS_19__map_value_compareIS6_SA_NS_4lessIS6_EELb1EEE13stl_allocatorISA_L18MemLabelIdentifier6ELi16EEE16__construct_nodeERKNS_4pairIKS6_S9_EE
_Ed:_Int32_System_IConvertible_ToByte_m3832391412_AdjustorThunk
CQ:__Z71Register_UnityEngine_AudioSource_INTERNAL_CALL_ClearExtensionPropertiesv
zC:__ZNK8Animator20IsInMatchTargetStateEv
spe:_InternalEnumerator_1_System_Collections_IEnumerator_get_Current_m4088805473_gshared
aoc:__Z36Register_UnityEngine_GUI_set_changedv
VGe:_Context_GetServerContextSinkChain_m3154465897
nwi:_GUIStyle_get_fixedHeight_m2868324709
eBd:_Convert_ToInt64_m2075293963
Mrj:__GLOBAL__sub_I_Il2CppCodeRegistration_cpp
Ww:__ZN27AnimationLayerMixerPlayable18SetInputConnectionEP8Playablei
Fw:__ZN7mecanim28TransformValueArrayBlendNodeEiiiRKNS_10ValueArrayERKNS_14ValueArrayMaskERS0_RS3_RNS_16ValueArrayWeightEf
Y7c:_Dropdown_set_value_m1048320169
AVa:__ZN20TierGraphicsSettings8TransferI18StreamedBinaryReadILb0EEEEvRT_
xFd:_Int32_System_IConvertible_ToUInt64_m2502338186_AdjustorThunk
yfa:__Z33CleanupCubemapGPUUtilityMaterialsPv
R$a:__ZN14SafeBinaryRead8TransferINSt3__24pairIN9ShaderLab16FastPropertyNameE10ColorRGBAfEEEEvRT_PKc17TransferMetaFlags
XJi:__ZL9rshift128PyS_
I0f:_Enumerator_VerifyState_m169680537_AdjustorThunk
G2i:__ZN14dense_hash_mapI10KeyWrapperINSt3__24pairIPK12PropertyInfoP11Il2CppClassEEEj17ReflectionMapHashIS8_ENS9_14EqualsComparerINS1_8equal_toIS8_EEEENS1_9allocatorINS2_IKS9_jEEEEE13set_empty_keyERSH_
Ng:_glRenderbufferStorage
Sbj:__ZNK15dense_hashtableINSt3__24pairIK10KeyWrapperINS1_IPKcS4_EEEiEES6_24NamespaceAndNamePairHashN14dense_hash_mapIS6_iS9_NS6_14EqualsComparerI26NamespaceAndNamePairEqualsEENS0_9allocatorIS8_EEE9SelectKeyESD_SF_E13find_positionERS7_
Fhc:__Z45Register_UnityEngine_Input_get_touchSupportedv
$Tc:__ZN11UnityEngine15PlatformWrapper28GetTextureFormatSupportFlagsEv
LCc:_sfnt_is_postscript
n_b:__ZNSt3__26vectorINS_4pairIN4core12basic_stringIcNS2_20StringStorageDefaultIcEEEES6_EE13stl_allocatorIS7_L18MemLabelIdentifier38ELi16EEE26__swap_out_circular_bufferERNS_14__split_bufferIS7_RSA_EEPS7_
xti:_Uri_EscapeString_m3864445955
xyc:_cf2_setError
Q9a:__ZN14SafeBinaryRead21TransferSTLStyleArrayI13dynamic_arrayI12BoneWeights4Lj16EEEEvRT_17TransferMetaFlags
twe:_Enumerator_MoveNext_m465222849_AdjustorThunk
FKb:__ZZ23InitPlayerLoopCallbacksvEN35PreUpdateSendMouseEventsRegistrator7ForwardEv
HEa:__ZNK6Camera25GetNormalizedViewportRectEP13RenderTextureb
Z7c:_Dropdown_Awake_m3140021404
_g:_glDisable
VZa:__ZN13RenderTexture8TransferI24GenerateTypeTreeTransferEEvRT_
Yyg:_Vector2_get_sqrMagnitude_m837837635
Bkj:__ZN6il2cpp5utils11StringUtils15StringDuplicateEPKDsj
sE:__ZZN8Animator15InitializeClassEvEN37FunctorImpl_417kDidModifyOverrideClip4CallEPviR11MessageData
lri:_Regex_Match_m4145799399
Dv:__ZN17AnimationPlayable17ProcessRootMotionEP35AnimationPlayableEvaluationConstantP32AnimationPlayableEvaluationInputP33AnimationPlayableEvaluationOutput
Iqf:_String_IsNullOrEmpty_m2969720369
Uze:_Enumerator_MoveNext_m2602845255_gshared
vHi:_TextGenerator_GetPreferredHeight_m3514897836
h2e:_BigInteger_LowestSetBit_m3082714978
XJj:b118
YJj:b119
DLb:__ZNK8Material12GetPassCountEv
Xif:_RSAParameters_t1728406613_marshal_pinvoke
Ahf:_Interval_IsDisjoint_m1532171337_AdjustorThunk
RJj:b112
Ryj:_bitshift64Ashr
TJj:b114
UJj:b115
VJj:b116
WJj:b117
mAj:dynCall_diii
MTe:_LayoutUtility_GetFlexibleWidth_m22831835
PMe:_BinaryFormatter__ctor_m971003555
wie:_ArrayReadOnlyList_1_ReadOnlyError_m865416608_gshared
Svd:_CollectionBase_System_Collections_IList_get_Item_m3743372945
Gxa:__ZN4crnd12crn_unpacker22decode_alpha_endpointsEv
iah:_Queue_1__ctor_m2068090025_gshared
TVb:__Z23CullDynamicObjectsUmbraPK4AABBPKN5Umbra15OcclusionBufferER9IndexList
sEc:_tt_cmap4_char_next
_Z:__ZN4core8hash_mapIi17ThreadedAwakeDataNS_4hashIiEENSt3__28equal_toIiEEE4growEi
EBg:__Z50RuntimeInvoker_Boolean_t97287965_Int16_t2552820387PFvvEPK10MethodInfoPvPS4_
nAd:_Convert_ToDecimal_m1233667008
ZZ:__ZN4core8hash_mapIi17ThreadedAwakeDataNS_4hashIiEENSt3__28equal_toIiEEE4growEv
w7:__GLOBAL__sub_I_runtime_assetbundles_1_cpp
KI:__ZN4FMOD7Channel11setPositionEjj
Sh:_glBindSampler
yae:_ClientContext_get_ClientHelloProtocol_m1654639078
Wh:_glGetVertexAttribiv
jAe:_Enumerator_System_Collections_IEnumerator_get_Current_m1975949486_gshared
Dpi:_PatternCompiler_EmitSub_m193323684
JNc:__ZN2UI11CanvasGroup23VirtualRedirectTransferER18StreamedBinaryReadILb0EE
YFd:_Int64_System_IConvertible_ToByte_m375085029
Ouc:__ZN8JSONRead8TransferIbEEvRT_PKc17TransferMetaFlagsb
dcg:_TimeSpan_ToString_m1128692466
lyi:_AesManaged_CreateEncryptor_m2294080233
bvi:_Event_GetHashCode_m3559153592
rma:__ZN9ShaderLab9SubShaderD2Ev
zmj:_GC_promote_black_lists
Yzd:_Convert_ToChar_m3757390865
Cvc:__Z29Transfer_Blittable_ArrayFieldI8JSONRead8Vector4fEvRT_R9ArrayInfoRK23StaticTransferFieldInfo
Sn:FUNCTION_TABLE_vf
CTd:_Binder_GetDerivedLevel_m3216810447
qo:FUNCTION_TABLE_vd
Q8:__ZN13RuntimeStaticI37UnityShaderCompilerExtPluginConfigureLb0EE16StaticInitializeEPv
k7f:_StringBuilder_AppendFormat_m2403596038
Dgd:_DSASignatureDeformatter_SetHashAlgorithm_m3186995552
M5h:_ReadOnlyCollection_1_System_Collections_Generic_ICollectionU3CTU3E_Clear_m2772202961_gshared
Rsc:__ZN9JSONWrite8TransferI13dynamic_arrayI4AABBLj4EEEEvRT_PKc17TransferMetaFlags
TE:__ZNK8Animator17HasBoundPlayablesEv
T3d:_ResourceSet_ReadResources_m3663669011
N9f:_SynchronizationContext_SetSynchronizationContext_m1249070039
s7g:_List_1_AddEnumerable_m1267044261_gshared
SDc:_tt_cmap13_char_index
fVi:__ZN6il2cpp2vm7Runtime9SetConfigEPKc
Dpc:__ZN5Unity9rapidjson12PrettyWriterI16TempBufferWriterNS0_4UTF8IcEES4_13JSONAllocatorE10StartArrayEv
ta:invoke_iiifiii
bvg:_RectTransform_INTERNAL_get_pivot_m2970933031
pgi:_UnityAction_1_Invoke_m927447181_gshared
x9i:__ZN6il2cpp2vm9Exception11FromNameMsgEPK11Il2CppImagePKcS6_S6_
cn:FUNCTION_TABLE_fiiifii
Sea:__Z14GetTimeManagerv
wkg:_Color32_op_Implicit_m213813866
Dug:_RectOffset_set_top_m713260669
tXc:__ZN19TransportJavaScript7CleanupEv
HPa:__Z12GUIDToStringRK9UnityGUIDPc
Pba:__ZN15FileSystemEntry4LockE12FileLockModeP12FileAccessor
WHj:_emscripten_glDrawArrays__wrapper
GFd:_Int32_Equals_m2976157357
DOg:__Z110RuntimeInvoker_Int32_t2950945753_Int32_t2950945753_Int32_t2950945753_Int32U26_t1369213839_Int32U26_t1369213839PFvvEPK10MethodInfoPvPS4_
hM:__ZN11AudioSource22UnmuteActiveVideoSinksEv
cki:_TlsException__ctor_m3717683709
ykj:__ZN4utf88internal20is_overlong_sequenceIiEEbjT_
aPi:__ZN6il2cpp2vm13MetadataCache8RegisterEPK22Il2CppCodeRegistrationPK26Il2CppMetadataRegistrationPK20Il2CppCodeGenOptions
lRa:__Z9SetLocalR15TransformAccessRKN4math7_float4Ey
QRb:__Z30SetupBakedOcclusionForGeometrybRK26SharedLightmapSettingsDataRK15LightmapIndicesR17ShaderPassContext
Nfc:__Z41Register_UnityEngine_Cursor_get_lockStatev
mRb:__Z14SetupLightmapsRK8Vector4fS1_R17ShaderPassContext
e1i:__ZN14dense_hash_mapI10KeyWrapperIPK14Il2CppAssemblyEPK22Il2CppMonoAssemblyNameN6il2cpp5utils11PointerHashIS2_EENS4_14EqualsComparerINSt3__28equal_toIS3_EEEENSD_9allocatorINSD_4pairIKS4_S7_EEEEE13set_empty_keyERSJ_
O_a:__ZL20InitializeGUIShadersv
mGf:_Guid_CompareTo_m243656946
l1b:__Z20DestroyObjectDelayedP6Objectf
yW:__ZN20DynamicHeapAllocatorI17LowLevelAllocatorED0Ev
j4b:__ZN11TimeManagerC2E10MemLabelId18ObjectCreationMode
KOb:__ZN9DepthPassD2Ev
CH:__ZN11AudioFilter6GetDSPEv
Wif:_RSACryptoServiceProvider_OnKeyGenerated_m863837376
RWe:_Scrollbar_OnDrag_m4289602768
Caa:__ZN19RuntimeSceneManager14CanUnloadSceneEP10UnityScene
MOb:__Z22ExtractRenderNodeQueueRK11CullResults15ExtractionFlagsR15RenderNodeQueue
HG:__ZN24AudioScriptBufferManagerC2Ev
bKc:__ZNSt3__26vectorIh13stl_allocatorIhL18MemLabelIdentifier1ELi16EEE8__appendEj
mre:_InternalEnumerator_1_System_Collections_IEnumerator_get_Current_m3854084659_AdjustorThunk
DOe:_OnValidateInput_Invoke_m1009124904
zhe:_U3CGetEnumeratorU3Ec__Iterator0_System_Collections_IEnumerator_get_Current_m283764921_gshared
dKc:__ZN20TextRenderingPrivate8FontImpl16ResetPackingDataEv
pDf:_CultureInfo_get_IcuName_m2258611679
Bqc:__Z18Transfer_BlittableI9JSONWriteLb0EfEvRK29SerializationCommandArgumentsR31RuntimeSerializationCommandInfo
Twa:__Z21GetAsyncUploadManagerv
Jj:_emscripten_glDetachShader
qvg:_Vector2_op_Subtraction_m73004381
Hwa:__ZN17GenericDynamicVBO20ReleaseChunkInternalERK21DynamicVBOChunkHandlejj
oMc:__ZL27CleanupModule_TextRenderingv
svj:_fmodl
s6e:_SymmetricTransform_OFB_m3842617151
MHb:__ZN19RuntimeSceneManager11CreateSceneEv
$jg:_Color__ctor_m286683560
kpi:_PatternCompiler_Emit_m1540115729
CCc:_ps_get_standard_strings
PRb:__Z27SetupBakedOcclusionForLightbRK15SharedLightDataR17ShaderPassContext
csj:__ZN6il2cpp2os5Mutex6UnlockEv
X4f:_EncoderFallbackException__ctor_m1051987327
p2e:_BigInteger_ToString_m3278248272
vxf:_Decimal_System_IConvertible_ToBoolean_m1123794670
mWg:__Z98RuntimeInvoker_Int32_t2950945753_RaycastResult_t3360306849_RaycastResult_t3360306849_RuntimeObjectPFvvEPK10MethodInfoPvPS4_
Taa:__Z17CommitBatchDeleteR11BatchDelete
XTe:_Mask__ctor_m1269055150
Syh:__ZL99WaitHandle_t1743403487_CustomAttributesCacheGenerator_WaitHandle_t1743403487____Handle_PropertyInfoP21CustomAttributesCache
lbf:_WebRequest_AddPrefix_m3187775913
gMb:__Z18RenderImageFiltersR10RenderLoopb
XQc:__Z43CanvasRenderer_Get_Custom_PropMaterialCountP12Il2CppObject
_Rb:__ZNSt3__227__insertion_sort_incompleteIR23CompareReflectionProbesP31RuntimeReflectionProbeBlendInfoEEbT0_S5_T_
U3g:_List_1_Remove_m1457733883_gshared
Xvc:__ZN8JSONRead21TransferSTLStyleArrayI13dynamic_arrayI11QuaternionfLj4EEEEvRT_17TransferMetaFlags
q0d:_MonoEventInfo_GetEventInfo_m873645389
d8d:_MD4Managed_Encode_m386285215
gca:__ZN10InputEventD2Ev
JZ:__ZL23OutOfBoundsReadingErrorPKN5Unity4TypeEiiR6Object
AYc:__ZN22UnityWebRequestManagerD2Ev
Rui:_Event_get_character_m1666742088
Zuj:_isalpha
Uzd:_Convert_ToChar_m1442101407
nge:_SslClientStream_OnLocalPrivateKeySelection_m1934775249
twf:_DateTimeOffset_get_Offset_m2040541042_AdjustorThunk
bTi:__ZN6il2cpp2vmL17IsSocketAsyncCallEP14Il2CppDelegate
Fxd:_Slot_t3975888750_marshal_pinvoke_back
Yjj:__ZN6il2cpp2vm6String6NewLenEPKcj
_4:__Z25GetBuiltinTexEnvParamNamei
GFb:__ZN17PersistentManager9AddStreamEv
_k:_time
e6c:_ContentSizeFitter_set_verticalFit_m1831566876
slf:_TripleDESCryptoServiceProvider_CreateDecryptor_m740960117
zSg:__Z122RuntimeInvoker_Void_t1185182177_Color_t2555686324_Single_t1397266774_SByte_t1669577662_SByte_t1669577662_SByte_t1669577662PFvvEPK10MethodInfoPvPS4_
epg:_Material_EnableKeyword_m329692301
kzc:_cf2_stack_free
okf:_SHA512Managed_HashCore_m2377807474
GGd:_Int64_Parse_m3309897583
WDf:_CompareInfo_IndexOf_m667936183
rv:__ZN7mecanim9animation19EvaluateFloatValuesEPKNS0_18ClipMuscleConstantEPKNS_18ValueArrayConstantEPKNS0_12ClipBindingsEPKNS0_10ClipOutputEPNS0_18AnimationNodeStateEfbb
dD:__ZN8Animator31ClearInternalControllerPlayableEv
THa:__ZN26SinglePassStereoSupportExt18AfterSetViewMatrixEv
Nig:_Bounds__ctor_m1937678907_AdjustorThunk
uwg:_SetupCoroutine_InvokeMember_m2661944898
a_f:_HashSet_1__ctor_m620629637_gshared
Obf:_X509EnhancedKeyUsageExtension_ToString_m350388564
SYi:__ZN15dense_hashtableINSt3__24pairIK10KeyWrapperINS1_IPK9FieldInfoP11Il2CppClassEEEjEES9_17ReflectionMapHashIS8_EN14dense_hash_mapIS9_jSD_NS9_14EqualsComparerINS0_8equal_toIS8_EEEENS0_9allocatorISB_EEE9SelectKeyESI_SK_E4findERSA_
wud:_SimpleEnumerator_MoveNext_m3113120129
LHb:__ZN13LoadOperationC2E10MemLabelId
FOe:_InputField_SendOnValueChanged_m2560301445
uXb:__ZN13RenderTexture19SetAutoGenerateMipsEb
nya:__Z20GetTextureFormatInfo13TextureFormat
Z8e:_TypeConverterAttribute_Equals_m1580461255
h9d:_RSAManaged_ToXmlString_m2369501989
cy:__ZN26AnimatorControllerPlayable8GetFloatEiRf
zhf:_Interval_get_Size_m4163671410_AdjustorThunk
$Nc:__ZN2UI14CanvasRenderer13AwakeFromLoadE17AwakeFromLoadMode
rkh:__ZL64String_t_CustomAttributesCacheGenerator_String_Split_m3580120853P21CustomAttributesCache
uqj:__ZN6il2cpp5utils10MemoryPool6MallocEj
$F:__ZN11SoundHandle8InstanceD2Ev
D3d:_ResourceEnumerator_Reset_m3754276504
ufa:__ZN31CanvasBatchIntermediateRenderer13StaticDestroyEPv
j$:__ZNSt3__23mapIiP15MonoScriptCacheNS_4lessIiEE13stl_allocatorINS_4pairIKiS2_EEL18MemLabelIdentifier78ELi16EEEixERS7_
aTa:__Z26scripting_method_get_class18ScriptingMethodPtr
HFj:_emscripten_glBindProgramARB__wrapper
Kfc:__Z41Register_UnityEngine_CullingGroup_Disposev
Hpi:_PatternCompiler_EmitRepeat_m697083858
G2a:__ZN7Cubemap23VirtualRedirectTransferER19StreamedBinaryWriteILb0EE
sOa:__ZN25MultiBlocksMemoryFileData5WriteEyyPKv
g3d:_ResourceReader_Read7BitEncodedInt_m3568166465
t7c:_DefaultControls_CreateInputField_m1003102365
dIi:_CanvasGroup_set_alpha_m4032573
Qmd:_Array_get_LongLength_m978104875
XBa:__ZL17ProgramUniform2fvPK7ApiGLESjiihPKv
BGj:b83
ZJc:__ZN20TextRenderingPrivate8FontImpl21HasCharacterInTextureEjijfPj
fkb:__ZNSt3__227__insertion_sort_incompleteIRPFbRK23TransformAccessReadOnlyS3_EPS1_EEbT0_S8_T_
oyg:_Transform_SetAsFirstSibling_m253439912
huf:_DateTime_System_IConvertible_ToUInt16_m4182197229_AdjustorThunk
shf:_Interval_get_IsDiscontiguous_m3016063288
Dge:_SslStreamBase_get_CheckCertRevocationStatus_m2739906607
twj:_htonl
Xta:__Z20GetBufferManagerGLESv
AGj:b82
ykf:_SHA512Managed_Sigma1_m922902398
WBb:__ZN18StreamedBinaryReadILb0EE21TransferSTLStyleArrayI31ArrayOfManagedObjectsTransfererEEvRT_17TransferMetaFlags
zua:__ZNSt3__26__treeI22DeviceStencilStateGLES14MemoryCompLessI18DeviceStencilStateENS_9allocatorIS1_EEE12__find_equalIS1_EERPNS_16__tree_node_baseIPvEESD_RKT_
Mtc:__Z18Transfer_BlittableI8JSONReadLb0EtEvRK29SerializationCommandArgumentsR31RuntimeSerializationCommandInfo
DZ:__Z16GenerateTypeTreeRK6ObjectR8TypeTree24TransferInstructionFlags
MEf:_CultureInfo_CreateCulture_m1493441763
klf:_TripleDES_IsWeakKey_m2147489852
Qy:__ZN34AnimationStateMachineMixerPlayable13EndTransitionEv
kI:__ZN12AudioManager21FixMasterGroupRoutingEv
o9a:__ZNK19ShaderPropertySheet11HasPropertyERKN9ShaderLab16FastPropertyNameE
DAj:dynCall_viffffii
bC:__ZN15AllocatorTraitsIN8Animator11AnimatorJobELb0EE13CopyConstructEPS1_RKS1_10MemLabelId
kVg:__Z81RuntimeInvoker_Boolean_t97287965_NavigationU26_t1807167253_Navigation_t3049316579PFvvEPK10MethodInfoPvPS4_
NHj:_emscripten_glUniform1fv__wrapper
obd:_GridLayoutGroup_SetLayoutHorizontal_m2838109254
w7c:_Dropdown_RefreshShownValue_m2806045241
lob:__Z18Transfer_BlittableI14SafeBinaryReadLb1E4AABBEvRK29SerializationCommandArgumentsR31RuntimeSerializationCommandInfo
kgj:__ZN6il2cpp6icalls8mscorlib6System4Enum12get_hashcodeEP12Il2CppObject
xpj:_GC_set_no_dls
z5c:_ColorBlock_set_normalColor_m254595671_AdjustorThunk
Utj:__ZN6il2cpp8metadata26Il2CppGenericMethodCompare6EqualsEPK19Il2CppGenericMethodS4_
pqe:_InternalEnumerator_1_get_Current_m1007906068_gshared
XMi:__ZN15dense_hashtableINSt3__24pairIK10KeyWrapperIPK11Il2CppClassEPKcEES6_N6il2cpp5utils11PointerHashIS3_EEN14dense_hash_mapIS6_S9_SE_NS6_14EqualsComparerINS0_8equal_toIS5_EEEENS0_9allocatorISA_EEE9SelectKeyESJ_SL_E15set_deleted_keyERKSA_
yud:_SimpleEnumerator_Reset_m1520014659
PG:__ZN9AudioClip7WWWOpenEPKciPjPPvS4_
cob:__Z18Transfer_BlittableI14SafeBinaryReadLb0E8Vector2fEvRK29SerializationCommandArgumentsR31RuntimeSerializationCommandInfo
zce:_Context_set_ProtocolNegotiated_m2904861662
Qbj:__ZN15dense_hashtableINSt3__24pairIK10KeyWrapperINS1_IPKcS4_EEEiEES6_24NamespaceAndNamePairHashN14dense_hash_mapIS6_iS9_NS6_14EqualsComparerI26NamespaceAndNamePairEqualsEENS0_9allocatorIS8_EEE9SelectKeyESD_SF_E12resize_deltaEjj
zLe:_RemotingServices_GetRemoteObject_m2117098022
uIi:_CanvasRenderer_SetTexture_m1600559835
IWc:__ZN13dynamic_arrayIiLj4EE6insertEPiPKiS3_
xhh:_Collection_1_System_Collections_IList_IndexOf_m4256072926_gshared
QEg:__Z132RuntimeInvoker_Boolean_t97287965_RuntimeObject_Int32_t2950945753_Int32_t2950945753_RuntimeObject_Int32_t2950945753_Int32_t2950945753PFvvEPK10MethodInfoPvPS4_
zhc:__Z53Register_UnityEngine_Input_INTERNAL_get_mousePositionv
Qta:__ZN7ApiGLES12DrawElementsE16GfxPrimitiveTypePKvjjjj
J5e:_EncryptedPrivateKeyInfo_get_Salt_m3453455261
ovf:_DateTime__ParseNumber_m1240316250
Iof:_Single_System_IConvertible_ToSingle_m1939829239_AdjustorThunk
Fme:_InternalEnumerator_1_get_Current_m3839250771_gshared
mkc:__Z66Register_UnityEngine_Transform_INTERNAL_CALL_InverseTransformPointv
oEf:_CultureInfo_get_TextInfo_m2342840448
DMf:_Array_InternalArray__IndexOf_TisMark_t3471605523_m2905388260_gshared
fd:_SDL_GetTicks
O_i:__ZN15dense_hashtableINSt3__24pairIK10KeyWrapperINS1_IPK11Il2CppImageP11Il2CppClassEEEjEES9_17ReflectionMapHashIS8_EN14dense_hash_mapIS9_jSD_NS9_14EqualsComparerINS0_8equal_toIS8_EEEENS0_9allocatorISB_EEE9SelectKeyESI_SK_E6insertERKSB_
yVb:__Z21CreateShadowCullerJobP30CreateUmbraShadowCullerJobData
e9h:_ReadOnlyCollection_1_System_Collections_Generic_ICollectionU3CTU3E_Remove_m4072504734_gshared
PBa:__ZL18ProgramUniform2uivPK7ApiGLESjiihPKv
i4c:_U3COnFinishSubmitU3Ec__Iterator0_MoveNext_m2729496168
nHj:_glUniform4iv__wrapper
ySb:__Z33GenerateShadowCasterPartsSortDataRK16ShadowCasterDatajRK15RenderNodeQueueRKNSt3__26vectorI20ShadowCasterPartData13stl_allocatorIS7_L18MemLabelIdentifier2ELi16EEEERK10Matrix4x4fRjP20ShadowCasterSortData
UKb:__ZZ23InitPlayerLoopCallbacksvEN51PostLateUpdateTriggerEndOfFrameCallbacksRegistrator7ForwardEv
Ibg:_TimeSpan_Compare_m753151303
jrb:__Z29Transfer_Blittable_ArrayFieldI14SafeBinaryRead9BoundsIntEvRT_R9ArrayInfoRK23StaticTransferFieldInfo
ryc:_cf2_computeDarkening
gJi:_AnimationLayerMixerPlayable__ctor_m860721801_AdjustorThunk
J1d:_MonoPropertyInfo_get_property_info_m1599555644
agd:_DESTransform_CipherFunct_m3527261721
Vmj:_GC_expand_hp_inner
Hdj:__ZNK15dense_hashtableI10KeyWrapperIP18Il2CppGenericClassES3_N6il2cpp8metadata22Il2CppGenericClassHashEN14dense_hash_setIS3_S6_NS3_14EqualsComparerINS5_25Il2CppGenericClassCompareEEENSt3__29allocatorIS3_EEE8IdentityESA_SD_E12test_deletedEj
Mkc:__Z25Screen_Get_Custom_PropDpiv
gng:_UnityEventBase_RebuildPersistentCallsIfNeeded_m216788690
nkj:__ZN4utf812find_invalidIPKcEET_S3_S3_
zQe:_InputField_OnEndDrag_m4127187089
Dbi:_ReadOnlyCollection_1_System_Collections_IList_RemoveAt_m2555465054_gshared
Enh:__ZL72RuntimeCompatibilityAttribute_t1169614002_CustomAttributesCacheGeneratorP21CustomAttributesCache
Nzf:_StackFrame__ctor_m343464319
wT:__ZN11UnityEngine15CloudWebService20WebRequestRestClient7PrepareEv
S0d:_MonoField_CheckGeneric_m453069507
MJc:__ZN20TextRenderingPrivate19NativeTextGenerator23FixLineHorizontalOffsetEiii
Eud:_SynchronizedArrayListWrapper_get_IsFixedSize_m3396437476
rNe:_ObjectReader_ReadArrayOfString_m3550800559
ZOd:_MonoCustomAttrs_GetCustomAttributesInternal_m648304078
aA:__ZN7mecanim9animation19DestroyAnimationSetEPNS0_12AnimationSetERNS_6memory9AllocatorE
nCj:_emscripten_glDepthRange__wrapper
i0:__ZN14SerializedFile7ReleaseEv
mmb:__ZN16MemoryFileSystem4OpenER13FileEntryData14FilePermission16FileAutoBehavior
RDf:_CompareInfo_GetSortKey_m1915852346
bHc:_ft_var_load_avar
jfa:__ZN13RuntimeStaticI13RendererSceneLb0EE13StaticDestroyEPv
Dte:_DefaultComparer_Compare_m1297750557_gshared
AW:__ZN20DynamicHeapAllocatorI17LowLevelAllocatorE10ReallocateEPvji
qub:__Z18Transfer_BlittableI24GenerateTypeTreeTransferLb1E12PropertyNameEvRK29SerializationCommandArgumentsR31RuntimeSerializationCommandInfo
Oyi:_Toggle_OnEnable_m1421694809
_cb:__ZN14SafeBinaryRead21TransferSTLStyleArrayI10vector_mapIPKN5Unity4TypeE7Hash128NSt3__24lessIS5_EENS7_9allocatorINS7_4pairIS5_S6_EEEEEEEvRT_17TransferMetaFlags
OG:__ZN9AudioClip18GetQueuedAudioDataEPPvj
bMc:__ZN20TextRenderingPrivate21TextMeshGeneratorImpl14GarbageCollectEv
tac:__ZNK9Texture2D17CheckHasPixelDataEv
kGi:_InputBuffer_DeleteCharacters_m244939457
dwb:__Z18Transfer_BlittableI19StreamedBinaryWriteILb0EELb0E9BoundsIntEvRK29SerializationCommandArgumentsR31RuntimeSerializationCommandInfo
tOb:__Z18SetShadowsKeywordsR17ShaderPassContext9LightType10ShadowType16ShadowProjectionbb
sad:_Graphic_GetPixelAdjustedRect_m3729397999
F2i:__ZN14dense_hash_mapI10KeyWrapperINSt3__24pairIPK12PropertyInfoP11Il2CppClassEEEj17ReflectionMapHashIS8_ENS9_14EqualsComparerINS1_8equal_toIS8_EEEENS1_9allocatorINS2_IKS9_jEEEEEC2EjRKSB_RKSF_
z6b:__ZN17CollisionMeshDataC2Ev
PCe:_Dictionary_2_ToTValue_m692436965_gshared
U4d:_Marshal_Copy_m1222846562
h4a:__ZN16LightmapSettings23VirtualRedirectTransferER19StreamedBinaryWriteILb0EE
XKb:__ZZ23InitPlayerLoopCallbacksvEN47PostLateUpdateMemoryFrameMaintenanceRegistrator7ForwardEv
Sta:__ZN7ApiGLES20SetVertexArrayAttribEjj12VertexFormathjPKv
vo:FUNCTION_TABLE_viiififii
Gnj:_GC_push_next_marked
Ihb:__ZN18IDCollectorFunctor18GenerateInstanceIDEi17TransferMetaFlags
s3h:_GameObject_GetComponent_TisRuntimeObject_m2049753423_gshared
TGi:_TextGenerationSettings_Equals_m3618607189_AdjustorThunk
w8e:_NameObjectCollectionBase_BaseAdd_m3437748750
$cg:_Type_internal_from_handle_m3156085815
t7h:_ReadOnlyCollection_1_System_Collections_Generic_ICollectionU3CTU3E_Add_m69722965_gshared
yD:__ZN8Animator8TransferI19StreamedBinaryWriteILb0EEEEvRT_
F1:__ZNSt3__27__sort4IRNS_6__lessI14ObjectLoadDataS2_EEPS2_EEjT0_S6_S6_S6_T_
aNb:__ZNK25CameraStackRenderingState16GetCurrentCameraEv
MXe:_ScrollRect_get_rectTransform_m2442061719
x8b:__Z22PlayableValidityChecksRK9HPlayableb
Eeb:__ZN15ResourceManagerD2Ev
zfc:__Z41Register_UnityEngine_Camera_GetAllCamerasv
wmg:_InvokableCall__ctor_m2158562079
Xqi:_Assertion__ctor_m2128950829
RVc:__ZN28PerformanceReportingSettings8TransferI14SafeBinaryReadEEvRT_
$ib:__ZN15CacheWriterBase18GetAddressOfMemoryEv
_id:_Buffer_BlockCopy_m2884209081
Utc:__Z18Transfer_BlittableI8JSONReadLb1E5RectTIiEEvRK29SerializationCommandArgumentsR31RuntimeSerializationCommandInfo
$7i:__ZN6il2cpp2vm22EmbeddedResourceRecordC2ERKS1_
qIb:__ZL20DrawVBOChunkWithPassP6ShaderPN9ShaderLab4PassER17ShaderPassContextR10DynamicVBORK21DynamicVBOChunkHandle
Ndh:_Collection_1__ctor_m825528237_gshared
B2a:__ZN9Texture2D13AwakeFromLoadE17AwakeFromLoadMode
zJf:_SetPropertyUtility_SetStruct_TisColorBlock_t2139031574_m1748367426_gshared
Wqg:_PlayerConnection_get_instance_m1750121257
Efj:__ZN6il2cpp2vm3RCW14QueryInterfaceILb0EEEP14Il2CppIUnknownP15Il2CppComObjectRK10Il2CppGuid
sni:_X509Store_get_Certificates_m56224934
Vza:__ZN6prcoreL17RemapGenericFloatI15TexFormatRFloat18TexFormatARGBFloatEEvPKNS_9InnerInfoE
sIg:__Z85RuntimeInvoker_Void_t1185182177_Int64_t3736567304_Int32_t2950945753_Int64_t3736567304PFvvEPK10MethodInfoPvPS4_
T9d:_CipherSuite__ctor_m2440635082
$if:_RSAPKCS1KeyExchangeFormatter_SetRSAKey_m1477802943
Umf:_EvidenceEnumerator_get_Current_m1264365535
OWc:__ZN11UnityEngine15PlatformWrapper20GetPlayerPrefsUInt64ERKN4core12basic_stringIcNS1_20StringStorageDefaultIcEEEEy
T4d:_Marshal_copy_from_unmanaged_m2834266824
QAj:dynCall_iiiifii
cSb:__ZN20ReflectionProbeCacheC2ER13BatchRendererR15RenderLoopStats
Ztg:_Rect_set_xMax_m1720695099_AdjustorThunk
eLg:__Z59RuntimeInvoker_Int32_t2950945753_DateTimeOffset_t3229287507PFvvEPK10MethodInfoPvPS4_
klb:__ZNK12HandlerChain6ExistsERK13FileEntryData
WCf:_Calendar__ctor_m106290643
OSb:__Z30FindDirectAttenuationFromProbeP18ForwardLightsBlockbiRK10RenderNodeRK23FindForwardLightsParamsf
Mac:__ZNSt3__26vectorIj13stl_allocatorIjL18MemLabelIdentifier1ELi16EEE6assignIPKjEENS_9enable_ifIXaasr21__is_forward_iteratorIT_EE5valuesr16is_constructibleIjNS_15iterator_traitsIS9_E9referenceEEE5valueEvE4typeES9_S9_
kcb:__ZN12InputManager23VirtualRedirectTransferER24GenerateTypeTreeTransfer
pkb:__ZN9Transform23VirtualRedirectTransferER24GenerateTypeTreeTransfer
imc:__ZN12GUIClipState10BeginOnGUIER10InputEvent
Ana:__ZNSt3__26vectorIN9ShaderLab20SerializedSubProgram12UAVParameterENS_9allocatorIS3_EEE21__push_back_slow_pathIKS3_EEvRT_
JMg:__Z87RuntimeInvoker_RuntimeObject_Byte_t1134296376_RuntimeObject_RuntimeObject_RuntimeObjectPFvvEPK10MethodInfoPvPS4_
Cbe:_HandshakeMessage_Process_m810828609
wFc:_UNITY_tt_size_ready_bytecode
wIc:__ZN13TextRendering4FontD2Ev
Nsg:_Quaternion_Inverse_m1311579081
dLc:_UNITY_FT_Stream_Open
svb:__Z29Transfer_Blittable_ArrayFieldI24GenerateTypeTreeTransfer9BoundsIntEvRT_R9ArrayInfoRK23StaticTransferFieldInfo
_ad:_GraphicRegistry__cctor_m1805310505
Sig:_Bounds_Equals_m3920299735
bXa:__ZN8keywords18KeywordSetToStringERK16ShaderKeywordSetRN4core12basic_stringIcNS3_20StringStorageDefaultIcEEEE
hYd:_GenericTypeParameterBuilder_GetGenericArguments_m2988765390
uBc:_otv_MATH_validate
CHg:__Z77RuntimeInvoker_Void_t1185182177_Int64_t3736567304_ResourceInfoU26_t1611441338PFvvEPK10MethodInfoPvPS4_
oF:__ZN4FMOD3DSP12setParameterEif
bGb:__ZN13MemoryManager16StaticInitializeEv
qEf:_CultureInfo_Equals_m1360976324
lf:___cxa_free_exception
zLh:__ZL69PersistentCall_t3407714124_CustomAttributesCacheGenerator_m_CallStateP21CustomAttributesCache
sJ:__ZN4FMOD22FakeModChannelCallbackEPv
KZc:_BaseInput_get_compositionString_m1887614380
rf:_emscripten_glValidateProgram
PVa:__ZN4Mesh10CreateMeshEv
zid:_RijndaelManagedTransform__ctor_m1033522223
Nuf:_DateTime_CompareTo_m3889078633
Uyc:_cf2_stack_clear
WDd:_NumberFormatter_set_CurrentCulture_m1358228087
vXb:__ZN7Texture13SetAnisoLevelEi
KR:__ZNSt3__26__treeINS_12__value_typeIN4core12basic_stringIcNS2_20StringStorageDefaultIcEEEEjEENS_19__map_value_compareIS6_S7_NS_4lessIS6_EELb1EEE13stl_allocatorIS7_L18MemLabelIdentifier88ELi16EEE7destroyEPNS_11__tree_nodeIS7_PvEE
K6:__ZN19EndOfFrameCallbacks7EnqueueEP18EndOfFrameCallbackb
xog:_Input_set_compositionCursorPos_m1909373301
UKc:_raccess_guess_vfat
rJg:__Z78RuntimeInvoker_IntPtr_t_SByte_t1669577662_RuntimeObject_BooleanU26_t4125257963PFvvEPK10MethodInfoPvPS4_
dSc:__Z44Canvas_CUSTOM_GetETC1SupportedCanvasMaterialv
Gyf:_Decimal_decimalSetExponent_m3707787243
m9:__ZN33InstancedMeshIntermediateRenderer13StaticDestroyEPv
Qaj:__ZN14dense_hash_mapI10KeyWrapperIP14Il2CppIUnknownEjN6il2cpp5utils11PointerHashIS1_EENS3_14EqualsComparerINSt3__28equal_toIS2_EEEENS9_9allocatorINS9_4pairIKS3_jEEEEE13set_empty_keyERSF_
Hva:__ZN15dense_hashtableINSt3__24pairIK9TextureIDiEES2_14GfxGenericHashIS2_EN14GfxDoubleCacheIS2_iS6_NS0_8equal_toIS2_EEN31GfxDoubleCacheConcurrencyPolicy11LocklessGetE42GfxDoubleCacheDefaultEmptyDeletedGeneratorIS2_EE9SelectKeyES9_13stl_allocatorIS4_L18MemLabelIdentifier24ELi16EEE12resize_deltaEjj
PTa:__Z21DestroyShadowMapCacheP14ShadowMapCache
yx:__ZN7mecanim9animation25CreateControllerWorkspaceEPKNS0_18ControllerConstantERNS_6memory9AllocatorE
G2h:_Array_InternalArray__get_Item_TisLabelFixup_t858502054_m3276643490_gshared
d2i:__ZN15dense_hashtableINSt3__24pairIK10KeyWrapperIPK10Il2CppTypeEjEES6_N6il2cpp8metadata14Il2CppTypeHashEN14dense_hash_mapIS6_jSB_NS6_14EqualsComparerINSA_26Il2CppTypeEqualityComparerEEENS0_9allocatorIS8_EEE9SelectKeyESF_SH_E14squash_deletedEv
Z8i:__ZN6il2cpp2vm13LivenessState5ResetEv
cqc:__ZN9JSONWrite8TransferI11KeyframeTplIfEEEvRT_PKc17TransferMetaFlags
lyd:_SortedList_GetImpl_m3689246167
X6h:_ReadOnlyCollection_1_System_Collections_Generic_IListU3CTU3E_set_Item_m3209059215_gshared
Swa:__ZN24BuiltinShaderParamValuesC2Ev
Eli:_PKCS12_Decode_m163534693
rqc:__ZL41CreateJSONTransferFunctionScriptingTraitsv
fha:__ZN6Shader23VirtualRedirectTransferER14SafeBinaryRead
Nxc:_cff_glyph_load
aAg:_WaitForSecondsRealtime_get_keepWaiting_m846832224
kji:_ObjectPool_1_get_countActive_m807006650_gshared
dEb:__Z23GetLateBehaviourManagerv
pGg:__Z33RuntimeInvoker_Single_t1397266774PFvvEPK10MethodInfoPvPS4_
rqb:__ZN14SafeBinaryRead21TransferSTLStyleArrayINSt3__26vectorI8Gradient13stl_allocatorIS3_L18MemLabelIdentifier1ELi16EEEEEEvRT_17TransferMetaFlags
TX:__ZN10MemoryPool10DeallocateEPv
wmc:__ZN8GUIState8SetEventERK10InputEvent
TQg:__Z80RuntimeInvoker_Void_t1185182177_ScriptableRenderContext_t274343796_RuntimeObjectPFvvEPK10MethodInfoPvPS4_
uAj:dynCall_vif
vAj:dynCall_vid
vBd:_Convert_ToSByte_m4075629912
wAj:dynCall_vii
f5e:_KeyPairPersistence_FromXml_m746585742
Xrf:_Decoder__ctor_m4046021500
LBb:__Z18Transfer_BlittableI18StreamedBinaryReadILb0EELb0EdEvRK29SerializationCommandArgumentsR31RuntimeSerializationCommandInfo
j4c:_ColorBlock_get_fadeDuration_m121071467
WTi:__ZN6il2cpp6icalls8mscorlib6System8MonoType18GetFields_internalEP20Il2CppReflectionTypeiS5_
q2:__ZN5Unity9Component16CheckConsistencyEv
A1d:_MonoMethod_get_ContainsGenericParameters_m3860345224
R4:__ZN19ShaderPropertySheet37CreateTextureAuxPropertyUninitializedEN9ShaderLab16FastPropertyNameES1_PKc
Hwb:__ZL26Transfer_SimpleNativeClassI19StreamedBinaryWriteILb0EE10RectOffsetLb1EEvRK29SerializationCommandArgumentsR31RuntimeSerializationCommandInfo
nKj:b128
yZi:__ZN15dense_hashtableINSt3__24pairIK10KeyWrapperIPK10Il2CppTypeEjEES6_N6il2cpp8metadata14Il2CppTypeHashEN14dense_hash_mapIS6_jSB_NS6_14EqualsComparerINSA_26Il2CppTypeEqualityComparerEEENS0_9allocatorIS8_EEE9SelectKeyESF_SH_E3endEv
fsa:__ZN13GfxDeviceGLES17SetGpuProgramNameEP10GpuProgramPKc
JT:__ZNK11UnityEngine15CloudWebService25WebRequestDownloadHandler11GetProgressEv
GWa:__Z43IsVertexFormatCompatibleWithDynamicBatchingRK14VertexDataInfo
LNf:_Array_InternalArray__ICollection_Add_TisMonoResource_t4103430009_m2699164149_gshared
iSi:__ZN6il2cpp2vm13MetadataCache28GetMethodDefinitionFromIndexEi
Rij:__ZN6il2cpp2os20FileErrnoToErrorCodeEi
M$a:__ZN14SafeBinaryRead19TransferSTLStyleMapINSt3__23mapI39DeprecatedFastPropertyNameSerialization10ColorRGBAfNS1_4lessIS3_EENS1_9allocatorINS1_4pairIKS3_S4_EEEEEEEEvRT_17TransferMetaFlags
ixf:_Decimal_ThrowAtPos_m1170269346
RGh:__ZL98GameObject_t1113636619_CustomAttributesCacheGenerator_GameObject_SendMessage_m3720186693____value1P21CustomAttributesCache
ah:_atexit
wZe:_Selectable_set_image_m3625164794
Jqe:_InternalEnumerator_1_get_Current_m1232221964_gshared
Nai:_ReadOnlyCollection_1_System_Collections_Generic_IListU3CTU3E_Insert_m1818924748_gshared
G0i:__ZN6il2cpp2vmL31GetObjectForMissingDefaultValueEj
x3c:_AspectRatioFitter__ctor_m2468506840
kTc:__ZN11UnityEngine15PlatformWrapper30GetVRPlayAreaBoundaryDimensionEv
Dmi:_X509Certificate_get_Hash_m410033711
Xja:__ZN9ShaderLab14SerializedPassC2ERKS0_
Aqc:__Z35Transfer_Blittable_FixedBufferFieldI9JSONWritehEvRK29SerializationCommandArgumentsR31RuntimeSerializationCommandInfo
l:STACKTOP
_Ac:_cff_get_name_index
y4a:__ZN21EnlightenSceneMapping16BuildRemapTablesEv
x9b:__ZN17TransformInternal27UpdateDeepChildCountUpwardsER18TransformHierarchyii
J$c:_ExecuteEvents_Execute_m3613826831
l7c:_Image_set_type_m2038193736
A:tempBigIntD
TWb:__ZNK25CameraStackRenderingState25CalculateCameraTargetTypeEv
a_d:_PropertyBuilder_GetSetMethod_m128670376
y:tempBigIntR
x:tempBigIntS
w:tempBigIntP
rn:FUNCTION_TABLE_viffi
cLd:_MemoryStream_SetLength_m974389318
J1:__ZN6Object18RegisterInstanceIDEPS_
Xtb:__Z18Transfer_BlittableI24GenerateTypeTreeTransferLb1EsEvRK29SerializationCommandArgumentsR31RuntimeSerializationCommandInfo
afj:__ZN15dense_hashtableINSt3__24pairIK10KeyWrapperIP12Il2CppObjectEN6il2cpp2gc9CachedCCWEEES5_NS7_5utils11PointerHashIS3_EEN14dense_hash_mapIS5_S9_SD_NS5_14EqualsComparerINS0_8equal_toIS4_EEEENS0_9allocatorISA_EEE9SelectKeyESI_SK_E11set_deletedER30dense_hashtable_const_iteratorISA_S5_SD_SM_SI_SK_E
lpa:__ZNK9GfxDevice18GetWorldViewMatrixEv
HTg:__Z70RuntimeInvoker_Single_t1397266774_Single_t1397266774_Int32_t2950945753PFvvEPK10MethodInfoPvPS4_
rNb:__Z20LookRotationToMatrixRK8Vector3fS1_P10Matrix3x3f
SBd:_Convert_ToUInt16_m3902921832
JSd:_Assembly_GetTypes_m1724781913
Pqh:__ZL54TypeBuilder_t1073948154_CustomAttributesCacheGeneratorP21CustomAttributesCache
llj:__ZN6il2cpp6icalls8mscorlib6System7Convert17Base64ToByteArrayEPDsib
Lub:__ZL12InvokeMethodI24GenerateTypeTreeTransferEvRK29SerializationCommandArgumentsR31RuntimeSerializationCommandInfo
y2f:_List_1_AddEnumerable_m376418521_gshared
OMg:__Z79RuntimeInvoker_Void_t1185182177_Byte_t1134296376_Byte_t1134296376_RuntimeObjectPFvvEPK10MethodInfoPvPS4_
pPi:__ZNSt3__218__insertion_sort_3IRN6il2cpp5utils11collections13ArrayValueMapIPK10Il2CppType17Il2CppInteropData26InteropDataToTypeConverterNS1_8metadata14Il2CppTypeLessENSA_26Il2CppTypeEqualityComparerEE12SortComparerEPS8_EEvT0_SH_T_
ppa:__ZNK9GfxDevice25GetDeviceProjectionMatrixEv
ma:invoke_iidiii
bub:__Z18Transfer_BlittableI24GenerateTypeTreeTransferLb1EtEvRK29SerializationCommandArgumentsR31RuntimeSerializationCommandInfo
JP:__ZN12AudioManager33GetCurrentAmbisonicDefinitionNameE31UnityAudioEffectDefinitionFlags
Mcc:__ZN11UTF16StringC2EPKc10MemLabelId
Zbc:__ZN10systeminfo24GetRuntimePlatformStringEv
$Id:_MonoIO_DeleteFile_m3839141322
kKa:__ZN10SpookyHash5ShortEPKvjPyS2_
Agj:__ZN6il2cpp6icalls8mscorlib6System6String22RedirectToCreateStringEv
Cqh:__ZL99ILGenerator_t1388622344_CustomAttributesCacheGenerator_ILGenerator_Mono_GetCurrentOffset_m993338688P21CustomAttributesCache
kTe:_LayoutRebuilder_ReapplyDrivenProperties_m2581469389
Hsg:_PropertyName_op_Implicit_m1633828199
f5:__ZN9ShaderLab6TexEnvC2ERKNS_25SerializedTexturePropertyE
_Qe:_InputField_Append_m687033660
iRa:__ZN9Transform32SetLocalScaleWithoutNotificationERKN4math7_float3Ey
Y_a:__ZN19ShaderPropertySheet38CopyTextureWithAuxiliaryPropertiesFromERKN9ShaderLab16FastPropertyNameERKS_
KJc:__ZN20TextRenderingPrivate19NativeTextGeneratorD2Ev
NSi:__ZN6il2cpp2vm19SocketPollingThread14DequeueRequestEv
xij:__ZL10RevealLinkPv
ftf:_DateTime__ctor_m12900168_AdjustorThunk
lce:_ClientSessionCache_FromContext_m343076119
Gi:___cxa_end_catch
elf:_ToBase64Transform_TransformBlock_m2497349397
N8e:_NameValueCollection_Add_m2418530856
EKe:_ReturnMessage_get_MethodSignature_m399735125
lSc:__Z43Register_UnityEngine_Canvas_set_scaleFactorv
X0e:_SortKeyBuffer_AppendLevel5_m3963841125
dti:_PositionAssertion_Compile_m2500980346
bud:_ArrayListWrapper_ToArray_m3192696690
VKc:_raccess_guess_linux_cap
dQ:__Z36AudioSource_Get_Custom_PropIsPlayingP12Il2CppObject
XBb:__Z19TransferField_ArrayI18StreamedBinaryReadILb0EE27Converter_UnityEngineObjectEvRK23StaticTransferFieldInfoR31RuntimeSerializationCommandInfoRT0_
Bod:_Attribute_GetCustomAttribute_m4034845276
vpc:__ZNK5Unity9rapidjson12GenericValueINS0_4UTF8IcEE13JSONAllocatorE6AcceptINS0_12PrettyWriterI16TempBufferWriterS3_S3_S4_EEEEbRT_
$9:__Z33InitializeBuiltinShaderParamNamesv
xdg:_Type_GetConstructor_m2219014380
g5c:_CanvasUpdateRegistry_SortLayoutList_m471948466
Q2:__ZNK16TypeTreeIterator4TypeEv
XJb:__ZN10FileSystem25MountDataFolderFileSystemERKN4core12basic_stringIcNS0_20StringStorageDefaultIcEEEES6_
ajd:_ArgumentOutOfRangeException__ctor_m282481429
Dvi:_GUILayoutUtility_Internal_MoveWindow_m3463958180
pj:_glGetUniformLocation
Iqa:__ZN13GfxDeviceGLES32CreateColorRenderSurfacePlatformEP17RenderSurfaceBase19RenderTextureFormat
vG:__ZN12AudioManager24CreateFMODSoundFromMovieEP9AudioClip
hRi:__ZN6il2cpp2vm13MetadataCache24GetGenericInstanceMethodEPK10MethodInfoPK20Il2CppGenericContext
dnj:_GC_hblk_fl_from_blocks
H0d:_MonoField_GetParentType_m2478933781
Y0:__Z24ConvertSeparatorsToUnityPc
Y$i:__ZN6il2cpp2gc19AppendOnlyGCHashMapINSt3__24pairIPK9EventInfoP11Il2CppClassEEP21Il2CppReflectionEvent17ReflectionMapHashIS9_ENS2_8equal_toIS9_EEE3AddERKS9_SB_
Kbh:_Collection_1_System_Collections_ICollection_CopyTo_m46221116_gshared
M6i:__ZN6il2cpp2vm6Thread20FreeThreadStaticDataEP12Il2CppThread
VLf:_Array_InternalArray__IndexOf_TisClientCertificateType_t1004704908_m3457772631_gshared
oAg:__Z28RuntimeInvoker_RuntimeObjectPFvvEPK10MethodInfoPvPS4_
izc:_cf2_glyphpath_finalize
Swh:__ZL56SecurityAction_t569814076_CustomAttributesCacheGeneratorP21CustomAttributesCache
Klf:_X509Certificate_GetPublicKey_m4184729161
Ftd:_ArrayListWrapper_set_Capacity_m2373297383
tQe:_Text_get_cachedTextGenerator_m2506989875
TAj:dynCall_viififi
m$f:_Enumerator_System_Collections_IEnumerator_Reset_m502339360_AdjustorThunk
yoh:__ZL58DictionaryEntry_t3123975638_CustomAttributesCacheGeneratorP21CustomAttributesCache
eHi:_TextGenerator_GetVerticesInternal_m3222977969
Q5g:_List_1_RemoveAt_m4279084788_gshared
KEc:_UNITY_FT_Stream_Free
z6i:__ZN15dense_hashtableINSt3__24pairIK10KeyWrapperINS1_IP11Il2CppClassjEEES4_EES6_N6il2cpp8metadata14ArrayClassHashEN14dense_hash_mapIS6_S4_SB_NS6_14EqualsComparerINSA_17ArrayClassCompareEEENS0_9allocatorIS8_EEE9SelectKeyESF_SH_E12maybe_shrinkEv
xfd:_CryptoConfig_EncodeLongNumber_m4127306320
BSg:__Z87RuntimeInvoker_Void_t1185182177_Single_t1397266774_Single_t1397266774_SByte_t1669577662PFvvEPK10MethodInfoPvPS4_
qae:_CipherSuite_createEncryptionCipher_m2533565116
SR:__ZN11UnityEngine15CloudWebService14DataDispatcher25OnDataBlockConsumedStaticEPv
O4g:_List_1_CheckIndex_m3044940639_gshared
eAg:_GenericStack__ctor_m933681517
hAb:__Z29Transfer_Blittable_ArrayFieldI18StreamedBinaryReadILb1EE11QuaternionfEvRT_R9ArrayInfoRK23StaticTransferFieldInfo
uOd:_Math_Max_m482125436
NDe:_ActivatedServiceTypeEntry_ToString_m1591455874
anf:_SecurityElement_ToXml_m3664345083
XPf:_Array_InternalArray__Insert_TisParameterModifier_t1461694466_m3664994573_gshared
H:Math_pow
jqg:_Mesh_get_tangents_m3279676290
yia:__Z14resize_trimmedINSt3__26vectorIN9ShaderLab20SerializedSubProgram16SamplerParameterENS0_9allocatorIS4_EEEEEvRT_j
isg:_PlayableHandle_GetPlayableType_Injected_m686992718
IZe:_Shadow_set_effectColor_m3910676693
Lxj:__ZNSt3__212basic_stringIcNS_11char_traitsIcEENS_9allocatorIcEEE6insertEjPKcj
tqc:__Z44InitializeTransferFunctionScriptingTraitsForI8JSONReadEvR31TransferFunctionScriptingTraits
LIb:__ZNSt3__27__sort4IRNS_4lessIN22BuiltinResourceManager8ResourceEEEPS3_EEjT0_S7_S7_S7_T_
c8e:_ListDictionary_Add_m3918308031
Rej:__ZNK15dense_hashtableINSt3__24pairIK10KeyWrapperIP12Il2CppObjectEN6il2cpp2gc9CachedCCWEEES5_NS7_5utils11PointerHashIS3_EEN14dense_hash_mapIS5_S9_SD_NS5_14EqualsComparerINS0_8equal_toIS4_EEEENS0_9allocatorISA_EEE9SelectKeyESI_SK_E23find_position_with_hashERS6_j
aQe:_Selectable_OnDisable_m3225138518
rGc:_UNITY_tt_face_get_location
tyi:_AesManaged_CreateEncryptor_m1611897367
rrc:__ZL26Transfer_SimpleNativeClassI9JSONWrite17AnimationCurveTplIfELb0EEvRK29SerializationCommandArgumentsR31RuntimeSerializationCommandInfo
kYb:__ZN10GameObject34AddFirstTransformComponentInternalEP9Transform
Mfc:__Z31Cursor_Get_Custom_PropLockStatev
u8:__ZNSt3__26__treeINS_12__value_typeINS_4pairIPcS3_EENS_3setIS3_15compare_tstringIPKcENS_9allocatorIS3_EEEEEENS_19__map_value_compareIS4_SD_20smaller_tstring_pairIS8_ELb1EEENSA_ISD_EEE7destroyEPNS_11__tree_nodeISD_PvEE
VM:__ZN12AudioManager29GetCurrentAmbisonicDefinitionE31UnityAudioEffectDefinitionFlags
lgc:__Z52Register_UnityEngine_GameObject_GetComponentInParentv
jdb:__ZN15SerializeTraitsINSt3__24pairIPKN5Unity4TypeE7Hash128EEE8TransferI14SafeBinaryReadEEvRS7_RT_
Amj:_GC_number_stack_black_listed
Kyf:_Decimal_ToString_m4018746482_AdjustorThunk
xVb:__Z37GenerateCombinedDynamicVisibleListJobP11CullResults
CDe:_Dictionary_2_ToTKey_m2055624458_gshared
l6a:__ZNK13ScreenManager21GetCursorInsideWindowEv
bUd:_CustomAttributeData_GetCustomAttributes_m1033457578
a5d:_SafeHandle_DangerousAddRef_m614714386
xSb:__Z20IntersectAABBFrustumRK4AABBPK5Planej
AYe:_ScrollRect_OnDrag_m688583138
d7b:__ZN13RenderManager15InitializeClassEv
Kqb:__ZN15SerializeTraitsI12PropertyNameE8TransferI14SafeBinaryReadEEvRS0_RT_
S4h:_ReadOnlyCollection_1_System_Collections_IList_IndexOf_m3120991897_gshared
WIe:_Header__ctor_m1921907550
C_e:_Slider_FindSelectableOnUp_m4062600878
Qrd:_Convert_ToSByte_m1350241137
bpg:_Material_SetIntImpl_m724477324
x7:__GLOBAL__sub_I_runtime_baseclasses_2_cpp
Asc:__ZN9JSONWrite8TransferI11ColorRGBA32EEvRT_PKc17TransferMetaFlags
gvc:__Z22TransferField_NonArrayI8JSONRead27Converter_SimpleNativeClassI8GradientEEvRK23StaticTransferFieldInfoR31RuntimeSerializationCommandInfoRT0_
fFb:__ZN10MonoScript13AwakeFromLoadE17AwakeFromLoadMode
phf:_Interval__ctor_m4022869013
Opd:_Boolean_System_IConvertible_ToUInt16_m3465173538
RPa:__ZN10MemoryFile21CreateFileSystemEntryE10MemLabelId14FilePermissionPvjb
DFa:__ZNK18GfxFramebufferGLES15DiscardContentsER12ObjectHandleI17RenderSurface_TagP17RenderSurfaceBaseE
s7d:_ARC4Managed_KeySetup_m2449315676
cSi:__ZN6il2cpp2vm13MetadataCache27GetEventDefinitionFromIndexEi
iCd:_Convert_ToUInt64_m92315402
Hrc:__Z18Transfer_BlittableI9JSONWriteLb1EdEvRK29SerializationCommandArgumentsR31RuntimeSerializationCommandInfo
WEj:_glGetIntegerv__wrapper
gne:_InternalEnumerator_1_System_Collections_IEnumerator_get_Current_m435848551_gshared
o3:__ZN10GameObject28FinalizeAddComponentInternalEPN5Unity9ComponentE
oVh:__ZL57Image_t2670269651_CustomAttributesCacheGenerator_m_SpriteP21CustomAttributesCache
B3a:__ZN9Texture2DD2Ev
JAi:_AudioExtensionManager_GetReadyToPlay_m1557263244
FBd:_Convert_ToSingle_m164367433
H2h:_Array_InternalArray__get_Item_TisILTokenInfo_t2325775114_m3110830457_gshared
mAd:_Convert_ToDecimal_m1284410333
Ujg:_Camera_INTERNAL_CALL_RaycastTry2D_m3172975827
Kvf:_DateTime_CheckStyle_m1392838900
Fkd:_SmallXmlParser_ReadUntil_m2715581630
k8e:_NameObjectCollectionBase__ctor_m2090733912
ggf:_Group__cctor_m2230627219
mHf:_Array_InternalArray__ICollection_Contains_TisDouble_t594665363_m1696010878_gshared
Jo:FUNCTION_TABLE_viiiffi
d9d:_RSAManaged_EncryptValue_m4149543654
Pq:__ZN13dynamic_arrayIhLj1EE18resize_initializedEjRKh12ResizePolicy
uda:__ZN27IntermediateRendererManagerD2Ev
Rhb:__ZN17PersistentManager27GetLoadErrorMessageFromPathERKN4core12basic_stringIcNS0_20StringStorageDefaultIcEEEE
uli:_NetscapeCertTypeExtension_ToString_m1800688476
cm:_glGenRenderbuffers
D8i:__ZN6il2cpp6icalls8mscorlib6System2IO6MonoIO19GetCurrentDirectoryEPi
Fvg:_Renderer_get_sortingOrder_m344607889
kTb:__Z21IntersectSegmentPlaneRK8Vector3fS1_RK5PlanePS_
GIg:__Z81RuntimeInvoker_Void_t1185182177_Int64_t3736567304_RuntimeObject_Int32_t2950945753PFvvEPK10MethodInfoPvPS4_
HZh:__ZL50Outline_t2536100125_CustomAttributesCacheGeneratorP21CustomAttributesCache
Ldb:__ZN14PlayerSettings23VirtualRedirectTransferER17RemapPPtrTransfer
hui:_Uri_get_IsFile_m2450018824
Kba:__ZN14CachingManager7DisposeEv
LM:__ZN12AudioManager31GetCurrentSpatializerDefinitionEv
K7e:_HybridDictionary_Add_m912320053
nbb:__ZN12MeshRenderer16UpdateCachedMeshEv
Dxi:_KeyBuilder_IV_m3340234014
qqb:__Z19TransferField_ArrayI14SafeBinaryRead27Converter_SimpleNativeClassI8GradientEEvRK23StaticTransferFieldInfoR31RuntimeSerializationCommandInfoRT0_
JTf:_DefaultComparer_Equals_m1163494476_gshared
fIf:_Array_InternalArray__ICollection_Remove_TisDictionaryEntry_t3123975638_m3699186409_gshared
KRd:_Object_Equals_m1397037629
Xy:__ZNK27StateMachineBehaviourPlayer25FireStateMachineBehaviourEiiN7mecanim12statemachine19StateMachineMessageE
rig:_AsyncOperation_t1445031843_marshal_pinvoke_back
Y7:__GLOBAL__sub_I_runtime_utilities_4_cpp
Atg:_Rect_get_center_m138276653
PXb:__ZN6Camera15SetOrthographicEb
RAc:_UNITY_FT_Stream_GetUShort
wpa:__ZN13GfxDeviceGLES14DisableScissorEv
AMg:__Z240RuntimeInvoker_RuntimeObject_Int16_t2552820387_RuntimeObject_Int32_t2950945753_Int32_t2950945753_Int32_t2950945753_SByte_t1669577662_SByte_t1669577662_SByte_t1669577662_SByte_t1669577662_Int16_t2552820387_SByte_t1669577662_SByte_t1669577662PFvvEPK10MethodInfoPvPS4_
Zig:_Bounds_get_size_m1178783246_AdjustorThunk
oHc:_tt_get_var_blend
NFg:__Z64RuntimeInvoker_Double_t594665363_RuntimeObject_Int32_t2950945753PFvvEPK10MethodInfoPvPS4_
Eke:_InternalEnumerator_1_System_Collections_IEnumerator_get_Current_m2141782011_AdjustorThunk
myf:_Decimal_decimalMult_m3812462972
Mee:_RecordProtocol_BeginSendRecord_m615249746
Cc:_glVertexAttrib4f
Y1f:_Enumerator_System_Collections_IEnumerator_get_Current_m209407522_AdjustorThunk
Qlg:_Display_get_systemHeight_m730809466
h3f:_List_1_System_Collections_IList_Insert_m4074493513_gshared
XIc:__ZNSt3__26vectorINS_4pairINS1_IttEEfEENS_9allocatorIS3_EEE8__appendEj
dui:_Uri_GetOpaqueWiseSchemeDelimiter_m1909471550
coj:_GC_set_hdr_marks
gWa:__Z17SetupObjectMatrixRK10Matrix4x4fi
HRf:_Dictionary_2_OnDeserialization_m1254782141_gshared
x8:__ZN13RuntimeStaticINSt3__23mapINS0_4pairIPcS3_EEPFbPvR14SafeBinaryReadE20smaller_tstring_pairIPKcENS0_9allocatorINS2_IKS4_S9_EEEEEELb0EE13StaticDestroyES5_
IJd:_FileStream_FlushBufferIfDirty_m4249802951
bue:_DefaultComparer_Compare_m1916473435_gshared
tBd:_Convert_ToSByte_m2653811524
BKc:_open_face
N5b:__ZZL31RegisterOtherRendererPropertiesR22GenericPropertyBindingEN30Wrapper_RendererReceiveShadows13SetFloatValueEPvf
EQc:__Z17RegisterModule_UIv
sZh:__ZL110LayoutUtility_t2745813735_CustomAttributesCacheGenerator_LayoutUtility_U3CGetPreferredHeightU3Em__5_m407820296P21CustomAttributesCache
tA:__ZN8Animator24SortJobsBasedOnHierarchyERK13dynamic_arrayINS_11AnimatorJobELj8EERS0_IS2_Lj4EE
cPd:_MonoCustomAttrs_GetCustomAttributes_m1347331976
Fqg:_Mesh_Clear_m2630385472
fGg:__Z46RuntimeInvoker_RuntimeObject_Int16_t2552820387PFvvEPK10MethodInfoPvPS4_
nqa:__ZN9GfxDevice24CreateRenderDepthSurfaceE9TextureIDiiii16TextureDimension17DepthBufferFormat18SurfaceCreateFlags
FHe:_SynchronizationAttribute_set_Locked_m2760363037
nDd:_Int16_Equals_m82811458
N8d:_PrivateKeyInfo_Decode_m986145117
Cug:_RectOffset_get_top_m2855347295
nG:__ZN4FMOD5Sound11setUserDataEPv
Bha:__ZN14SafeBinaryRead21TransferSTLStyleArrayINSt3__26vectorIN9ShaderLab19SerializedSubShaderENS1_9allocatorIS4_EEEEEEvRT_17TransferMetaFlags
X$c:_ExecuteEvents_Execute_m533210008
eFg:__Z137RuntimeInvoker_Void_t1185182177_Int32_t2950945753_RuntimeObject_RuntimeObject_RuntimeObject_RuntimeObject_RuntimeObject_SByte_t1669577662PFvvEPK10MethodInfoPvPS4_
IGf:_Guid_op_Equality_m4289903222
Rw:__ZN27AnimationLayerMixerPlayable13SetInputCountEi
mPa:__ZNK25SingleBlockMemoryFileData4SizeEv
dB:__ZN9BlobWrite8TransferIN7mecanim12statemachine18StateMachineMemoryEEEvRT_PKc17TransferMetaFlags
lK:__ZL50UnityAudioEffect_InternalSetFloatParameterCallbackP14FMOD_DSP_STATEif
yej:__ZNK15dense_hashtableINSt3__24pairIK10KeyWrapperIP12Il2CppObjectEN6il2cpp2gc9CachedCCWEEES5_NS7_5utils11PointerHashIS3_EEN14dense_hash_mapIS5_S9_SD_NS5_14EqualsComparerINS0_8equal_toIS4_EEEENS0_9allocatorISA_EEE9SelectKeyESI_SK_E3endEv
iuf:_DateTime_System_IConvertible_ToUInt32_m3781235049
dCg:__Z92RuntimeInvoker_Int32_t2950945753_RuntimeObject_RuntimeObject_SByte_t1669577662_RuntimeObjectPFvvEPK10MethodInfoPvPS4_
qGd:_Int64_System_IConvertible_ToType_m3223988955
rUb:__ZN14qsort_internal5QSortIP16RenderObjectDatai25RenderPrePassObjectSorterEEvT_S4_T0_T1_
Ikf:_SymmetricAlgorithm_Dispose_m1120980942
Bba:__ZL19StaticCleanupPlayerPv
dPd:_MonoCustomAttrs_RetrieveAttributeUsage_m2717094301
vId:_DirectoryInfo_Initialize_m1389772934
F8b:__ZN13PlayableGraph4StopEv
Ohg:_AnimationCurve_Init_m425927913
iL:__ZN12AudioManager37RebindAudioSourcesAndSubMixersToMixerEP10AudioMixer
RJa:__ZN9Behaviour10DeactivateE19DeactivateOperation
RSe:_LayoutGroup_DelayedSetDirty_m2562435574
a2a:__ZN13StreamingInfo8TransferI14SafeBinaryReadEEvRT_
cia:__ZN15dense_hashtableINSt3__24pairIKiN4core17string_with_labelILi1EEEEEi18SInt32HashFunctionN14dense_hash_mapIiS5_S7_NS0_8equal_toIiEE13stl_allocatorIS6_L18MemLabelIdentifier1ELi16EEE9SelectKeyESA_SD_E15insert_noresizeERKS6_
eij:__ZN6il2cpp2vmL22RaiseOverflowExceptionEv
Pp:__Z23CalculateGlobalRotation23TransformAccessReadOnly
Hma:__ZNK9ShaderLab7Program11IsSupportedEPK6Shader
M$:__ZNK4core8hash_mapIPKcPK4RTTIN11TypeManager23ConstCharPtrHashFunctorENS6_19ConstCharPtrEqualToEE6lookupERKS2_
u_d:_TypeBuilder_GetMethodImpl_m3583143647
LYh:__ZL54LayoutGroup_t2436138090_CustomAttributesCacheGeneratorP21CustomAttributesCache
Vwj:_strcat
K5b:__Z43InitializeRendererAnimationBindingInterfacev
Saa:__ZL26DestroyGameObjectRecursiveR10GameObjectR11BatchDelete
toj:_GC_allochblk_nth
VZc:_BaseInput_get_touchSupported_m2634027966
GYe:_ScrollRect_get_vScrollingNeeded_m1717136831
Uxi:_SymmetricTransform_FinalEncrypt_m748885414
Y4b:__Z7HaloTexP9Texture2DPhiiii
DBj:dynCall_i
brb:__ZN14SafeBinaryRead21TransferSTLStyleArrayI13dynamic_arrayIxLj8EEEEvRT_17TransferMetaFlags
RAj:dynCall_f
$7e:_ListDictionary_GetEnumerator_m3395631195
Cub:__Z35Transfer_Blittable_FixedBufferFieldI24GenerateTypeTreeTransferjEvRK29SerializationCommandArgumentsR31RuntimeSerializationCommandInfo
g5e:_KeyPairPersistence_Save_m3111435398
jAj:dynCall_v
ODa:__ZN7ApiGLES14TextureSamplerEjjRK24GfxTextureSamplingParams17TextureColorSpace
cyd:_SortedList_System_Collections_IEnumerable_GetEnumerator_m2738760439
c7i:__ZN6il2cpp2vm6Thread8SetStateEP12Il2CppThreadNS0_11ThreadStateE
oSa:__ZN6Camera23VirtualRedirectTransferER14SafeBinaryRead
Whg:_Application_get_isEditor_m857789090
MUc:__ZN11UnityEngine7Connect13ConnectConfig11ConfigValueD2Ev
LEa:__ZNSt3__26__treeINS_12__value_typeIjP14DataBufferGLESEENS_19__map_value_compareIjS4_NS_4lessIjEELb1EEENS_9allocatorIS4_EEE7destroyEPNS_11__tree_nodeIS4_PvEE
j7d:_ASN1Convert_ToInt32_m2228176117
oig:_AssetBundleRequest_t699759206_marshal_pinvoke_back
S8b:__ZN13PlayableGraph15SetPrepareStageE13DirectorStage
xb:invoke_viiiiiiii
QCd:_Int16_System_IConvertible_ToDateTime_m3080274979_AdjustorThunk
QEa:__ZN18GfxFramebufferGLES24UpdateDefaultFramebufferEP17RenderSurfaceBaseS1_N2gl6HandleILNS2_10ObjectTypeE9EEE
MLg:__Z74RuntimeInvoker_RuntimeObject_RuntimeObject_Double_t594665363_RuntimeObjectPFvvEPK10MethodInfoPvPS4_
HJi:_Animator_ResetTrigger_m2321267720
leb:__ZN18StreamedBinaryReadILb0EE21TransferSTLStyleArrayI13dynamic_arrayIiLj4EEEEvRT_17TransferMetaFlags
f4a:__ZN16LightmapSettings5ResetEv
NMa:__ZN12FileAccessor4ReadEyPvPy
VBg:__Z67RuntimeInvoker_Void_t1185182177_Int16_t2552820387_Int32_t2950945753PFvvEPK10MethodInfoPvPS4_
Wnc:__Z42Register_UnityEngine_Event_get_commandNamev
lhh:_Collection_1_IsValidItem_m714924194_gshared
wpc:__ZN5Unity9rapidjson12PrettyWriterI16TempBufferWriterNS0_4UTF8IcEES4_13JSONAllocatorE12PrettyPrefixENS0_4TypeE
A7f:_UnicodeEncoding_GetString_m332467280
gec:__ZN8TypeTreeC2E10MemLabelId
E1:__ZNK15FileSystemEntry6ExistsEv
Nbb:__ZNK9Transform21GetLocalToWorldMatrixER10Matrix4x4f
Yxg:_Transform_INTERNAL_get_rotation_m2413441996
W2c:_TouchInputModule_IsModuleSupported_m384818291
Nvf:_DateTime_ToString_m884486936
$7d:_MD4Managed_HashCore_m3384203071
qH:__ZN13AudioListener23VirtualRedirectTransferER19StreamedBinaryWriteILb0EE
ube:_ClientRecordProtocol_createClientHandshakeMessage_m3325677558
era:__ZN13GfxDeviceGLES11CopyTextureE9TextureIDS0_
qyd:_SortedList_get_Capacity_m919184864
fEj:_emscripten_glViewport__wrapper
UT:__ZN11UnityEngine15CloudWebService23WebRequestUploadHandler13GetUploadDataERj
ykg:_Color32_ToString_m403383053_AdjustorThunk
tqf:_String_IndexOfOrdinalUnchecked_m460601827
NHi:_Canvas_get_sortingOrder_m1860900812
vFe:_ConfigHandler_ReadChannel_m781299361
Gtg:_Rect_get_max_m350137314
zNg:__Z99RuntimeInvoker_Void_t1185182177_Int32_t2950945753_Int32_t2950945753_SByte_t1669577662_RuntimeObjectPFvvEPK10MethodInfoPvPS4_
pFc:_tt_size_select
NFe:_InternalRemotingServices_GetCachedSoapAttribute_m1042302982
iS:__ZN11UnityEngine15CloudWebService17SessionEventQueue15RestoreFromFileER12FileAccessorPvy
lVd:_ConstructorBuilder_GetILGenerator_m1421260830
q9i:__ZN6il2cpp2vm9Exception25RaiseOutOfMemoryExceptionEv
Cdb:__ZN14PlayerSettingsD2Ev
CUe:_RectMask2D_RemoveClippable_m773604960
Ejh:__ZL51Attribute_t861562559_CustomAttributesCacheGeneratorP21CustomAttributesCache
rOd:_Math_Ceiling_m625148210
hnj:_GC_reclaim_all
nea:__ZN13PlayableGraph14DestroyOutputsEv
Gah:_Enumerator_System_Collections_IEnumerator_get_Current_m3895111131_gshared
kf:___syscall122
qAd:_Convert_ToDecimal_m2858622624
ZRd:_OperatingSystem__ctor_m1545635730
V3g:_List_1_RemoveAll_m2406195485_gshared
gnb:__ZNK17InstancingBatcher25FillInstanceBufferWithJobIN10Instancing11DrawAPIArgsEEEvR8JobFenceR13dynamic_arrayIPvLj4EEjjRKT_
HO:__ZN9AudioClip16EnableLegacyModeEv
fHe:_Context_DoCallBack_m749197451
rIi:_CanvasRenderer_set_materialCount_m4286588063
Afc:__Z52Register_UnityEngine_Camera_INTERNAL_CALL_RaycastTryv
Cwj:_mkdir
zzi:_VerticalLayoutGroup_SetLayoutHorizontal_m84550911
E9e:_HttpWebRequest_get_ServicePoint_m3916606901
Wqj:__GLOBAL__sub_I_MemoryMappedFile_cpp
s1f:_Enumerator_MoveNext_m29052175_AdjustorThunk
fwg:_SendMouseEvents_SetMouseMoved_m2822596724
Jdc:__ZN18ScriptingArguments13CopyFromOtherERKS_
$6e:_PKCS12_ReadSafeBag_m1585166574
yHc:_ps_hints_close
r7b:__Z16CreateRenderLoopR6Camera
pEb:__ZN32SerializationCommandQueueBuilder3AddERK20SerializationCommand
UW:_tlsf_create
k9h:_ReadOnlyCollection_1_System_Collections_IEnumerable_GetEnumerator_m2505713430_gshared
Peb:__ZN14SafeBinaryRead21TransferSTLStyleArrayINSt3__26vectorIN15ResourceManager10DependencyE13stl_allocatorIS4_L18MemLabelIdentifier52ELi16EEEEEEvRT_17TransferMetaFlags
IDb:__ZN13MonoBehaviour23VirtualRedirectTransferER18StreamedBinaryReadILb0EE
Bja:__ZN9ShaderLab20SerializedSubProgramC2ERKS0_
mJd:_FileLoadException__ctor_m3879680456
n2h:_Array_InternalArray__get_Item_TisKeyValuePair_2_t71524366_m252172060_gshared
Dyj:__ZNK10__cxxabiv121__vmi_class_type_info27has_unambiguous_public_baseEPNS_19__dynamic_cast_infoEPvi
LQd:_MulticastDelegate_CombineImpl_m2857239134
whg:_Version_op_Inequality_m1696193441
W4d:_Marshal_ReadByte_m1960935664
m5a:__ZN15QualitySettings23VirtualRedirectTransferER19StreamedBinaryWriteILb0EE
zQb:__Z20RenderFullScreenQuadR9GfxDeviceRK6Camera17ShaderChannelMaskRK5RectTIfEf21MonoOrStereoscopicEye
Vtd:_ArrayListWrapper_CopyTo_m3756520478
E3d:_ResourceInfo_t2872965302_marshal_pinvoke
X5b:__ZN8Material8GetFloatEN9ShaderLab16FastPropertyNameE
emc:__Z11GetGUIStatev
kg:_glGetActiveUniform
fMf:_Array_InternalArray__IndexOf_TisSlot_t3975888750_m4250446283_gshared
rg:_emscripten_glGetObjectParameterivARB
tsi:_CharacterClass_AddCharacter_m2370152363
$6:__ZN15SerializeTraitsI10ColorRGBAfE8TransferI14SafeBinaryReadEEvRS0_RT_
z4h:_Collection_1_IsValidItem_m2333176545_gshared
yba:__ZN22BuiltinResourceManager13StaticDestroyEPv
zPi:__ZN15dense_hashtableINSt3__24pairIK10KeyWrapperIN6il2cpp5utils13dynamic_arrayIPK10Il2CppTypeLj4EEEEPFvvEEESA_NS3_8metadata19Il2CppSignatureHashEN14dense_hash_mapISA_SD_SG_NSA_14EqualsComparerINSF_22Il2CppSignatureCompareEEENS0_9allocatorISE_EEE9SelectKeyESK_SM_E4findERSB_
Kaa:__ZN10GameObject17GetComponentIndexEPN5Unity9ComponentE
S6a:__ZN14SafeBinaryRead21TransferSTLStyleArrayI13dynamic_arrayI7SubMeshLj4EEEEvRT_17TransferMetaFlags
YZh:_Array_InternalArray__set_Item_TisILTokenInfo_t2325775114_m309595583_gshared
DLc:__ZNK13TextRendering4Font11GetMaterialEv
ZJ:__ZN29AudioEffectInternalDefinition9CreateDSPEPN4FMOD6SystemEPvPfP23UnityAudioAmbisonicDataPP25UnityAudioSpatializerData
eHc:_UNITY_tt_face_vary_cvt
b1e:_SimpleCollator_ClearBuffer_m2975394169
Pui:_Event_Internal_GetMousePosition_m1101229675
NZb:__ZN35RegisterRuntimeInitializeAndCleanup22ExecuteInitializationsEv
ulf:_TripleDESCryptoServiceProvider_CreateEncryptor_m450924958
Pti:_UriParser_GetParser_m544052729
WQe:_Text_get_font_m2857203289
qLa:__ZN23PreloadManagerOperation14SetFinalTimingEffff
i:DYNAMICTOP_PTR
TYd:_MethodBuilder_fixup_m1765890582
sNe:_ObjectReader_ReadSimpleArray_m428957657
mdb:__ZN13BuildSettings8TransferI18StreamedBinaryReadILb0EEEEvRT_
KOd:_MissingFieldException__ctor_m4282575076
gyf:_Decimal_Equals_m2592017260
cGe:_ConfigHandler_OnEndParsing_m3764034673
fGe:_RemotingConfiguration_RegisterTypes_m2378540395
Skc:__Z38Renderer_Get_Custom_PropSortingLayerIDP12Il2CppObject
Qoe:_InternalEnumerator_1_System_Collections_IEnumerator_get_Current_m767948013_gshared
Rkg:_DelegatePInvokeWrapper_CSSMeasureFunc_t1554030124
big:_UnityAction_Invoke_m893829196
$La:__ZN14AsyncOperationD0Ev
nva:__Z29TextureIdMapGLES_QueryOrAlloc9TextureID
v$i:__ZN15dense_hashtableINSt3__24pairIK10KeyWrapperINS1_IPK12PropertyInfoP11Il2CppClassEEEjEES9_17ReflectionMapHashIS8_EN14dense_hash_mapIS9_jSD_NS9_14EqualsComparerINS0_8equal_toIS8_EEEENS0_9allocatorISB_EEE9SelectKeyESI_SK_E12resize_deltaEjj
dkg:_Color_GetHashCode_m1829208463
adc:__Z25scripting_raise_exception21ScriptingExceptionPtr
CRe:_Text_get_cachedTextGeneratorForLayout_m116487342
dKi:__ZL11decimalLog2P19il2cpp_decimal_repr
Yeb:__ZN15ResourceManager10Dependency8TransferI14SafeBinaryReadEEvRT_
sfh:_Collection_1_System_Collections_IList_Remove_m3800279569_gshared
Lmj:_GC_extend_size_map
X_e:_Text_FontTextureChanged_m495427969
kEd:_NumberFormatter_RoundDecimal_m2957290908
BK:__ZN4FMOD6System9setDriverEi
vY:__ZNK9Transform11GetRotationEv
lFj:_emscripten_glGetIntegerv__wrapper
IK:__ZN12AudioManager15DidReloadDomainEv
TNf:_Array_InternalArray__ICollection_Add_TisSingle_t1397266774_m1873979703_gshared
VHc:_pshinter_get_globals_funcs
Dub:__Z18Transfer_BlittableI24GenerateTypeTreeTransferLb0EyEvRK29SerializationCommandArgumentsR31RuntimeSerializationCommandInfo
r$a:__ZN8Material14CreateMaterialER6ShaderN6Object9HideFlagsEb
vbg:_TimeSpan_get_Minutes_m4278980001_AdjustorThunk
cEc:_tt_cmap12_char_map_binary
evi:_GUI__cctor_m3051457990
Z_c:_EventSystem_IsPointerOverGameObject_m1911785875
j5:__Z25GetBuiltinResourceManagerv
Xdj:__ZN6il2cpp2gc8GCHandle15GetTargetHandleEP12Il2CppObjectii
ZEd:_Int32_System_IConvertible_ToByte_m3832391412
Jh:_llvm_trap
faa:__ZNSt3__27__sort5IRNS_6__lessIN12_GLOBAL__N_114ParamNameIndexES3_EEPS3_EEjT0_S7_S7_S7_S7_T_
Vmi:_X509Certificate_VerifySignature_m3988463526
Uug:_RectTransform_get_anchoredPosition_m1813443094
gnj:_get_index
xCd:_GuidParser_AtEnd_m3409982497
M4e:_KeyBuilder_Key_m876696100
Yre:_InternalEnumerator_1_System_Collections_IEnumerator_get_Current_m2164048921_gshared
xYi:__ZN15dense_hashtableINSt3__24pairIK10KeyWrapperINS1_IPK14Il2CppAssemblyP11Il2CppClassEEEjEES9_17ReflectionMapHashIS8_EN14dense_hash_mapIS9_jSD_NS9_14EqualsComparerINS0_8equal_toIS8_EEEENS0_9allocatorISB_EEE9SelectKeyESI_SK_EC2ERKSN_j
ZSi:__ZN6il2cpp2vm21ThreadPoolCompartment12DetachThreadEP12Il2CppThread
oed:_SByte_System_IConvertible_ToInt16_m885121451_AdjustorThunk
hxf:_Decimal_stripStyles_m1823381019
Dqa:__ZN13GfxDeviceGLES30SetBackBufferColorDepthSurfaceEP17RenderSurfaceBaseS1_
Koc:__Z52Register_UnityEngine_GUIUtility_get_systemCopyBufferv
W1h:_LayoutGroup_SetProperty_TisBoolean_t97287965_m3903959758_gshared
c9b:__ZN16StreamedResource8TransferI18StreamedBinaryReadILb0EEEEvRT_
Ghc:__Z49Register_UnityEngine_Input_get_imeCompositionModev
zwg:_Sprite_INTERNAL_get_rect_m1600380876
bia:__ZN15dense_hashtableINSt3__24pairIKiN4core17string_with_labelILi1EEEEEi18SInt32HashFunctionN14dense_hash_mapIiS5_S7_NS0_8equal_toIiEE13stl_allocatorIS6_L18MemLabelIdentifier1ELi16EEE9SelectKeyESA_SD_E12resize_deltaEjj
MWb:__ZNK20OcclusionCullingData22GetStaticRendererCountEv
qwc:__GLOBAL__sub_I_runtime_particlesystem_modules_5_cpp
UIj:_emscripten_glDisableVertexAttribArray__wrapper
NRd:_Object_InternalGetHashCode_m4213713973
QPd:_MonoType_GetAttributeFlagsImpl_m167182975
y9d:_EncryptedData_get_EncryptedContent_m3205649670
pbb:__ZN12MeshRenderer18CalculateLocalAABBER4AABBRKS_RK4Mesh
NV:__ZN21UnityDefaultAllocatorI17LowLevelAllocatorE8AllocateEji
nx:__ZN7mecanim5human14HumanPoseClearERNS0_9HumanPoseERKNS_6bitsetILj83EEE
qOc:__ZL28InitializeUIScriptingClassesv
vQg:__Z54RuntimeInvoker_Vector2_t2156229523_Vector3_t3722313464PFvvEPK10MethodInfoPvPS4_
wHb:__ZN10UnityScene10ClearRootsEv
V8h:_ReadOnlyCollection_1_System_Collections_IList_set_Item_m2162444692_gshared
flb:__ZN12HandlerChain10AtomicMoveER13FileEntryDataS1_
UGa:__ZN9GfxDevice17HasGPUFencePassedEPv
Tda:__ZZN15DirectorManager15InitializeClassEvEN48PreLateUpdateDirectorDeferredEvaluateRegistrator7ForwardEv
pxc:__ZN20SpeedTreeWindManager6UpdateEf
KGg:__Z68RuntimeInvoker_Int64_t3736567304_IntPtr_t_MonoIOErrorU26_t1548853198PFvvEPK10MethodInfoPvPS4_
SC:__ZN7mecanim9animation20CreateAvatarConstantEPNS_8skeleton8SkeletonEPNS1_13SkeletonPoseTIN4math4trsXEEES8_PNS_5human5HumanES3_iRKS6_RNS_6memory9AllocatorE
Mab:__ZN14CompressedMesh8TransferI19StreamedBinaryWriteILb0EEEEvRT_
KPf:_Array_InternalArray__Insert_TisDouble_t594665363_m675699942_gshared
f6g:_List_1_System_Collections_IList_Add_m3014885234_gshared
$fi:_UnityAction_1_Invoke_m3535252839_gshared
elj:__ZNK6il2cpp5utils13VmStringUtils21CaseSensitiveComparerclERKNSt3__212basic_stringIcNS3_11char_traitsIcEENS3_9allocatorIcEEEEPKc
rZe:_Selectable_set_isPointerInside_m701571657
uVa:__ZN24GenerateTypeTreeTransfer8TransferI21PlatformShaderDefinesEEvRT_PKc17TransferMetaFlags
Geb:__ZNK15ResourceManager22GetTypeVirtualInternalEv
Nbj:__ZN6il2cpp2vmL36AddNestedTypesToNametoClassHashTableEPK11Il2CppImagePK20Il2CppTypeDefinition
R7g:_List_1_set_Capacity_m2707586410_gshared
_qg:_PlayerConnection_MessageCallbackInternal_m1914517467
Big:_AttributeHelperEngine__cctor_m1900959362
EIc:__ZN13TextRendering4Font23VirtualRedirectTransferER24GenerateTypeTreeTransfer
wVh:__ZL102Image_t2670269651_CustomAttributesCacheGenerator_Image_t2670269651____eventAlphaThreshold_PropertyInfoP21CustomAttributesCache
Hbf:_X509SubjectKeyIdentifierExtension_ToString_m12089275
_Sg:__Z106RuntimeInvoker_RuntimeObject_RuntimeObject_Int32_t2950945753_Int16_t2552820387_RuntimeObject_RuntimeObjectPFvvEPK10MethodInfoPvPS4_
Rgg:_UnhandledExceptionEventArgs__ctor_m224348470
g0b:__ZL16MouseMoveHandleriPK20EmscriptenMouseEventPv
XLf:_Array_InternalArray__IndexOf_TisByte_t1134296376_m929524687_gshared
mP:__ZN11AudioSource15InitializeClassEv
b0c:_ExecuteEvents_get_dragHandler_m3849431675
aQb:__ZN11HaloManager17RenderGeometryJobEP25DynamicVBOGeometryJobDataj
org:_Object_DestroyImmediate_m2288369078
W3e:_BitConverterLE_UShortFromBytes_m1253080092
hE:__ZNSt3__227__insertion_sort_incompleteIRPFbN7mecanim9animation13MuscleIndexIdES3_EPS3_EEbT0_S8_T_
eJj:_emscripten_glBlendEquation__wrapper
S5i:__ZN15dense_hashtableINSt3__24pairIK10KeyWrapperIP11Il2CppClassES4_EES5_N6il2cpp8metadata16SZArrayClassHashEN14dense_hash_mapIS5_S4_SA_NS5_14EqualsComparerINS9_19SZArrayClassCompareEEENS0_9allocatorIS7_EEE9SelectKeyESE_SG_E13set_empty_keyERKS7_
wxj:__ZNSt3__212basic_stringIcNS_11char_traitsIcEENS_9allocatorIcEEE6__initEPKcj
Qj:_emscripten_set_fullscreenchange_callback
Bbi:_ReadOnlyCollection_1_System_Collections_IList_Insert_m4085855595_gshared
Opi:_PatternCompiler_NewLink_m3699449496
ZU:__ZN11UnityEngine15CloudWebService14DataDispatcher22ResetNetworkRetryIndexEv
Vj:_emscripten_glDrawArrays
cpg:_Material_HasProperty_m2704238996
tKb:__ZZ23InitPlayerLoopCallbacksvEN43EarlyUpdateExecuteMainThreadJobsRegistrator7ForwardEv
AU:__ZN11UnityEngine15CloudWebService19SessionEventManagerC2Ev
Trd:_Char_System_IConvertible_ToSingle_m2690985411_AdjustorThunk
zci:_Comparison_1_Invoke_m668117148_gshared
S7e:_DictionaryNodeEnumerator_FailFast_m2494733641
G6:__ZN14GfxDoubleCacheIyP17VertexDeclaration14GfxGenericHashIyENSt3__28equal_toIyEEN31GfxDoubleCacheConcurrencyPolicy11LocklessGetE42GfxDoubleCacheDefaultEmptyDeletedGeneratorIyEE3GetI15VertDeclCreatorEERKS1_RKyT_
aZc:__ZN13RuntimeStaticI14dynamic_bitsetLb0EE16StaticInitializeEPv
Aga:__ZNSt3__222__merge_move_constructIRNS_4lessIN4core12basic_stringIcNS2_20StringStorageDefaultIcEEEEEENS_11__wrap_iterIPS6_EESB_EEvT0_SC_T1_SD_PNS_15iterator_traitsISC_E10value_typeET_
pfc:__Z41Register_UnityEngine_Camera_get_eventMaskv
CP:__ZL19CleanupModule_Audiov
Uhf:_IntervalCollection_CopyTo_m2976848759
V4c:_CanvasUpdateRegistry_ObjectValidForUpdate_m2723813849
eDa:__ZN18GlslGpuProgramGLES25LoadFromBinaryShaderCacheERjRKN4core12basic_stringIcNS1_20StringStorageDefaultIcEEEER17ShaderChannelMaskPKc
W3g:_List_1_RemoveAt_m1433290785_gshared
Hrb:__Z29Transfer_Blittable_ArrayFieldI14SafeBinaryReadiEvRT_R9ArrayInfoRK23StaticTransferFieldInfo
PTi:__ZN6il2cpp6icalls8mscorlib6System8MonoType8GetFieldEP20Il2CppReflectionTypeP12Il2CppStringi
UPi:__ZN15dense_hashtableINSt3__24pairIK10KeyWrapperIN6il2cpp5utils13dynamic_arrayIPK10Il2CppTypeLj4EEEEPFvvEEESA_NS3_8metadata19Il2CppSignatureHashEN14dense_hash_mapISA_SD_SG_NSA_14EqualsComparerINSF_22Il2CppSignatureCompareEEENS0_9allocatorISE_EEE9SelectKeyESK_SM_E5clearEv
Rjf:_SHA256Managed_ProcessBlock_m2297835517
AFj:_emscripten_glVertexAttrib3fv__wrapper
Tkg:_CSSMeasureFunc_Invoke_m3910201085
pzd:_Convert_ToBoolean_m4098720762
vbi:_ReadOnlyCollection_1_System_Collections_ICollection_CopyTo_m511916545_gshared
RIf:_Array_InternalArray__ICollection_Remove_TisOrderBlock_t1585977831_m1449044465_gshared
SFi:_DisplayBuffer_OnCommand_m444302511
fTd:_AssemblyName__ctor_m1753467291
_Ze:_Slider_set_minValue_m3431883418
mcc:__ZN8Material10GetTextureEN9ShaderLab16FastPropertyNameE
Oze:_Enumerator_System_Collections_IEnumerator_get_Current_m1657817602_gshared
zab:__ZN18StreamedBinaryReadILb0EE21TransferSTLStyleArrayI13dynamic_arrayI10Matrix4x4fLj16EEEEvRT_17TransferMetaFlags
y3b:__ZNK28MonoBehaviourPropertyBinding13GetFloatValueERKN11UnityEngine9Animation10BoundCurveE
Yoj:_GC_generic_malloc
_af:_WebHeaderCollection_get_Keys_m910440889
FGa:__Z19GetVertexFormatSize12VertexFormat
up:__ZN14SafeBinaryRead21TransferSTLStyleArrayI13dynamic_arrayIiLj4EEEEvRT_17TransferMetaFlags
Wzg:_Vector4__cctor_m2519631228
FZb:__ZNK18ScreenManagerWebGL13GetShowCursorEv
Ltd:_ArrayListWrapper_Clear_m2625302714
wJj:_emscripten_glIsTexture__wrapper
Oae:_CipherSuiteCollection_System_Collections_IEnumerable_GetEnumerator_m3240848888
Tyj:_llvm_bswap_i32
kCd:_Convert_ToUInt64_m1627266664
fqa:__ZN9GfxDevice25ReleaseAsyncCommandHeaderEPN21GfxDeviceAsyncCommand3ArgE
Hni:_X509Crl_Parse_m3164013387
Pub:__ZL22Transfer_ManagedObjectI24GenerateTypeTreeTransferLb0EEvRK29SerializationCommandArgumentsR31RuntimeSerializationCommandInfo
JDb:__ZN13MonoBehaviour23VirtualRedirectTransferER17RemapPPtrTransfer
sGa:__ZN21UniformBufferTFMethod20IsBoneCountSupportedEi
qkg:_Color_get_black_m719512684
tbd:_HorizontalLayoutGroup_CalculateLayoutInputHorizontal_m750541069
Hij:__ZN6il2cpp6icalls8mscorlib6System11Environment11get_NewLineEv
oef:_X509CertificateCollection__ctor_m1395805580
f3d:_ResourceReader_CreateResourceInfo_m1818330740
fce:_ClientSessionInfo_Dispose_m3253728296
n$a:__ZN6Shader27MarkShaderStateNotSupportedEPKS_
lrg:_Object_Internal_CloneSingle_m1021157572
VFa:__ZN25TransformFeedbackSkinning8SkinMeshERK18VertexStreamSourceP9GfxBufferP17GPUSkinPoseBufferS4_ii17ShaderChannelMaskb
mbj:__ZN15dense_hashtableINSt3__24pairIK10KeyWrapperIP14Il2CppIUnknownEjEES5_N6il2cpp5utils11PointerHashIS3_EEN14dense_hash_mapIS5_jSB_NS5_14EqualsComparerINS0_8equal_toIS4_EEEENS0_9allocatorIS7_EEE9SelectKeyESG_SI_E12resize_deltaEjj
X2d:_ResolveEventArgs__ctor_m1455935166
Ycg:_Type_Equals_m1673304139
aNd:_SynchronizedReader_Read_m1388613247
gxb:__Z22TransferField_NonArrayI19StreamedBinaryWriteILb0EE27Converter_SimpleNativeClassI8GUIStyleEEvRK23StaticTransferFieldInfoR31RuntimeSerializationCommandInfoRT0_
SWe:_Scrollbar_OnPointerDown_m3213715319
Ovc:__ZN8JSONRead8TransferIN4math12int3_storageEEEvRT_PKc17TransferMetaFlagsb
oLb:__ZN27IntermediateRendererManager29ClearAllIntermediateRenderersEv
g2c:_StandaloneInputModule__ctor_m2419721820
Xue:_Comparer_1_System_Collections_IComparer_Compare_m2018996185_gshared
Qp:__Z17CalculateGlobalSM23TransformAccessReadOnlyRKN4math7_float4E
vR:__ZN23CloudWebServicesManager23VirtualRedirectTransferER18StreamedBinaryReadILb0EE
Mvd:_CollectionBase_System_Collections_IList_Contains_m2994901969
Vl:_emscripten_glLoadIdentity
$Zb:__ZNSt3__26vectorINS_4pairIN4core12basic_stringIcNS2_20StringStorageDefaultIcEEEEPK17MessageIdentifierEENS_9allocatorISA_EEE26__swap_out_circular_bufferERNS_14__split_bufferISA_RSC_EEPSA_
OAd:_Convert_ToInt16_m2896657713
Crg:_Vector3_get_zero_m1409827619
gVb:__Z29CullShadowCastersWithoutUmbraR9IndexListRK17CullingParametersPK4AABBjj
goa:__ZN6Shader16GetDefaultOrNullEv
qp:__ZN4AABB8TransferI14SafeBinaryReadEEvRT_
EHf:_Array_InternalArray__ICollection_Contains_TisX509ChainStatus_t133602714_m795171973_gshared
n9i:__ZN6il2cpp2vm8Liveness8FromRootEP12Il2CppObjectPv
ybb:__ZN12MeshRenderer23VirtualRedirectTransferER19StreamedBinaryWriteILb0EE
T4a:__ZN18StreamedBinaryReadILb0EE21TransferSTLStyleArrayI13dynamic_arrayI12LightmapDataLj4EEEEvRT_17TransferMetaFlags
KNa:__ZNK17ArchiveFileSystem9EnumerateEPKcP19dynamic_block_arrayI13FileEntryInfoLj32EEbPPv19FileEnumerationFlag
X$b:__Z11MD5ToStringPh
rhc:__Z38Input_Get_Custom_PropCompositionStringv
h$e:_Text_get_alignment_m1496827807
H6e:_ContentInfo_get_ASN1_m1776225219
FS:__ZN9JSONWrite8TransferIN4core12basic_stringIcNS1_20StringStorageDefaultIcEEEEEEvRT_PKc17TransferMetaFlags
HBd:_Convert_ToSingle_m2533452644
Fxj:__ZNSt3__212basic_stringIcNS_11char_traitsIcEENS_9allocatorIcEEE6resizeEjc
Fdb:__ZN14PlayerSettings16CheckConsistencyEv
lO:__ZN11AudioModule30GetOrCreateDSPFromCustomFilterEP17AudioCustomFilter
FTa:__ZN19AtomicPageAllocatorD2Ev
l$c:_EventTrigger_OnPointerEnter_m986348926
zaj:__ZN6il2cpp6icalls8mscorlib6System13GlobalizationL20culture_lcid_locatorEPKvS5_
xlf:_X509Certificate__ctor_m1413707489
R1a:__ZNK12CubemapArray16ExtractImageImplEP14ImageReferenceNS0_8BlitModeEbi
Xhc:__Z63Register_UnityEngine_MonoBehaviour_StartCoroutine_Auto_Internalv
OCj:_glTexStorage3D__wrapper
Rdb:__ZN10VRSettings8TransferI14SafeBinaryReadEEvRT_
wdg:_Type_IsMarshalByRefImpl_m914778231
Dwd:_Hashtable__ctor_m2302711321
ja:invoke_viifiiii
ird:_Byte_TryParse_m1467448483
nGi:_DelegatePInvokeWrapper_OnCommandSentHandler_t613111342
mYc:__ZN20UnityWebRequestProtoI24UnityWebRequestTransport16AtomicRefCounter14RedirectHelper14ResponseHelper15DownloadHandler13UploadHandler12HeaderHelper14AsyncOperationE8FinalizeEv
exg:_Texture2D_get_whiteTexture_m2176011403
J3:__ZN22PerThreadPageAllocator14AcquireNewPageEj
JK:__ZN24AudioScriptBufferManager15DidReloadDomainEv
ddi:_Func_2_Invoke_m3516477887_gshared
YKh:__ZL65SelectionBaseAttribute_t3493465804_CustomAttributesCacheGeneratorP21CustomAttributesCache
Wqf:_String_ToString_m3872792296
Vtb:__Z18Transfer_BlittableI24GenerateTypeTreeTransferLb1E9BoundsIntEvRK29SerializationCommandArgumentsR31RuntimeSerializationCommandInfo
fJd:_FileStream_GetSecureFileName_m449783930
nRb:__ZN6Camera13ClearNoSkyboxEb
TNd:_UnexceptionalStreamWriter_Flush_m82278468
Hoe:_InternalEnumerator_1_get_Current_m3911557813_gshared
hPi:__ZNK15dense_hashtableI10KeyWrapperIPK17Il2CppGenericInstES4_N6il2cpp8metadata21Il2CppGenericInstHashEN14dense_hash_setIS4_S7_NS4_14EqualsComparerINS6_24Il2CppGenericInstCompareEEENSt3__29allocatorIS4_EEE8IdentityESB_SE_E12test_deletedEj
XRa:__ZN19StreamedBinaryWriteILb0EE21TransferSTLStyleArrayI13dynamic_arrayI17SortingLayerEntryLj4EEEEvRT_17TransferMetaFlags
WZc:_BaseInput_get_touchCount_m1263753282
i7d:_ASN1Convert_FromOid_m3844102704
qKe:_RemotingSurrogate_SetObjectData_m2713731796
Asf:_DecoderReplacementFallbackBuffer_Reset_m3943028589
sEa:__ZN18GfxFramebufferGLES10InvalidateEv
NZf:_Enumerator_System_Collections_IEnumerator_get_Current_m282279808_AdjustorThunk
bSe:_LayoutRebuilder_MarkLayoutRootForRebuild_m1241498911
Y8f:_CompressedStack_CreateCopy_m2591279216
ajf:_RSAPKCS1KeyExchangeFormatter_CreateKeyExchange_m1611814432
s9:__ZN10MemoryPoolD2Ev
cnc:__ZNSt3__26__treeINS_12__value_typeIN4core12basic_stringIcNS2_20StringStorageDefaultIcEEEEN5IMGUI12NamedControlEEENS_19__map_value_compareIS6_S9_NS_4lessIS6_EELb1EEENS_9allocatorIS9_EEE7destroyEPNS_11__tree_nodeIS9_PvEE
Bbf:_AsnEncodedData_KeyUsageExtension_m1792651780
bgj:__ZN6il2cpp2os5posix15PosixWaitObjectD2Ev
XMb:__ZNK25CameraStackRenderingState28GetDstTextureForImageFiltersEv
owj:___mmap
z8b:__ZN9Scripting26RaiseArgumentNullExceptionEPKc
ZJj:b120
eX:__ZL18InternalLogConsolePKcz
ivj:_lseek
lme:_InternalEnumerator_1_get_Current_m685192625_gshared
NNd:_UnexceptionalStreamReader_Read_m16956299
o3d:_ResourceReader_ReadValueVer1_m183253382
D$:__Z37scripting_method_get_nth_argumenttype18ScriptingMethodPtri
OM:__ZN11AudioSource16UpdatePauseStateEv
Uca:__ZL52StaticUnregisterSceneLoadedCallback_LightmapSettingsPv
Kjg:_Camera_get_main_m3643453163
Xsj:__ZN6il2cpp5utils25NativeDelegateMethodCache17AddNativeDelegateEPFvvEPK10MethodInfo
CTe:_LayoutRebuilder_U3CRebuildU3Em__5_m1288787547
yQb:__ZN27DeviceViewProjMatricesStateD2Ev
mwg:_SendMouseEvents__cctor_m2378365934
f6h:_ReadOnlyCollection_1_System_Collections_IList_set_Item_m3582274843_gshared
rpg:_Mathf_Pow_m856735666
Dfa:__ZL39CreateRegisteredMessageIdentifiersArrayPv
Gtb:__Z18Transfer_BlittableI24GenerateTypeTreeTransferLb0E8Vector3fEvRK29SerializationCommandArgumentsR31RuntimeSerializationCommandInfo
M0e:_SimpleCollator_FilterExtender_m72900315
AIc:__ZNK13TextRendering4Font22GetTypeVirtualInternalEv
u6e:_SymmetricTransform_CheckInput_m1829858759
pfb:__ZN19StreamedBinaryWriteILb0EE21TransferSTLStyleArrayINSt3__26vectorIN15ResourceManager10DependencyE13stl_allocatorIS5_L18MemLabelIdentifier52ELi16EEEEEEvRT_17TransferMetaFlags
sYe:_ScrollRect_EnsureLayoutHasRebuilt_m3415112783
DTd:_Binder_FindMostDerivedMatch_m239579024
Czd:_Convert_ToByte_m3824130483
uxi:_GUIUtility_EndContainerGUIFromException_m530164245
oya:__ZN6prcoreL10inner_flipILj2EEEvPhS1_j
s8a:__ZNK14Texture2DArray16ExtractImageImplEP14ImageReferenceNS0_8BlitModeEbi
b7f:_StringBuilder_Append_m2383614642
bsc:__ZN9JSONWrite8TransferIbEEvRT_PKc17TransferMetaFlags
QKa:__ZN12TLSAllocatorI14StackAllocatorED0Ev
Dcb:__ZN11TimeManager16CheckConsistencyEv
VNb:__ZN21GfxDeviceAsyncCommand10ArgScratch15ThreadedCleanupEv
l8b:__Z14DoubleToStringd
Erf:_StringComparer_GetHashCode_m2080455020
ftb:__ZN12NativeBufferI27Converter_UnityEngineObjectE15SetupForWritingER9ArrayInfo
a1g:_List_1_CheckCollection_m2118769249_gshared
pe:_glTexImage3D
i7c:_DefaultControls_SetDefaultColorTransitionValues_m2033775311
v0:__ZN14SerializedFile27PatchRemapDeprecatedClassesEv
CQf:_Array_InternalArray__set_Item_TisChar_t3634460470_m741842250_gshared
nki:_TlsServerSettings_set_RsaParameters_m853026166
I$a:__ZNSt3__26vectorINS_4pairI11ShaderTagIDS2_EENS_9allocatorIS3_EEE6insertENS_11__wrap_iterIPKS3_EERS8_
Huf:_DateTime_AddMilliseconds_m3713972790_AdjustorThunk
eid:_RC2_Create_m2052783340
eGf:_Guid__ctor_m3421080095_AdjustorThunk
uAd:_Convert_ToDouble_m217737046
odc:__ZL34GetComponentsImplementationRecurseILb1ELi0ELi1EEbR10GameObjectbRK17CompareParametersRK39GetComponentsImplementation_ReturnValue
PAf:_Double_Equals_m1674752021
_Pe:_InputField_OnDisable_m1824300767
gPc:__ZN2UI25AddCanvasRendererToCanvasER8JobFencePNS_12CanvasHandleERNS_10CanvasDataEi
xyd:_SortedList_Clone_m928094797
neb:__ZN10VRSettings8TransferI18StreamedBinaryReadILb0EEEEvRT_
ow:__ZN22AnimationMixerPlayable12MixerProcessEP35AnimationPlayableEvaluationConstantP32AnimationPlayableEvaluationInputP33AnimationPlayableEvaluationOutputM17AnimationPlayableFvS1_S3_S5_EPFvS1_S3_S5_ESA_PFvS5_S1_S3_S5_PN7mecanim16ValueArrayWeightEfEPFvS1_S3_S5_SD_fE
Ove:_Enumerator_get_CurrentKey_m2230405065_gshared
Jde:_TlsClientFinished_ProcessAsSsl3_m3094597606
Ruc:__ZN8JSONRead21TransferSTLStyleArrayI13dynamic_arrayIdLj8EEEEvRT_17TransferMetaFlags
Ljg:_Camera_get_allCamerasCount_m528453758
uTi:__ZN6il2cpp2vm10ThreadPool5QueueEP14Il2CppDelegatePPvS3_P12Il2CppObject
mxb:__Z19TransferField_ArrayI19StreamedBinaryWriteILb0EE27Converter_SimpleNativeClassI8GradientEEvRK23StaticTransferFieldInfoR31RuntimeSerializationCommandInfoRT0_
X9e:_IPv6Address__ctor_m2700673633
$tc:__Z18Transfer_BlittableI8JSONReadLb0E12PropertyNameEvRK29SerializationCommandArgumentsR31RuntimeSerializationCommandInfo
FGj:_glGetUniformBlockIndex__wrapper
qnd:_Array_CreateInstance_m2696293787
o7f:_UnicodeEncoding__ctor_m1074918879
p7a:__ZN7SubMesh8TransferI18StreamedBinaryReadILb0EEEEvRT_
EZd:_OpCode_Equals_m1376200488_AdjustorThunk
X5c:_ColorBlock_op_Inequality_m2718216889
cf:_emscripten_glIsEnabled
ozb:__ZN18StreamedBinaryReadILb1EE21TransferSTLStyleArrayI13dynamic_arrayIdLj8EEEEvRT_17TransferMetaFlags
ngc:__Z45Register_UnityEngine_GameObject_get_transformv
PVd:_DerivedType_GetConstructors_m483065502
UZ:__Z29scripting_class_instance_size17ScriptingClassPtr
wvc:__Z29Transfer_Blittable_ArrayFieldI8JSONRead5RectTIiEEvRT_R9ArrayInfoRK23StaticTransferFieldInfo
b$g:__Z68RuntimeInvoker_Boolean_t97287965_SByte_t1669577662_SByte_t1669577662PFvvEPK10MethodInfoPvPS4_
vRg:__Z165RuntimeInvoker_Void_t1185182177_RuntimeObject_Int32_t2950945753_Int32_t2950945753_RuntimeObject_Int32_t2950945753_Single_t1397266774_Single_t1397266774_RuntimeObjectPFvvEPK10MethodInfoPvPS4_
uc:invoke_iiiiiiiii
aV:__ZN11UnityEngine15CloudWebService19SessionEventManager26ProcessEventQueueJobStaticEPv
npg:_Mathf_Min_m1073399594
Uwg:_StackTraceUtility_ExtractStringFromExceptionInternal_m2686726792
sCc:_otv_Coverage_get_last
uV:__ZN11UnityEngine15CloudWebService19SessionEventManager37OnTimerExpiredPerformArchiveJobStaticEPv
Vqc:__Z18Transfer_BlittableI9JSONWriteLb1E9BoundsIntEvRK29SerializationCommandArgumentsR31RuntimeSerializationCommandInfo
v0e:_MSCompatUnicodeTable_FillCJKCore_m2347268515
Msi:_Group_GetWidth_m3299755715
$yf:_Decimal_op_Implicit_m1920400487
mYa:__ZN10builtintex15GetWhiteTextureEv
gKe:_MonoMethodMessage_get_TypeName_m3758247133
oxd:_Enumerator_get_Entry_m2184304359
gu:__ZN7mecanim9animation16CreateClipMemoryEPKNS0_4ClipEiRNS_6memory9AllocatorE
_tj:__ZN6il2cpp6icalls8mscorlib6System10Reflection4Emit11DerivedType21create_unmanaged_typeEP20Il2CppReflectionType
Sbd:_Image_set_fillCenter_m3776786491
lfa:__Z29GetOcclusionPortalManagerListv
ajc:__Z39Register_UnityEngine_Sprite_get_texturev
UJi:__ZL10rescale128PyS_Piiiii
SG:__ZN9AudioClip7WWWSeekEPvjS0_
Bnh:__ZL63FixedBufferAttribute_t3759792648_CustomAttributesCacheGeneratorP21CustomAttributesCache
J8:__ZL32StaticInitializeIUnityInterfacesPv
yNb:__Z13CameraProjectRK8Vector3fRK10Matrix4x4fS4_RK5RectTIiERS_b
igb:__ZN30RuntimeInitializeOnLoadManager15ClassMethodInfo8TransferI19StreamedBinaryWriteILb0EEEEvRT_
aca:__Z22CreateMutexLockedStackv
MIb:__ZNSt3__27__sort5IRNS_4lessIN22BuiltinResourceManager8ResourceEEEPS3_EEjT0_S7_S7_S7_S7_T_
cEd:_NumberFormatter_FormatNumber_m1763569482
LUh:__ZL57FontData_t746620069_CustomAttributesCacheGenerator_m_FontP21CustomAttributesCache
tma:__ZN9ShaderLab11ShaderStateD2Ev
dGc:_Ins_DELTAP
VEb:__Z23TransferScriptingObjectI24GenerateTypeTreeTransferEvRT_18ScriptingObjectPtr17ScriptingClassPtrPK15MonoScriptCache
Spi:_PatternLinkStack_GetOffset_m3697714525
cmc:__ZN12GUIClipState5ApplyER10InputEvent
Uwb:__ZL17Transfer_GUIStyleI19StreamedBinaryWriteILb0EELb0EEvRK29SerializationCommandArgumentsR31RuntimeSerializationCommandInfo
rRb:__ZN10TextureRef4InitEP7Textureb
yJd:_MonoIO_GetFileType_m101289143
Qxa:__Z19ScheduleJobInternalR8JobFencePFvPvES1_11JobPriority
J8e:_KeysCollection_get_Count_m3943311735
fle:_InternalEnumerator_1_get_Current_m2832154098_gshared
khg:_Version__ctor_m1550720073
vSi:__ZNSt3__211__tree_nextIPNS_16__tree_node_baseIPvEEEET_S5_
gdj:__ZN15dense_hashtableI10KeyWrapperIP18Il2CppGenericClassES3_N6il2cpp8metadata22Il2CppGenericClassHashEN14dense_hash_setIS3_S6_NS3_14EqualsComparerINS5_25Il2CppGenericClassCompareEEENSt3__29allocatorIS3_EEE8IdentityESA_SD_E14squash_deletedEv
Tfj:__ZN6il2cpp2vm11MethodStack17GetStackFramesRawEv
PAa:__ZN6prcoreL17RemapGenericFloatI17TexFormatRGBAHalf17TexFormatRGBFloatEEvPKNS_9InnerInfoE
tDg:__Z52RuntimeInvoker_Double_t594665363_Decimal_t2948259380PFvvEPK10MethodInfoPvPS4_
Npe:_InternalEnumerator_1_get_Current_m784835552_gshared
wlc:__Z35Sprite_Get_Custom_PropPixelsPerUnitP12Il2CppObject
kPi:__ZNSt3__26__sortIRN6il2cpp5utils11collections13ArrayValueMapIPK10Il2CppType17Il2CppInteropData26InteropDataToTypeConverterNS1_8metadata14Il2CppTypeLessENSA_26Il2CppTypeEqualityComparerEE12SortComparerEPS8_EEvT0_SH_T_
$hb:__ZN11PreloadDataD2Ev
EXc:__ZN15DownloadHandler14ProcessHeadersERK9HeaderMap
SIc:__ZNSt3__26vectorINS_4pairIifEE13stl_allocatorIS2_L18MemLabelIdentifier35ELi16EEE6assignINS_11__wrap_iterIPS2_EEEENS_9enable_ifIXaasr21__is_forward_iteratorIT_EE5valuesr16is_constructibleIS2_NS_15iterator_traitsISC_E9referenceEEE5valueEvE4typeESC_SC_
Zb:invoke_iifi
Ird:_Char_System_IConvertible_ToInt16_m975497224_AdjustorThunk
vzf:_Delegate_CreateDelegate_m995503480
dVi:__ZNK6il2cpp5utils10StringViewIcE5RFindEc
$Vd:_DerivedType_get_Module_m3032466746
FUa:__ZN15SharedLightData15UpdateTransformERK9Transform
LVh:__ZL71InputField_t3762917431_CustomAttributesCacheGenerator_m_OnValidateInputP21CustomAttributesCache
Yfa:__ZN18AssetBundleManagerD2Ev
_gc:__Z44Register_UnityEngine_RectOffset_get_verticalv
Asj:__ZN6il2cpp2vm9LastError31InitializeLastErrorThreadStaticEv
tUe:_MaskableGraphic_set_maskable_m243551751
DMd:_StreamWriter_Dispose_m2818839127
Uda:__ZZN15DirectorManager15InitializeClassEvEN43PostLateUpdateDirectorLateUpdateRegistrator7ForwardEv
fh:_JS_SystemInfo_GetCurrentCanvasHeight
cie:_ArrayReadOnlyList_1_IndexOf_m1911574180_gshared
cUe:_Mask_OnEnable_m2186824439
KOe:_InputField_SetCaretVisible_m2216480850
gff:_X509EnhancedKeyUsageExtension_CopyFrom_m3750050754
y$a:__ZNK8Material22GetTypeVirtualInternalEv
loc:__Z34GUIStyle_Get_Custom_PropFixedWidthP12Il2CppObject
g8h:_ReadOnlyCollection_1_System_Collections_IList_Clear_m1076810235_gshared
G0f:_Enumerator_System_Collections_IEnumerator_get_Current_m3405349194_AdjustorThunk
wij:__ZN6il2cpp2gc16GarbageCollector11GetWeakLinkEPPv
Egj:__GLOBAL__sub_I_Console_cpp
FAa:__ZN6prcoreL17RemapGenericFloatI14TexFormatRHalf17TexFormatRGBAHalfEEvPKNS_9InnerInfoE
G5d:_BigInteger_GetBytes_m1259701831
rVi:__ZN6il2cpp2vm7Runtime11InvokeArrayEPK10MethodInfoPvP11Il2CppArrayPP15Il2CppException
nrf:_String_memcpy_m2826223007
yid:_RijndaelManaged_CreateDecryptor_m1421727258
OF:__ZN9AudioClip23VirtualRedirectTransferER14SafeBinaryRead
x0f:_Enumerator_MoveNext_m2407049913_gshared
Y6f:_StringBuilder_Replace_m1682610486
JDa:__ZN4gles20EnsureTextureCreatedEP7ApiGLESP17RenderSurfaceGLES
iOb:__ZN15ReplacementPass13PrepareSubsetEjRK10RenderNodeifRK17ShaderReplaceData
tL:__Z32AudioMeasurement_GetTimeConstantff
_ij:__ZN6il2cpp8metadata11FieldLayout12LayoutFieldsEjjjRKNSt3__26vectorIPK10Il2CppTypeNS2_9allocatorIS6_EEEERNS1_15FieldLayoutDataE
Zlb:__ZNK20LocalFileSystemPosix9EnumerateEPKcP19dynamic_block_arrayI13FileEntryInfoLj32EEbPPv19FileEnumerationFlag
D$d:_MethodInfo_MakeGenericMethod_m1996785325
i_c:_BaseInputModule_DetermineMoveDirection_m770437496
KGe:_Context_get_HasGlobalDynamicSinks_m3672814609
Foi:_Match__ctor_m2464595873
KVb:__ZL27PrepareSceneNodesJobCombineP25ScheduleSceneNodesJobData
kni:_X509CertificateEnumerator_Reset_m1825523691
Xpb:__Z22TransferField_NonArrayI14SafeBinaryRead27Converter_SimpleNativeClassI8GUIStyleEEvRK23StaticTransferFieldInfoR31RuntimeSerializationCommandInfoRT0_
$1i:__ZN14dense_hash_mapI10KeyWrapperIPK10Il2CppTypeEjN6il2cpp8metadata14Il2CppTypeHashENS4_14EqualsComparerINS6_26Il2CppTypeEqualityComparerEEENSt3__29allocatorINSB_4pairIKS4_jEEEEEC2EjRKS7_RKSA_
xoa:__ZN13GfxDeviceGLESD2Ev
Hha:__ZNSt3__26vectorIN9ShaderLab26SerializedShaderDependencyENS_9allocatorIS2_EEE6resizeEj
d2h:_Activator_CreateInstance_TisRuntimeObject_m729575857_gshared
Bda:__ZN18AsyncUploadManager13StaticDestroyEPv
aha:__ZN6Shader7SetNameEPKc
xpd:_Convert_ToDouble_m954895424
fZb:__ZN19CustomRenderTexture22HandleBoundaryWrappingERKNS_14UpdateZoneInfoEj
OGi:_TextGenerationSettings_CompareColors_m3051734236
rSi:__ZN6il2cpp2vm13MetadataCache32GenerateCustomAttributeTypeCacheEi
Wof:_Single_Equals_m438106747
I6f:_StringBuilder__ctor_m2989139009
W3d:_RuntimeResourceSet__ctor_m2765575100
xde:_TlsClientCertificate_ProcessAsSsl3_m3265529850
nr:__ZNK11UnityEngine9Animation30GenericBindingValueArrayUniqueclERKNS0_14GenericBindingES4_
Prf:_ASCIIEncoding_GetChars_m2543669481
Q2e:_BigInteger_IsProbablePrime_m567194283
OSf:_Dictionary_2_System_Collections_IDictionary_Remove_m3518952519_gshared
aof:_SecurityFrame_InitFromRuntimeFrame_m1714852458_AdjustorThunk
QYd:_MethodBuilder_GetCustomAttributes_m731278908
nGc:_Direct_Move_Y
lGc:_Direct_Move_X
lKg:__Z51RuntimeInvoker_Single_t1397266774_Double_t594665363PFvvEPK10MethodInfoPvPS4_
Ci:_glClearDepthf
o4b:__ZN19SkinnedMeshRenderer7GetMeshEv
hkb:__ZN19RuntimeSceneManager14GetActiveSceneEv
Uyj:_memcpy
NIb:__ZNSt3__218__insertion_sort_3IRNS_4lessIN22BuiltinResourceManager8ResourceEEEPS3_EEvT0_S7_T_
SNe:_MultiArrayFixupRecord_FixupImpl_m1721674130
QUi:__ZN6il2cpp6icalls8mscorlib6SystemL8IsStaticEPK9EventInfo
dCc:_otv_LookupList_validate
Jgc:__Z29RectOffset_Set_Custom_PropTopP12Il2CppObjecti
GZf:_GenericEqualityComparer_1_Equals_m687841776_gshared
akc:__Z57Register_UnityEngine_Transform_INTERNAL_get_localPositionv
YTb:__ZNSt3__27__sort4IR15ReflProbeSorterPP15ReflectionProbeEEjT0_S6_S6_S6_T_
hUa:__ZN16GraphicsSettings10SmartResetEv
F9b:__ZN19StreamedBinaryWriteILb0EE4InitE24TransferInstructionFlags20BuildTargetSelection
tKd:_FileStream_Flush_m948103572
EKi:__ZN15dense_hashtableINSt3__24pairIK10KeyWrapperIPK22Il2CppGenericParameterEP11Il2CppClassEES6_N6il2cpp5utils11PointerHashIS4_EEN14dense_hash_mapIS6_S9_SE_NS6_14EqualsComparerINS0_8equal_toIS5_EEEENS0_9allocatorISA_EEE9SelectKeyESJ_SL_E9copy_fromERKSO_j
T3e:_ASN1Convert_ToInt32_m254930636
yeb:__ZN26PlayerSettingsSplashScreen16CheckConsistencyEv
wXa:__ZN20SphericalHarmonicsL28TransferI19StreamedBinaryWriteILb0EEEEvRT_
zgg:_UInt64_ToString_m1529093114
Q3b:__ZNK28RectTransformPropertyBinding9BindValueER6ObjectRKN11UnityEngine9Animation14GenericBindingERNS3_10BoundCurveE
wd:_emscripten_glLoadMatrixf
gpg:_Material_SetInt_m1783799378
Pmd:_Array_GetLength_m2178203778
gog:_Input_GetMouseButtonDown_m2081676745
UCd:_Int16_System_IConvertible_ToDouble_m1661805412_AdjustorThunk
Yab:__ZN4Mesh14UploadMeshDataEb
A4b:__ZN14RenderSettings12CleanupClassEv
Zic:__Z43DataUtility_CUSTOM_INTERNAL_CALL_GetPaddingP12Il2CppObjectR8Vector4f
VN:__ZN21AudioScriptingClasses26InvokeOnAudioManagerUpdateEP21ScriptingExceptionPtr
Sxa:__ZN18AsyncUploadManager15DoDeCruncherJobEP26FileAssetUploadInstruction
Ara:__ZN9GfxDevice15ImmediateNormalEfff
ryg:_Enumerator__ctor_m1351041375
Xub:__ZN13GUIStyleState8TransferI24GenerateTypeTreeTransferEEvRT_
H0:__ZN20dynamic_block_vectorI14FileIdentifierE22push_back_no_constructEv
rGj:_emscripten_glGetActiveAttrib__wrapper
K8a:__ZN9Texture3D23VirtualRedirectTransferER14SafeBinaryRead
z_h:_Array_InternalArray__set_Item_TisVector2_t2156229523_m2671087464_gshared
k3h:_Array_InternalArray__get_Item_TisVector4_t3319028937_m1117939728_gshared
jja:__ZNSt3__26vectorIN9ShaderLab20SerializedSubProgram16TextureParameterENS_9allocatorIS3_EEE8__appendEj
cni:_X509CertificateCollection_Contains_m743657353
xNf:_Array_InternalArray__ICollection_Add_TisSlot_t384495010_m3656484468_gshared
M3a:__ZN9Texture2D13UploadTextureEi
XAc:_cff_get_cid_from_glyph_index
vK:__ZN4FMOD6System19setSoftwareChannelsEi
Usa:__ZN9GfxDevice19SetSinglePassStereoE16SinglePassStereo
rFj:_emscripten_glGenBuffers__wrapper
Syj:_bitshift64Lshr
stj:__ZN6il2cpp8metadata19Il2CppSignatureHash4HashERKNS_5utils13dynamic_arrayIPK10Il2CppTypeLj4EEE
Iwd:_Hashtable_System_Collections_IEnumerable_GetEnumerator_m2751657639
_Ie:_HeaderHandler_Invoke_m3513051789
fYh:__ZL77CanvasScaler_t2767979955_CustomAttributesCacheGenerator_m_ReferenceResolutionP21CustomAttributesCache
sEg:__Z144RuntimeInvoker_RuntimeObject_RuntimeObject_Int32_t2950945753_RuntimeObject_RuntimeObject_RuntimeObject_RuntimeObject_RuntimeObject_RuntimeObjectPFvvEPK10MethodInfoPvPS4_
Pcg:_Type_get_IsPointer_m4067542339
$_e:_Text_get_supportRichText_m1837499160
Khc:__Z60Register_UnityEngine_Input_INTERNAL_set_compositionCursorPosv
Brg:_Vector3_Magnitude_m3447562852
Hig:_Component__ctor_m1928064382
sAj:dynCall_viiiii
xAj:dynCall_viiiif
oyd:_SortedList_PutImpl_m3408406199
mIc:_Cubic_To
Rbe:_Context_get_Protocol_m1078422015
mfc:__Z44Register_UnityEngine_Camera_get_farClipPlanev
Lq:__Z25InverseTransformDirection23TransformAccessReadOnlyRKN4math7_float3Eb
Mga:__ZN13RuntimeStaticINSt3__28multimapIj25DeferredSkinningOperationNS0_4lessIjEENS0_9allocatorINS0_4pairIKjS2_EEEEEELb0EE13StaticDestroyEPv
bzi:_ToggleGroup_SetAllTogglesOff_m4184050071
Bdb:__ZNK17IAnimationBinding30CurveAttributeToSerializedPathERKN11UnityEngine9Animation10BoundCurveE
Uej:__ZN6il2cpp2gc16GarbageCollector14GetOrCreateCCWEP12Il2CppObjectRK10Il2CppGuid
Jcj:__ZN6il2cpp2vm5Image21FromTypeNameParseInfoEPK11Il2CppImageRKNS0_17TypeNameParseInfoEb
mPd:_MonoCustomAttrs_IsDefined_m2996012389
Yta:__ZN17BufferManagerGLES13AcquireBufferEjN14DataBufferGLES11BufferUsageEb
tHi:_TextGenerator_PopulateAlways_m1922695746
Xwf:_Decimal__ctor_m3650533794
AUe:_MaskableGraphic_UpdateClipParent_m2605828397
rlf:_TripleDESTransform_GetStrongKey_m292426577
CUd:_AssemblyBuilder_get_Location_m384539722
lWc:__ZN16UnityAdsSettingsD0Ev
twa:__ZNK7ApiGLES10DebugLabelEN2gl10ObjectTypeEjPKc
WId:_DirectoryNotFoundException__ctor_m4004339866
Cyj:__ZNK10__cxxabiv121__vmi_class_type_info16search_below_dstEPNS_19__dynamic_cast_infoEPKvib
YGi:_TextGenerator__ctor_m1349784994
Pva:__ZN19ConstantBuffersGLES13SetCBConstantEiiPKvi
kVe:_Navigation_Equals_m317484440
zfh:_Collection_1_System_Collections_IList_set_Item_m876512695_gshared
_ic:__Z38DataUtility_CUSTOM_Internal_GetMinSizeP12Il2CppObjectP13Vector2fIcall
P8b:__ZN8PlayableC2E17ScriptingClassPtr18DirectorPlayerType
tzg:_Vector3_Distance_m886789632
$Me:_ObjectReader_ReadObjectGraph_m1689734232
Mqg:_MonoBehaviour_StopCoroutine_m907039165
Q3i:_il2cpp_class_has_attribute
A4e:_DSAManaged_get_KeySize_m2738463749
mza:__ZN6prcoreL12RemapGenericI15TexFormatRGB88817TexFormatARGB8888EEvPKNS_9InnerInfoE
Szg:_Vector4_op_Subtraction_m1632208160
Vu:__ZN7mecanim9animation30ValueFromSkeletonPoseRecursiveERKNS_8skeleton8SkeletonERKNS1_13SkeletonPoseTIN4math4trsXEEEPKNS0_14SkeletonTQSMapEPKiRNS_10ValueArrayEii
f$:__Z27FindOrCreateMonoScriptCache17ScriptingClassPtr22InitScriptingCacheTypeP6Objecti
MAb:__Z18Transfer_BlittableI18StreamedBinaryReadILb0EELb1E8Vector3fEvRK29SerializationCommandArgumentsR31RuntimeSerializationCommandInfo
wPc:__ZN2UI14CanvasRenderer13SyncVertexPtrER8JobFenceNS0_8SyncFlagE
FEf:_CultureInfo_GetFormat_m732021304
x$:__Z35scripting_method_get_argument_count18ScriptingMethodPtr
MLa:__ZN18AssetBundleManager18SortPreloadObjectsER13dynamic_arrayIiLj4EEb
yJg:__Z46RuntimeInvoker_RuntimeObject_Double_t594665363PFvvEPK10MethodInfoPvPS4_
b5f:_EncoderReplacementFallback__ctor_m2980727890
wtd:_ArrayList_Synchronized_m1327684267
wgc:__Z20Gradient_CUSTOM_InitP12Il2CppObject
u$d:_MethodBase_get_IsPublic_m2180846589
Noc:__Z48Register_UnityEngine_GUIUtility_Internal_ExitGUIv
oVf:_DefaultComparer_Equals_m2574572657_gshared
EJd:_FileStream_get_CanWrite_m1199612770
OVb:__ZL21CullDynamicObjectsJobP14CullingJobDataj
bmc:__ZNSt3__26vectorI7GUIClipNS_9allocatorIS1_EEE21__push_back_slow_pathIKS1_EEvRT_
L_d:_TypeBuilder_get_IsGenericParameter_m1751799710
SZb:__ZN14ManagerContext17InitializeClassesEv
lLa:__ZN19StreamedBinaryWriteILb0EE21TransferSTLStyleArrayINSt3__26vectorI14ConstantStringNS2_9allocatorIS4_EEEEEEvRT_17TransferMetaFlags
czb:__ZN18StreamedBinaryReadILb1EE21TransferSTLStyleArrayI31ArrayOfManagedObjectsTransfererEEvRT_17TransferMetaFlags
shh:_Collection_1_System_Collections_ICollection_CopyTo_m787979241_gshared
Mai:_ReadOnlyCollection_1_System_Collections_Generic_ICollectionU3CTU3E_Clear_m1551418550_gshared
OHc:_t1_hints_open
tTc:__ZN11UnityEngine15PlatformWrapper24GetVRTrackedAreaGeometryER13dynamic_arrayI8Vector3fLj4EE
pQd:_MonoType_get_AssemblyQualifiedName_m2662925380
ufc:__Z60Register_UnityEngine_Camera_INTERNAL_CALL_WorldToScreenPointv
Jif:_RSACryptoServiceProvider__ctor_m2288290917
y5d:_BigInteger_GenerateRandom_m3872771375
j0g:__Z75RuntimeInvoker_RuntimeObject_Single_t1397266774_RuntimeObject_RuntimeObjectPFvvEPK10MethodInfoPvPS4_
pJ:__ZN4FMOD7Channel11getUserDataEPPv
bDc:_UNITY_tt_face_load_gasp
_4e:_KeyPairPersistence_ProtectMachine_m1313131097
m$e:_Text_set_fontSize_m3617617524
fLc:_ft_ansi_stream_close
hm:_JS_Sound_SetPitch
V9f:_Thread_FreeLocalSlotValues_m1195763560
Snf:_String_IndexOf_m1977622757
E4i:_il2cpp_runtime_invoke_convert_args
Z2c:_TouchInputModule_Process_m3715678669
zFg:__Z114RuntimeInvoker_Int32_t2950945753_RuntimeObject_Int32_t2950945753_Int32_t2950945753_RuntimeObject_Int32_t2950945753PFvvEPK10MethodInfoPvPS4_
Qsd:_ArrayList__cctor_m3052737821
F8i:__ZN6il2cpp6icalls8mscorlib6System2IO6MonoIO11GetFileStatEP12Il2CppStringPNS3_8FileStatEPi
nsa:__ZN9GfxDevice33InsertCustomMarkerCallbackAndDataEPFviPvEiS0_j
MWc:__ZN11UnityEngine15PlatformWrapper16GenerateRandomIdEv
kOb:__ZNK9ShaderLab9IntShader6GetTagE11ShaderTagIDb
ivd:_BitArray_Set_m2486900776
oQc:__ZN2UI14CanvasRenderer11SetMaterialEP8Materiali
rpf:_String__ctor_m229724522
krh:__ZL54AssemblyName_t270931938_CustomAttributesCacheGeneratorP21CustomAttributesCache
NZa:__ZNK13RenderTexture37IsBoundMultisampledOnSecondaryTextureEv
Zmj:_GC_freehblk
Zji:_X509ExtensionCollection__ctor_m551870633
YYd:_MethodBuilder_MakeGenericMethod_m2175748754
bqi:_QuickSearch_Search_m3063517397
gxe:_Enumerator_Reset_m2443320674_gshared
ZGc:_ft_var_get_value_pointer
wdc:__ZN9Scripting35DestroyObjectFromScriptingImmediateEP6Objectb
wod:_AsyncCallback_Invoke_m3156993048
EWb:__ZNK6Camera48AreVRStereoViewMatricesWithinSingleCullToleranceEv
lx:__ZN7mecanim5human25HumanPoseAddAdditiveLayerERNS0_9HumanPoseERKS1_fRKNS_6bitsetILj83EEE
XGj:_glGetRenderbufferParameteriv__wrapper
B6e:_SymmetricTransform_FinalDecrypt_m1677319445
BFd:_Int32_Equals_m3996243976_AdjustorThunk
Qka:__ZN24GenerateTypeTreeTransfer8TransferINSt3__26vectorIN9ShaderLab20SerializedSubProgram12UAVParameterENS1_9allocatorIS5_EEEEEEvRT_PKc17TransferMetaFlags
qc:invoke_iiiiiiiiiiiiiii
ahj:__ZN6il2cpp2os6Thread33UnregisterCurrentThreadForCleanupEv
yJj:_emscripten_glIsRenderbuffer__wrapper
rCc:_otv_Coverage_get_first
SNc:__ZN2UI11CanvasGroup8TransferI19StreamedBinaryWriteILb0EEEEvRT_
SId:_DirectoryInfo__ctor_m1000259829
KVa:__ZNK20IntermediateRenderer8GetLayerEv
wDf:_CultureInfo_ConstructInvariant_m3774343375
r5a:__ZN15QualitySettings8TransferI14SafeBinaryReadEEvRT_
Cnd:_Array_ClearInternal_m532048538
atf:_DateTime__ctor_m12900168
fii:_IndexedSet_1_Insert_m1432638049_gshared
KQd:_MulticastDelegate_GetInvocationList_m4256593605
f2h:_Array_FindLast_TisRuntimeObject_m1088586648_gshared
iUe:_Mask_GetModifiedMaterial_m2692272647
_kg:_CullingGroup_t2096318768_marshal_pinvoke_back
Ucj:__ZNSt3__26vectorIN6il2cpp2vm5Image20EmbeddedResourceDataENS_9allocatorIS4_EEE21__push_back_slow_pathIS4_EEvOT_
X7:__GLOBAL__sub_I_runtime_utilities_0_cpp
Y1b:__ZN18BackgroundJobQueue29ScheduleMainThreadJobInternalEPFvPvES0_
NAj:dynCall_viiiiiif
rxi:_GUIUtility_EndGUIFromException_m3524906492
AZ:__ZN14SerializedFile10ReadObjectEx18ObjectCreationModebPPK8TypeTreePbR6Object
isi:_Expression_GetFixedWidth_m945658
M6g:_List_1_RemoveAll_m818254423_gshared
Psi:_Literal_Compile_m2228022079
QIb:__ZN14dynamic_bitset6resizeEjb
hHc:_tt_property_get
iHf:_Array_InternalArray__ICollection_Contains_TisSlot_t3975888750_m58971838_gshared
aT:__ZN11UnityEngine15CloudWebService10RestClientINS0_23WebRequestRestHeaderMapEE7SetDataEPKhj
nB:__ZN7mecanim8skeleton16SkeletonPoseCopyIN4math4trsXES3_EEvPKNS0_13SkeletonPoseTIT_EEPNS4_IT0_EE
WMi:__ZN14dense_hash_mapI10KeyWrapperIPK11Il2CppClassEPKcN6il2cpp5utils11PointerHashIS1_EENS4_14EqualsComparerINSt3__28equal_toIS3_EEEENSC_9allocatorINSC_4pairIKS4_S6_EEEEE15set_deleted_keyERSI_
Soa:__ZN9GfxDevice34SetStencilRefWhenStencilWasSkippedEi
Ycf:_X509Certificate2_Reset_m3988214799
BUc:__ZN11UnityEngine7Connect13ConnectConfig20RestoreTimeoutConfigERK13dynamic_arrayIiLj4EEjRS3_
pc:invoke_fi
jrj:__ZN6il2cpp6icalls8mscorlib6System10Reflection4Emit11TypeBuilder20create_runtime_classEP27Il2CppReflectionTypeBuilderS7_
dyg:_Transform_set_localScale_m3053443106
GYa:__ZN8Playable13SetInputCountEi
dX:__ZL21InternalAssertConsolePKcz
nc:invoke_ff
U5e:_RSAManaged_add_KeyGenerated_m3688329863
Lxe:_Enumerator_get_CurrentKey_m3735262888_gshared
Vgd:_HashAlgorithm_TransformFinalBlock_m3005451348
xGf:_Guid_NewGuid_m923091018
yd:_emscripten_glVertexAttrib3f
g$i:__ZN30dense_hashtable_const_iteratorINSt3__24pairIK10KeyWrapperINS1_IPK11Il2CppImageP11Il2CppClassEEEjEES9_17ReflectionMapHashIS8_EN14dense_hash_mapIS9_jSD_NS9_14EqualsComparerINS0_8equal_toIS8_EEEENS0_9allocatorISB_EEE9SelectKeyESI_SK_EppEv
Llj:__ZThn8_N6il2cpp2vm13CachedCCWBaseINS0_13ManagedObjectEE7DestroyEv
kjf:_RSAPKCS1SignatureDeformatter_SetKey_m614724234
r7f:_UnicodeEncoding_GetByteCount_m3498858619
JIf:_Array_InternalArray__ICollection_Remove_TisX509ChainStatus_t133602714_m3635989134_gshared
qhi:_UnityEvent_1_FindMethod_Impl_m555893253_gshared
AJc:__ZN20TextRenderingPrivate8TextMesh11ApplyToMeshEv
PCj:_emscripten_glDrawRangeElements__wrapper
bTa:__Z28scripting_class_is_valuetype17ScriptingClassPtr
o0b:__ZNSt3__25dequeI10InputEventNS_9allocatorIS1_EEE19__add_back_capacityEv
KFa:__ZN13ComputeShader13SetValueParamERKN9ShaderLab16FastPropertyNameEiPKv
bbb:__ZN14BlendShapeDataD2Ev
QBa:__ZL18ProgramUniform3uivPK7ApiGLESjiihPKv
Lid:_RijndaelTransform_Encrypt128_m1940909042
BPd:_MonoEnumInfo_get_Cache_m752167006
WQc:__Z47CanvasRenderer_Set_Custom_PropHasPopInstructionP12Il2CppObjecth
mqg:_Mesh_get_uv3_m3614955461
ABa:__ZN5Image8SetImageEii13TextureFormatb
O$:__ZN17MessageIdentifier21GetRegisteredMessagesEv
EV:__Z13RegisterClassI23CloudWebServicesManagerEvv
vme:_InternalEnumerator_1_get_Current_m3900374024_gshared
loi:_DelegatePInvokeWrapper_CostDelegate_t1722821004
Sud:_SynchronizedArrayListWrapper_CopyTo_m2886332653
M7e:_HybridDictionary_Remove_m2295600623
Hbj:__GLOBAL__sub_I_Image_cpp
wne:_InternalEnumerator_1_get_Current_m2680116177_AdjustorThunk
K0a:__ZNSt3__27__sort5IRPFbRKNS_4pairIN9ShaderLab16FastPropertyNameEfEES6_EPS4_EEjT0_SB_SB_SB_SB_T_
F2f:_List_1_CheckMatch_m1934407508_gshared
Msj:__ZNSt3__26vectorINS_12basic_stringIDsNS_11char_traitsIDsEENS_9allocatorIDsEEEENS4_IS6_EEE8__appendEj
D2e:_Kernel_LeftShift_m3302851050
ijj:__ZN14dense_hash_mapI10KeyWrapperIPK19Il2CppGenericMethodEP10MethodInfoN6il2cpp8metadata23Il2CppGenericMethodHashENS4_14EqualsComparerINS8_26Il2CppGenericMethodCompareEEENSt3__29allocatorINSD_4pairIKS4_S6_EEEEE15set_deleted_keyERSG_
nrb:__Z29Transfer_Blittable_ArrayFieldI14SafeBinaryRead4AABBEvRT_R9ArrayInfoRK23StaticTransferFieldInfo
Lee:_RecordProtocol_SendRecord_m515492272
wFe:_ConfigHandler_ReadProvider_m3620509535
FRh:__ZL56g_UnityEngine_UI_Assembly_CustomAttributesCacheGeneratorP21CustomAttributesCache
oSd:_Random__ctor_m4122933043
Zgc:__Z46Register_UnityEngine_RectOffset_get_horizontalv
t1a:__ZN18DelayedCallManager8ClearAllEv
YCg:__Z180RuntimeInvoker_RuntimeObject_RuntimeObject_Int32_t2950945753_RuntimeObject_Int32U26_t1369213839_BooleanU26_t4125257963_BooleanU26_t4125257963_Int32U26_t1369213839_SByte_t1669577662PFvvEPK10MethodInfoPvPS4_
_kc:__Z22Mesh_CUSTOM_HasChannelP12Il2CppObject30InternalScriptingShaderChannel
a8i:__ZN6il2cpp2os8AutoLockD2Ev
eIi:_CanvasGroup_get_interactable_m1362547832
CUb:__ZNK25RenderPrePassObjectSorterclERK16RenderObjectDataS2_
O3d:_ResourceSet_Dispose_m1823973062
ete:_InternalEnumerator_1_System_Collections_IEnumerator_get_Current_m3537550566_AdjustorThunk
nzb:__Z22TransferField_NonArrayI18StreamedBinaryReadILb1EE27Converter_SimpleNativeClassI8GUIStyleEEvRK23StaticTransferFieldInfoR31RuntimeSerializationCommandInfoRT0_
me:_Mix_LoadWAV_RW
F8d:_EncryptedPrivateKeyInfo__ctor_m25839594
eQ:__Z45AudioSource_Get_Custom_PropSpatializeInternalP12Il2CppObject
fif:_RIPEMD160Managed_HH_m90236373
hVh:__ZL84GraphicRaycaster_t2999697109_CustomAttributesCacheGenerator_m_IgnoreReversedGraphicsP21CustomAttributesCache
NYd:_MethodBuilder_Invoke_m3837446660
Zr:__ZNSt3__27__sort4IRNS_6__lessIN11UnityEngine9Animation13CachedBindingES4_EEPS4_EEjT0_S8_S8_S8_T_
Q9h:_ReadOnlyCollection_1_System_Collections_IList_Clear_m12445504_gshared
Sdj:__ZN6il2cpp2gcL12alloc_handleEPNS0_10HandleDataEP12Il2CppObjectb
KGj:_emscripten_glGetAttribLocation__wrapper
dog:_Input_GetAxisRaw_m2316819917
toi:_Enumerator_MoveNext_m55255603
SKh:__ZL57SpaceAttribute_t3956583069_CustomAttributesCacheGeneratorP21CustomAttributesCache
kbf:_WebRequest_AddDynamicPrefix_m4246631209
RUb:__Z13InitIndexListR9IndexListj
MNf:_Array_InternalArray__ICollection_Add_TisRefEmitPermissionSet_t484390987_m1720891963_gshared
K0:__ZL16ReadTypeTreeImplILb1EEbR8TypeTreeRK16TypeTreeIteratorRPKhS6_i
Orj:__ZN6il2cpp6icalls8mscorlib6System11Diagnostics10StackTrace9get_traceEP15Il2CppExceptionib
yCe:_Dictionary_2_set_Item_m3327106492_gshared
Ee:_glBlendEquationSeparate
rm:_emscripten_glDeleteVertexArrays
Hsa:__ZN13GfxDeviceGLES17SetComputeUniformE12ObjectHandleI18ComputeProgram_TagPvER18ComputeShaderParamjPKv
gIj:b95
Zqi:_Parser_IsNameChar_m698176442
d1g:_List_1_RemoveAt_m3459335427_gshared
MIj:_emscripten_glValidateProgram__wrapper
_ac:__ZN13MeshScripting27PrintErrorCantAccessChannelEPK4Mesh30InternalScriptingShaderChannel
wzg:_Vector3_get_sqrMagnitude_m1474274574_AdjustorThunk
lli:_GeneralNames_ToString_m489778282
Le:_emscripten_glUniform3fv
SHf:_Array_InternalArray__ICollection_Contains_TisRaycastHit2D_t2279581989_m2733133723_gshared
Hzd:_Convert_ToByte_m1442000130
Lif:_RSACryptoServiceProvider_get_KeySize_m2654153358
I9i:__ZN6il2cpp2vm9Exception20GetArgumentExceptionEPKcS3_
owc:__Z29Transfer_Blittable_ArrayFieldI8JSONReadiEvRT_R9ArrayInfoRK23StaticTransferFieldInfo
a2f:_Enumerator_MoveNext_m625797905_AdjustorThunk
i$h:_Array_Resize_TisCustomAttributeTypedArgument_t2723150157_m3021884250_gshared
WGj:_glDrawArrays__wrapper
EO:__ZN9AudioClip27IsFormatSupportedByPlatformERKN4core12basic_stringIcNS0_20StringStorageDefaultIcEEEE
g2a:__ZN29SerializeTraitsForStringTypesIN4core12basic_stringIcNS0_20StringStorageDefaultIcEEEEE8TransferI24GenerateTypeTreeTransferEEvRS4_RT_
Bka:__ZN9ShaderLab26SerializedShaderDependency8TransferI24GenerateTypeTreeTransferEEvRT_
Vfi:_InvokableCall_3_Invoke_m3141788616_gshared
Ipi:_PatternCompiler_EmitUntil_m3644194775
rDc:_UNITY_FT_Match_Size
Vv:__ZN7mecanim20CreateValueArrayMaskEPKNS_18ValueArrayConstantERNS_6memory9AllocatorE
h5e:_KeyPairPersistence_ToXml_m812591779
YPd:_MonoType_GetFields_internal_m776921855
uTc:__ZN11UnityEngine7Connect14AppUpdateEventC2Ev
k3d:_ResourceReader_Dispose_m3597121875
MSa:__ZN12ImageFilters17RemoveImageFilterERK11ImageFilter
Tld:_Hashtable_CalcPrime_m550773117
Kvg:_RenderTexture_get_width_m2160921386
ije:_InternalEnumerator_1_get_Current_m3073360606_AdjustorThunk
osa:__ZN9GfxDevice31InsertCustomBlitCallbackAndDataEPFviPvER33UnityRenderingExtCustomBlitParams
VJb:__Z32AddPathRemapsForBuiltinResourcesRKN4core12basic_stringIcNS_20StringStorageDefaultIcEEEE
UXa:__ZN14RenderSettings23VirtualRedirectTransferER24GenerateTypeTreeTransfer
Fsb:__ZL26Transfer_SimpleNativeClassI17RemapPPtrTransfer17AnimationCurveTplIfELb0EEvRK29SerializationCommandArgumentsR31RuntimeSerializationCommandInfo
aPe:_InputField_set_caretWidth_m707310868
tm:_glDeleteTransformFeedbacks
tdi:_U3CCreateWhereIteratorU3Ec__Iterator1D_1_MoveNext_m612748497_gshared
qf:_JS_WebRequest_Send
amj:__ZN6il2cpp2os4Time31GetTicks100NanosecondsMonotonicEv
Mhj:__ZNSt3__26__treeINS_12basic_stringIcNS_11char_traitsIcEENS_9allocatorIcEEEENS_4lessIS6_EENS4_IS6_EEE16__construct_nodeIJRKS6_EEENS_10unique_ptrINS_11__tree_nodeIS6_PvEENS_22__tree_node_destructorINS4_ISH_EEEEEEDpOT_
RId:_MonoIO_GetFileSystemEntries_m37351365
yBd:_Convert_ToSByte_m516918950
tFj:_emscripten_glGenRenderbuffers__wrapper
dyj:__ZNK10__cxxabiv117__class_type_info24process_found_base_classEPNS_19__dynamic_cast_infoEPvi
hvg:_ReapplyDrivenProperties_Invoke_m1151937880
Kid:_RijndaelTransform_ECB_m670662322
SSe:_LayoutGroup_OnDisable_m3483954898
tSi:__ZN6il2cpp2vm13MetadataCache21GetFieldInfoFromIndexEj
xPh:__ZL62EventType_t3528516131_CustomAttributesCacheGenerator_mouseDragP21CustomAttributesCache
JQ:__ZN5physx14PxLightCpuTaskD2Ev
nq:__ZNSt3__26vectorIN4core12basic_stringIcNS1_20StringStorageDefaultIcEEEENS_9allocatorIS5_EEE6assignINS_11__wrap_iterIPS5_EEEENS_9enable_ifIXaasr21__is_forward_iteratorIT_EE5valuesr16is_constructibleIS5_NS_15iterator_traitsISE_E9referenceEEE5valueEvE4typeESE_SE_
zvg:_Vector2_get_zero_m540426400
f3i:_il2cpp_init
THg:__Z105RuntimeInvoker_RuntimeObject_RuntimeObject_StreamingContext_t3711869237_ISurrogateSelectorU26_t3801502798PFvvEPK10MethodInfoPvPS4_
iNc:__ZNSt3__26__treeIPN2UI14CanvasRendererENS_4lessIS3_EENS_9allocatorIS3_EEE7destroyEPNS_11__tree_nodeIS3_PvEE
Zqa:__ZN13GfxDeviceGLES22UploadTextureSubData2DE9TextureIDPKhiiiiii14GraphicsFormat
hue:_DefaultComparer_Compare_m3648806637_gshared
Pkc:__Z35Register_UnityEngine_Screen_get_dpiv
Guc:__ZN8JSONRead8TransferIxEEvRT_PKc17TransferMetaFlagsb
axc:__ZN13SpeedTreeWind7AdvanceEbd
Ike:_InternalEnumerator_1_get_Current_m923139215_AdjustorThunk
VPi:__ZN15dense_hashtableINSt3__24pairIK10KeyWrapperIN6il2cpp5utils13dynamic_arrayIPK10Il2CppTypeLj4EEEEPFvvEEESA_NS3_8metadata19Il2CppSignatureHashEN14dense_hash_mapISA_SD_SG_NSA_14EqualsComparerINSF_22Il2CppSignatureCompareEEENS0_9allocatorISE_EEE9SelectKeyESK_SM_E12expand_arrayEjN21dense_hash_map_traits17integral_constantIbLb0EEE
ALf:_Array_FindLastIndex_TisRuntimeObject_m2929523835_gshared
ucc:__ZN9Transform16SetLocalPositionERK8Vector3f
M0b:__ZN10BootConfig4Data12InitFromFileEPPKcjS2_
JAb:__Z15Transfer_StringI18StreamedBinaryReadILb0EELb0EEvRK29SerializationCommandArgumentsR31RuntimeSerializationCommandInfo
zKc:_ft_open_face_internal
$Cc:_UNITY_tt_face_free_name
TPe:_InputField_set_selectionAnchorPosition_m68980541
zCa:__ZN14DataBufferGLES3MapEjjj
TCd:_Int16_System_IConvertible_ToDouble_m1661805412
RHj:_emscripten_glGetShaderiv__wrapper
U2b:__Z13RegisterClassI9TransformEvv
pti:_Repetition_Compile_m988726715
xY:__ZNK6Camera33CalculateFarPlaneWorldSpaceLengthEv
ZZc:_BaseInput_GetButtonDown_m3789908809
i6g:_List_1_System_Collections_IList_Insert_m2401407093_gshared
kWd:_EnumBuilder_get_BaseType_m1707640163
e$i:__ZNK15dense_hashtableINSt3__24pairIK10KeyWrapperINS1_IPK11Il2CppImageP11Il2CppClassEEEjEES9_17ReflectionMapHashIS8_EN14dense_hash_mapIS9_jSD_NS9_14EqualsComparerINS0_8equal_toIS8_EEEENS0_9allocatorISB_EEE9SelectKeyESI_SK_E5beginEv
gJj:b98
Oyc:_cf2_stack_setReal
rI:__ZN4FMOD3DSP8getInputEiPPS0_PPNS_13DSPConnectionE
gN:__ZN11SoundHandle8Instance13CreateChannelERS_b
qRd:_NumberFormatter_NumberToString_m2529982306
lH:__ZN13AudioListenerD2Ev
KLc:_UNITY_FT_Done_Library
_rj:__ZN6il2cpp2os5MutexC2Eb
cmi:_PKCS12__cctor_m3271060407
Ave:_Comparer_1__cctor_m2282308543_gshared
NPc:__ZN2UI13CanvasManager17EmitDataForCameraEP6Camera
A7d:_ARC4Managed_CheckInput_m1562172012
V0f:_Enumerator_MoveNext_m4018122760_gshared
T7:___cxx_global_var_init_66
Kji:_TlsStream_ReadBytes_m2334803179
Hic:__Z44Register_UnityEngine_Material_GetTextureImplv
xbi:_ReadOnlyCollection_1_System_Collections_IList_Add_m2445024939_gshared
d5a:__ZN19StreamedBinaryWriteILb0EE21TransferSTLStyleArrayI13dynamic_arrayI31EnlightenSystemAtlasInformationLj8EEEEvRT_17TransferMetaFlags
_Jd:_FileStream_EndRead_m3904255625
oGb:__ZL8MainLoopv
u9b:__ZN17TransformInternal25CopyTransformSubhierarchyER18TransformHierarchyjS1_yyjb
vIe:_CallContextRemotingData_Clone_m14303327
tRc:__Z47Register_UnityEngine_CanvasRenderer_SetMaterialv
AJj:_emscripten_glIsShader__wrapper
B4e:_DSAManaged_get_PublicOnly_m3575594967
kMc:__Z26CleanupTextRenderingModulev
tH:__ZN13AudioListener23VirtualRedirectTransferER24GenerateTypeTreeTransfer
ilb:__ZNK12HandlerChain9EnumerateEPKcP19dynamic_block_arrayI13FileEntryInfoLj32EEbPPv19FileEnumerationFlag
Gbb:__ZThn32_N12MeshRendererD1Ev
tZa:__ZN13RenderTexture23VirtualRedirectTransferER19StreamedBinaryWriteILb0EE
Okj:__ZN6il2cpp2vm13ComObjectBase17GetMarshalSizeMaxERK10Il2CppGuidPvjS5_jPj
$wj:_truncate
tla:__ZN9ShaderLab27SerializedShaderVectorValue8TransferI18StreamedBinaryReadILb0EEEEvRT_
rX:__ZN8Renderer21RendererBecameVisibleEv
wwj:___stpncpy
C9:__ZN10MemoryPool16StaticInitializeEPv
Mfa:__ZN11TypeManager21CleanupGlobalInstanceEv
eCf:_Enum_ToString_m2240012010
N:Math_atan
xa:invoke_iifii
UG:__ZNK10SampleClip11GetResourceEv
u0d:_MonoEvent_get_Name_m3774595291
epa:__ZN9GfxDevice15GetStereoMatrixE21MonoOrStereoscopicEye24BuiltinShaderMatrixParamR10Matrix4x4f
COa:__ZN4core12basic_stringIcNS_20StringStorageDefaultIcEEE6resizeEj
Znc:__Z43Register_UnityEngine_Event_set_displayIndexv
swc:__GLOBAL__sub_I_CmEventProfiler_cpp
EOg:__Z128RuntimeInvoker_RuntimeObject_RuntimeObject_SByte_t1669577662_SByte_t1669577662_SByte_t1669577662_SByte_t1669577662_RuntimeObjectPFvvEPK10MethodInfoPvPS4_
B7f:_UnicodeEncoding_GetMaxByteCount_m3053620432
bIe:_ArgInfo__ctor_m1950205784
Gdi:_Nullable_1_Equals_m4046255732_AdjustorThunk
rQa:__ZN17GlobalGameManager23VirtualRedirectTransferER24GenerateTypeTreeTransfer
BVc:__ZN19UnityConnectServiceD0Ev
Iyi:_ToggleGroup_ValidateToggleIsInGroup_m3201190739
kVi:__ZN6il2cpp2vm7Runtime17GetDelegateInvokeEP11Il2CppClass
Jqg:_MonoBehaviour_StartCoroutine_Auto_Internal_m2421197418
cxc:___cxx_global_var_init_128
N1d:_MonoProperty_get_PropertyType_m4138957578
dUa:__ZNSt3__26vectorIfNS_9allocatorIfEEE8__appendEjRKf
dUc:__ZN11UnityEngine15PlatformWrapper21GetCopyTextureSupportEv
nuf:_DateTime_get_Month_m1566006993_AdjustorThunk
PGf:_Array_get_swapper_TisRaycastResult_t3360306849_m1267000905_gshared
Kfe:_SslClientStream__ctor_m3478574780
kO:__ZN11AudioModule27IsFormatSupportedByPlatformEPKc
kKc:_UNITY_FT_Render_Glyph
EVd:_DerivedType_GetFields_m3190137327
a$c:_EventSystem_OnDisable_m3820258344
gwc:__Z19TransferField_ArrayI8JSONRead16Converter_StringEvRK23StaticTransferFieldInfoR31RuntimeSerializationCommandInfoRT0_
Ihd:_MACTripleDES_Setup_m560957914
w6b:__ZZN10MeshFilter15InitializeClassEvEN31FunctorImpl_108kDidAddComponent4CallEPviR11MessageData
sQi:__ZN15dense_hashtableINSt3__24pairIK10KeyWrapperIPK19Il2CppGenericMethodEPK26Il2CppGenericMethodIndicesEES6_N6il2cpp8metadata23Il2CppGenericMethodHashEN14dense_hash_mapIS6_SA_SE_NS6_14EqualsComparerINSD_26Il2CppGenericMethodCompareEEENS0_9allocatorISB_EEE9SelectKeyESI_SK_E6insertERKSB_
KUb:__Z19SetupShadowCullDataRK27ScriptableCullingParametersRK17ShaderReplaceDataPK22SceneCullingParametersf16ShadowProjectionR14ShadowCullData
LKa:__ZNK25ThreadsafeLinearAllocator22GetAllocatedMemorySizeEv
Qxc:_cff_size_request
L_a:__ZN15DirectorManager14ConnectionPool12SwitchBucketEP14ConnectionList
vNc:__ZN2UI11CompareFuncEPNS_6CanvasES1_
hJ:__ZN4FMOD7Channel11set3DSpreadEf
usj:__ZN6il2cpp2os6Memory14AlignedReAllocEPvjj
FCe:_Dictionary_2_Resize_m1156965638_gshared
d2a:__ZN24GenerateTypeTreeTransfer16TransferTypelessEPjPKc17TransferMetaFlags
NMf:_Array_InternalArray__IndexOf_TisPlayableBinding_t354260709_m3544096311_gshared
wkf:_SHA512Managed_processLength_m2162821715
RBa:__ZL18ProgramUniform4uivPK7ApiGLESjiihPKv
ftg:_Vector3_get_normalized_m2454957984
D9f:_Mutex_CreateMutex_internal_m3763633491
DXh:__ZL74SpriteState_t1362986479_CustomAttributesCacheGenerator_m_HighlightedSpriteP21CustomAttributesCache
Qm:FUNCTION_TABLE_viiiiiiiiiiiiiii
Cac:__ZNK4Mesh19CanAccessFromScriptEv
b2:__Z15GetGraphicsCapsv
tEa:__ZN7ApiGLES15BindVertexArrayEN2gl6HandleILNS0_10ObjectTypeE3EEE
dRf:_Dictionary_2_System_Collections_IDictionary_Remove_m316877720_gshared
Fv:__ZN17AnimationPlayable17GetAnimationClipsER13dynamic_arrayIP13AnimationClipLj4EE
$Rb:__Z20IntersectionAABBAABBRK10MinMaxAABBS1_PS_
Kge:_SslStreamBase_get_SecurityProtocol_m596101988
NXi:__ZNSt3__212basic_stringIcNS_11char_traitsIcEENS_9allocatorIcEEE6__initIPKcEENS_9enable_ifIXsr21__is_forward_iteratorIT_EE5valueEvE4typeESA_SA_
sna:__ZN9ShaderLab20SerializedSubProgram14AddMatrixParamEPKcii15ShaderParamTypei
TLg:__Z121RuntimeInvoker_Void_t1185182177_Int32_t2950945753_Int32_t2950945753_Int32_t2950945753_Int32_t2950945753_Int32_t2950945753PFvvEPK10MethodInfoPvPS4_
fHc:_ft_var_load_item_variation_store
Xid:_DeriveBytes_set_Salt_m441577179
Mhi:_UnityEvent_3_FindMethod_Impl_m1640458315_gshared
lqh:__ZL61ConstructorBuilder_t2813524108_CustomAttributesCacheGeneratorP21CustomAttributesCache
Tnb:__Z18Transfer_BlittableI14SafeBinaryReadLb1EhEvRK29SerializationCommandArgumentsR31RuntimeSerializationCommandInfo
o$e:_Text_get_verticalOverflow_m2420459396
vga:__ZNSt3__224__buffered_inplace_mergeIRNS_4lessIN4core12basic_stringIcNS2_20StringStorageDefaultIcEEEEEENS_11__wrap_iterIPS6_EEEEvT0_SC_SC_T_NS_15iterator_traitsISC_E15difference_typeESG_PNSF_10value_typeE
cc:invoke_viifff
Gaa:__Z22DestroyObjectHighLevelP6Objectb
Lfd:_KeySizes__ctor_m3113946058
mPb:__Z26BeginRenderQueueExtractionR15RenderNodeQueuePK16RendererCullDataRK13CullingOutputPK12LODDataArray15ExtractionFlagsP18JobBatchDispatcher
TJc:__ZNK13TextRendering4Font10GetTextureEv
oj:_emscripten_glVertexAttrib3fv
aIe:_LifetimeServices__cctor_m2128864873
Keg:_UInt16_TryParse_m3193697465
f8i:__ZN6il2cpp6icalls8mscorlib6System9Threading6Thread16SetName_internalEP12Il2CppThreadP12Il2CppString
eif:_RIPEMD160Managed_GG_m3020389474
Ryf:_Decimal_op_Division_m2407964042
JPe:_InputField_get_asteriskChar_m965956856
TUa:__ZN18JobBatchDispatcherC2E11JobPriorityi
Qgd:_HashAlgorithm_Create_m644612360
Lrg:_Playable_get_Null_m3556999077
e2e:_BigInteger_TestBit_m1507066813
Wlc:__ZN8GUIStyle14GetBuiltinFontEv
Qra:__ZN9GfxDevice13EndFrameStatsEv
d5b:__Z7Empty2DP9Texture2DPhiiii
_Zh:_Array_InternalArray__set_Item_TisRefEmitPermissionSet_t484390987_m3786305619_gshared
IFi:_DisplayBuffer_GetAllDisplayLines_m956916978
h7i:__ZN6il2cpp6icalls8mscorlib6System7Runtime15InteropServices7Marshal19copy_from_unmanagedEiiP11Il2CppArrayi
kH:__ZL34StaticDestroyAudioCustomFilterRootPv
bie:_ArrayReadOnlyList_1_GetEnumerator_m3931906247_gshared
RFa:__ZN19ComputeShaderKernelD2Ev
oLi:__ZN6il2cpp2vmL17SetupEventsLockedEP11Il2CppClassRKNS_2os12FastAutoLockE
v1b:__ZN10systeminfo21GetTemporaryCachePathEv
I5b:__ZZN8Renderer15InitializeClassEvEN28FunctorImpl_138kLayerChanged4CallEPviR11MessageData
$lj:__ZN6il2cpp2os4Time29GetTicksMillisecondsMonotonicEv
nbd:_GridLayoutGroup_CalculateLayoutInputVertical_m357562599
Z8f:_CompressedStack_Capture_m3327262890
kub:__Z18Transfer_BlittableI24GenerateTypeTreeTransferLb1E10Matrix4x4fEvRK29SerializationCommandArgumentsR31RuntimeSerializationCommandInfo
o2c:_StandaloneInputModule_get_repeatDelay_m1143359059
M8f:_UTF8Encoding_GetMaxByteCount_m420651053
Dsc:__ZN9JSONWrite8TransferI10Matrix4x4fEEvRT_PKc17TransferMetaFlags
yzc:_cf2_hintmap_map
Kuf:_DateTime_Compare_m2855073242
m1g:_List_1_get_Item_m1651423686_gshared
iUa:__ZNK16GraphicsSettings22GetTypeVirtualInternalEv
Ncg:_Type_get_IsExplicitLayout_m1182254884
Zqb:__ZN15SerializeTraitsI5RectTIfEE8TransferI14SafeBinaryReadEEvRS1_RT_
cLa:__ZNK14SerializedFile15GetTypeIfExistsEx
tjc:__Z41Register_UnityEngine_Texture_get_wrapModev
$Kc:_UNITY_FT_Raccess_Get_DataOffsets
I8b:__ZN14PlayableOutputC2EjP13PlayableGraph
GX:__ZThn32_NK8Renderer11GetMaterialEi
Z6c:_FloatTween_AddOnChangedCallback_m2814315272
hmj:__ZN6il2cpp6icalls8mscorlib6System7Runtime15InteropServices8GCHandle15GetTargetHandleEP12Il2CppObjectii
Ojg:_CameraCallback_Invoke_m3308824940
xcb:__ZN9InputAxis8TransferI18StreamedBinaryReadILb0EEEEvRT_
vW:__ZN13MemoryManager12GetAllocatorE10MemLabelId
H5d:_BigInteger_ToString_m3260066955
Joa:__ZN9GfxDevice29GetMinimumNodesPerGraphicsJobEv
rKh:__ZL63RuntimePlatform_t4159857903_CustomAttributesCacheGenerator_NaClP21CustomAttributesCache
uab:__ZN17BlendShapeChannel8TransferI24GenerateTypeTreeTransferEEvRT_
OZe:_Slider__ctor_m873361617
E4d:_GCHandle__ctor_m2690474163_AdjustorThunk
Rea:__ZN15DirectorManager17OnSampleFixedTimeEv
cWb:__ZNK13RendererScene21GetDynamicObjectCountEv
XAf:_Double_Parse_m1135962389
_ji:_X509Extension__ctor_m710637961
bvf:_CultureInfo_get_CurrentCulture_m1632690660
v5e:_PKCS1_OS2IP_m65970018
Ck:_Mix_HaltMusic
P7h:_ReadOnlyCollection_1_System_Collections_IList_set_Item_m70952451_gshared
Sfb:__ZNSt3__26vectorIN30RuntimeInitializeOnLoadManager9ClassInfoE13stl_allocatorIS2_L18MemLabelIdentifier13ELi16EEE8__appendEj
Sub:__ZN24GenerateTypeTreeTransfer32TransferSTLStyleArrayWithElementI23ManagedObjectTransfererEEvRT_17TransferMetaFlags
Qij:__ZN6il2cpp6icalls8mscorlib6System11Environment12get_PlatformEv
C9e:_HttpWebRequest__cctor_m1467954389
Sae:_CipherSuiteCollection_System_Collections_IList_Remove_m2463347416
x5h:_ReadOnlyCollection_1_System_Collections_IList_RemoveAt_m1980090087_gshared
Dog:_DefaultValueAttribute_GetHashCode_m3368187153
Gsj:__ZN6il2cpp6icalls8mscorlib6System7Runtime8Remoting16RemotingServices16GetVirtualMethodEP20Il2CppReflectionTypeP22Il2CppReflectionMethod
Tec:__Z42Register_UnityEngine_Behaviour_get_enabledv
Cge:_SslStreamBase_EndNegotiateHandshake_m1124299797
yee:_SslStreamBase__ctor_m3009266308
PWi:__ZN6il2cpp2vm14TypeNameParser23ParseNestedTypeOptionalERi
xbg:_TimeSpan_get_Seconds_m1883479191_AdjustorThunk
esj:__ZN6il2cpp2os13FastMutexImplC2Ev
j4d:_RuntimeHelpers_InitializeArray_m4077124945
Pfb:__ZN30RuntimeInitializeOnLoadManager9ClassInfo8TransferI14SafeBinaryReadEEvRT_
P5d:_BigInteger_op_Equality_m1194739960
h8f:_UTF7Encoding_GetCharCount_m2792854727
wSb:__ZL13RenderCastersiRK8Vector3fS1_RK13ShadowJobDataR17ShaderPassContextRKNSt3__26vectorI16ShadowCasterData13stl_allocatorIS9_L18MemLabelIdentifier2ELi16EEEERKNS8_I20ShadowCasterPartDataSA_ISG_LSB_2ELi16EEEERK15RenderNodeQueuebPKj
nl:_emscripten_glGetShaderInfoLog
n$e:_Text_get_horizontalOverflow_m4155575610
wNe:_ObjectReader_RecordFixup_m4125245357
vDc:_UNITY_ft_glyphslot_set_bitmap
Cl:_glUniform1i
pQe:_InputField_Validate_m4147207871
A1b:__ZN6prcoreL11inner_clearILj3EEEvPhjjj
gDf:_CCGregorianCalendar_dmy_from_fixed_m494173177
n4g:_List_1_System_Collections_IList_IndexOf_m3211997095_gshared
s5:__Z29FindReflectionProbeFromAnchorP9TransformRK4AABBRS1_RsS5_
Yqd:_Byte_System_IConvertible_ToUInt64_m371883985_AdjustorThunk
NFc:_Read_CVT_Stretched
oUi:__ZN6il2cpp6icalls8mscorlib6System18CollectTypeMethodsINS_5utils10functional10TrueFilterEEEvP11Il2CppClassPKS7_jRKT_RNSt3__26vectorIPK10MethodInfoNSE_9allocatorISI_EEEERA65535_b
xGb:__Z14SetPlayerPause11PlayerPauseb
Hvd:_CollectionBase_System_Collections_ICollection_CopyTo_m2850099809
_6h:_ReadOnlyCollection_1_System_Collections_IEnumerable_GetEnumerator_m3042843502_gshared
C2c:_StandaloneInputModule_ActivateModule_m2232892298
M4d:_GCHandle_Free_m1457699368_AdjustorThunk
dag:_Thread_get_CurrentUICulture_m1397429997
oAc:_cff_done_blend
Qif:_RSACryptoServiceProvider_Dispose_m1199148535
Cad:_Graphic_RegisterDirtyLayoutCallback_m1235519898
q_:__Z30scripting_stack_trace_info_for21ScriptingExceptionPtrR14StackTraceInfo
bzg:_Vector2_op_Inequality_m3858779880
MBj:_glCompressedTexSubImage3D__wrapper
FYa:__ZN18ShadowMapJobHeaderD0Ev
GZe:_Selectable_Select_m1465131241
F$i:__ZN15dense_hashtableINSt3__24pairIK10KeyWrapperINS1_IPK12PropertyInfoP11Il2CppClassEEEjEES9_17ReflectionMapHashIS8_EN14dense_hash_mapIS9_jSD_NS9_14EqualsComparerINS0_8equal_toIS8_EEEENS0_9allocatorISB_EEE9SelectKeyESI_SK_EC2ERKSN_j
BI:__ZN15AudioReverbZone7CleanupEv
toa:__ZN10BufferGLESD0Ev
dGb:__Z20scripting_gc_disablev
God:_Attribute_IsDefined_m1430686743
Qhf:_IntervalCollection_Optimize_m161975983
S5c:__Z9NullCheckPv
lhg:_Version__ctor_m417728625
zfa:__ZN16memory_pool_implILi68EE15AutoPoolWrapper10InitializeEPv
Mzd:_Convert_ToByte_m3567528984
ffi:_InvokableCall_1_Invoke_m3497872319_gshared
GEb:__ZN9Scripting35ErrorMessageForUnsupportedEnumFieldE17ScriptingFieldPtr
_$e:_Level2MapComparer__cctor_m1866197409
vAb:__Z29Transfer_Blittable_ArrayFieldI18StreamedBinaryReadILb1EEfEvRT_R9ArrayInfoRK23StaticTransferFieldInfo
Vee:_RecordProtocol_ReadRecordBuffer_m180543381
Xve:_Enumerator_get_CurrentKey_m2230405065_AdjustorThunk
lBi:__ZL24UnresolvedVirtualCall_10P12Il2CppObjectPK10MethodInfo
avd:_BitArray__ctor_m2765908219
Brf:_StringComparer_get_InvariantCultureIgnoreCase_m2404489191
zGi:_Font_get_material_m1471867149
Plj:__ZN6il2cpp6icalls8mscorlib6System7Runtime16CompilerServices14RuntimeHelpers15InitializeArrayEP11Il2CppArrayi
SGe:_Context_Freeze_m2594571993
SWc:__ZZN18UnityConnectClient23RegisterGlobalCallbacksEvEN46EarlyUpdateUnityConnectClientUpdateRegistrator7ForwardEv
i6c:_ContentSizeFitter_HandleSelfFittingAlongAxis_m3992075504
HOf:_Array_InternalArray__ICollection_CopyTo_TisInt32_t2950945753_m3102754797_gshared
Xsg:_Quaternion_ToString_m2203056442
nVd:_ModuleBuilder_GetTokenGenerator_m4177350090
Dab:__ZN10Matrix4x4f8TransferI18StreamedBinaryReadILb0EEEEvRT_
jag:_Thread_Start_m2860771284
m9g:_List_1_AddEnumerable_m2295992518_gshared
yM:__ZN4FMOD7Channel19getReverbPropertiesEP29FMOD_REVERB_CHANNELPROPERTIES
oVb:__ZL23NormalizeRobustInternalRK8Vector3fRfS2_f
fxc:__GLOBAL__sub_I_modules_terrain_public_2_cpp
kPe:_InputField_get_selectionColor_m2548343601
$Mf:_Array_LastIndexOf_TisRuntimeObject_m2701366436_gshared
eUi:__ZN6il2cpp6icalls8mscorlib6System8MonoType13GetInterfacesEP20Il2CppReflectionType
KT:__ZN11UnityEngine15CloudWebService25WebRequestDownloadHandler7OnAbortEv
YLb:__ZN6Camera12CustomRenderER11CullResultsR17ShaderPassContextPK21CameraRenderingParamsNS_10RenderFlagEPNS_21PerformRenderFunctionEPFvvE
ncf:_PublicKey_GetUnsignedBigInteger_m3873409673
_gj:__ZN6il2cpp2os6Thread22SetNativeThreadCleanupEPFvPvE
iZf:_GenericEqualityComparer_1_Equals_m2669134646_gshared
tec:__Z35Application_Get_Custom_PropPlatformv
u3i:_il2cpp_class_from_system_type
Pdd:_RuntimeMethodHandle__ctor_m2867240657
osf:_DecoderFallback_get_StandardSafeFallback_m2130338133
bn:FUNCTION_TABLE_vdd
Rtb:__Z18Transfer_BlittableI24GenerateTypeTreeTransferLb1E10ColorRGBAfEvRK29SerializationCommandArgumentsR31RuntimeSerializationCommandInfo
mAa:__ZN6prcoreL17RemapGenericFloatI18TexFormatRGBAFloat16TexFormatRGFloatEEvPKNS_9InnerInfoE
FTi:__ZN6il2cpp6icalls8mscorlib6System8MonoType8get_NameEP20Il2CppReflectionType
r1e:_SimpleCollator_LastIndexOf_m2130553617
oqb:__ZNSt3__26vectorI10RectOffset13stl_allocatorIS1_L18MemLabelIdentifier1ELi16EEE8__appendEj
Tt:__ZN21AnimationClipPlayable22PrepareAnimationEventsEfR13dynamic_arrayI22AnimationClipEventInfoLj4EE
Xte:_DefaultComparer_Compare_m1920986590_gshared
gcg:_TimeSpan_op_Equality_m1999885032
Mge:_SslStreamBase_get_ServerCertificates_m2154373069
qcj:__ZN6il2cpp2vmL29AddTypeToNametoClassHashTableEPK11Il2CppImagei
Ro:FUNCTION_TABLE_ff
To:FUNCTION_TABLE_fi
oEd:_NumberFormatter_ZeroTrimEnd_m3065471008
Bgi:_UnityAction_2_Invoke_m2304474703_gshared
Ejd:_X509Certificate_get_DSA_m1760272844
cag:_Thread_get_CurrentCulture_m349116646
X9f:_Thread_Thread_internal_m4184414727
rd:_emscripten_glGetAttribLocation
EKb:__ZZ23InitPlayerLoopCallbacksvEN39PostLateUpdateResetInputAxisRegistrator7ForwardEv
mL:__ZN4FMOD12ChannelGroup14getParentGroupEPPS0_
vd:_emscripten_set_blur_callback
Ych:_Collection_1_IsValidItem_m1475436662_gshared
bya:__ZNK14ImageReference9ClipImageEiiii
y6b:__ZN4MeshC2E10MemLabelId18ObjectCreationMode
fTb:__ZN10Matrix4x4f30SetPositionAndOrthoNormalBasisERK8Vector3fS2_S2_S2_
nKa:__ZN5RectTIfE8TransferI24GenerateTypeTreeTransferEEvRT_
P5c:_ColorBlock_Equals_m518833916
lgj:__ZN6il2cpp6icalls8mscorlib6System4Enum8ToObjectEP20Il2CppReflectionTypeP12Il2CppObject
W_h:_Array_qsort_TisUIVertex_t4057497605_m4120916435_gshared
mNb:__ZN12FlareManager6UpdateEv
haj:__ZN6il2cpp6icalls8mscorlib6System4Type29GetGenericTypeDefinition_implEP20Il2CppReflectionType
tdb:__ZN27GenericSlowGarbageCollector16ProcessReferenceEi
sRf:_Dictionary_2_get_Item_m1749337561_gshared
WFe:_LifetimeServices_set_SponsorshipTimeout_m2538334028
T$h:_Array_Sort_TisCustomAttributeTypedArgument_t2723150157_m3248988944_gshared
Rvj:_fopen
Yma:__ZN20GpuProgramParameters15AddTextureParamEPKciib16TextureDimensionP16PropertyNamesSet
ALc:__ZN20TextRenderingPrivate8FontImplD2Ev
xV:__ZN19CloudServiceHandler8SaveFileERKN4core12basic_stringIcNS0_20StringStorageDefaultIcEEEEPKvj
H9i:__ZN6il2cpp2vm9Exception5RaiseEib
Hmj:_GC_init
hQd:_MonoType_IsPointerImpl_m3340652279
nEj:_glFramebufferTexture2D__wrapper
utj:__ZN6il2cpp6icalls8mscorlib6System7Runtime8Remoting7Proxies9RealProxy27InternalGetTransparentProxyEP12Il2CppObjectP12Il2CppString
Rhj:__ZN6il2cpp2vm6Method10IsInflatedEPK10MethodInfo
emj:__ZNK6il2cpp8metadata14Il2CppTypeLessclEPK10Il2CppTypeS4_
bnj:_GC_remove_header
kWa:__ZL17InstanceBufferJobIN10Instancing14RenderLoopArgsEEvP21InstanceBufferJobDataIT_E
Hfb:__ZNSt3__26vectorIi13stl_allocatorIiL18MemLabelIdentifier13ELi16EEE8__appendEj
NVe:_ReflectionMethodsCache__ctor_m3826472948
JKe:_ReturnMessage_get_OutArgs_m1641976511
MHe:_SynchronizationAttribute_IsContextOK_m324067792
Dfj:__ZN6il2cpp2vm6Object6IsInstEP12Il2CppObjectP11Il2CppClass
bxb:__Z19TransferField_ArrayI19StreamedBinaryWriteILb0EE27Converter_UnityEngineObjectEvRK23StaticTransferFieldInfoR31RuntimeSerializationCommandInfoRT0_
iWi:_RemoteSettings_CallOnUpdate_m2821567430
Sze:_Enumerator_Dispose_m3503748991_gshared
Tua:__Z16GetMSAALevelDesc9MSAALevel
wCf:_Environment_GetMachineConfigPath_m43519138
Une:_InternalEnumerator_1_System_Collections_IEnumerator_get_Current_m4203917072_gshared
dyf:_Decimal_decimal2Int64_m2102545213
lMb:__ZN8Renderer27EnsureTransformInfoUpToDateEv
YIj:_emscripten_glFrontFace__wrapper
gDe:_Dictionary_2_System_Collections_ICollection_CopyTo_m534867526_gshared
La:invoke_fiffi
E0:__ZN14SerializedFile14SerializedType8ReadTypeILb1EEEbibRPKhS3_Pi
Ofi:_InvokableCall_1_Invoke_m1160628299_gshared
m_c:_ExecuteEvents_get_pointerEnterHandler_m1185301724
oji:_InternalAsyncResult__ctor_m2194591319
MYa:__ZN8Playable7SetTimeEd
jaa:__ZN13RuntimeStaticI12GraphicsCapsLb0EE16StaticInitializeEPv
T8a:__ZN9Texture3D17UploadToGfxDeviceEv
Qtc:__Z18Transfer_BlittableI8JSONReadLb1E8Vector4fEvRK29SerializationCommandArgumentsR31RuntimeSerializationCommandInfo
BEc:_tt_cmap2_validate
EAc:_cff_cmap_unicode_done
SDe:_ActivationServices_CreateProxyFromAttributes_m3864561181
VFb:__ZN9Scripting20SendScriptingMessageER10GameObjectPKc18ScriptingObjectPtr
DPg:__Z67RuntimeInvoker_Void_t1185182177_Scene_t2348375561_Int32_t2950945753PFvvEPK10MethodInfoPvPS4_
tGb:__Z26IsSplashScreenFadeCompletev
sfc:__Z42Register_UnityEngine_Camera_get_clearFlagsv
gUi:__ZNSt3__26__treeIP11Il2CppClassNS_4lessIS2_EENS_9allocatorIS2_EEED2Ev
B_e:_Slider_FindSelectableOnRight_m3576909722
uZb:__ZN13RenderManager27UpdatePreviousFrameMatricesEv
myb:__Z35Transfer_Blittable_FixedBufferFieldI18StreamedBinaryReadILb1EExEvRK29SerializationCommandArgumentsR31RuntimeSerializationCommandInfo
j2h:_Array_InternalArray__get_Item_TisByte_t1134296376_m3566214066_gshared
sba:__Z22SetManagerPtrInContextiP6Object
qeb:__ZN14PlayerSettings8TransferI19StreamedBinaryWriteILb0EEEEvRT_
Atc:__Z18Transfer_BlittableI8JSONReadLb0E10ColorRGBAfEvRK29SerializationCommandArgumentsR31RuntimeSerializationCommandInfo
CDf:_NumberFormatInfo_set_NumberNegativePattern_m1999304795
f7g:_List_1_System_Collections_IList_Insert_m2238786360_gshared
yXd:_GenericTypeParameterBuilder_IsSubclassOf_m2266644074
lQi:__ZN15dense_hashtableINSt3__24pairIK10KeyWrapperIN6il2cpp5utils13dynamic_arrayIPK10Il2CppTypeLj4EEEEPFvvEEESA_NS3_8metadata19Il2CppSignatureHashEN14dense_hash_mapISA_SD_SG_NSA_14EqualsComparerINSF_22Il2CppSignatureCompareEEENS0_9allocatorISE_EEE9SelectKeyESK_SM_E14squash_deletedEv
$Df:_CompareInfo_ToString_m2684143229
Kda:__ZN15DirectorManagerD2Ev
a_e:_Slider_get_maxValue_m414465787
v_i:__ZN15dense_hashtableINSt3__24pairIK10KeyWrapperINS1_IPK10MethodInfoP11Il2CppClassEEEjEES9_17ReflectionMapHashIS8_EN14dense_hash_mapIS9_jSD_NS9_14EqualsComparerINS0_8equal_toIS8_EEEENS0_9allocatorISB_EEE9SelectKeyESI_SK_E9copy_fromERKSN_j
uef:_X509CertificateEnumerator_System_Collections_IEnumerator_get_Current_m4218613192
LTc:__ZN11UnityEngine15PlatformWrapper12GetInfoFlagsEv
vWe:_Scrollbar_set_direction_m473480640
J7f:_UTF32Encoding__ctor_m1635603592
rgg:_UInt64_Equals_m1879425698_AdjustorThunk
Iti:_Uri_IsPredefinedScheme_m1188665625
UWc:__ZN18UnityConnectClient13StaticDestroyEv
taj:__ZN6il2cpp6icalls8mscorlib6System13Globalization11CultureInfo45construct_internal_locale_from_current_localeEP17Il2CppCultureInfo
oPf:_Array_InternalArray__ICollection_CopyTo_TisUIVertex_t4057497605_m487823430_gshared
Laf:_ServicePointManager_get_CheckCertificateRevocationList_m1645465614
dWi:_SessionStateChanged_Invoke_m1365949269
hGa:__ZN15TextureTFMethod16BindForRenderingEj
vQh:__ZL49Canvas_t3310196443_CustomAttributesCacheGeneratorP21CustomAttributesCache
UKe:_SoapMethodAttribute_SetReflectionObject_m503748123
tGf:_Guid_Equals_m3683678873_AdjustorThunk
rcj:__ZN15dense_hashtableINSt3__24pairIK10KeyWrapperINS1_IPKcS4_EEEiEES6_24NamespaceAndNamePairHashN14dense_hash_mapIS6_iS9_NS6_14EqualsComparerI26NamespaceAndNamePairEqualsEENS0_9allocatorIS8_EEE9SelectKeyESD_SF_E4findERS7_
pJc:__ZN20TextRenderingPrivate8FontImpl13CharacterInfo8TransferI19StreamedBinaryWriteILb0EEEEvRT_
xSi:__ZN6il2cpp2os19SocketHandleWrapper7ReleaseEv
aig:_BeforeRenderHelper_Invoke_m50072094
nJe:_MethodCall_get_MethodBase_m550047245
edb:__ZNSt3__27__sort4IRNS_6__lessINS_4pairIPKN5Unity4TypeE7Hash128EES8_EEPS8_EEjT0_SC_SC_SC_T_
Xac:__Z33AllocExtractMeshIndicesFromScriptRK4Meshib
loa:__ZNK11NamedObject22GetTypeVirtualInternalEv
yti:_Uri_EscapeString_m2061933484
_oe:_InternalEnumerator_1_System_Collections_IEnumerator_get_Current_m1096730143_gshared
rAd:_Convert_ToDecimal_m3815908452
kkg:_Color_op_Equality_m1112359053
akg:_Color__ctor_m286683560_AdjustorThunk
yKd:_DelegatePInvokeWrapper_ReadDelegate_t714865915
Xvd:_CollectionBase_Clear_m1509125218
Anc:__ZN11IMGUIModule21QueryGUIDisplayTargetE17ScriptingClassPtr
nPi:__ZNSt3__27__sort4IRN6il2cpp5utils11collections13ArrayValueMapIPK10Il2CppType17Il2CppInteropData26InteropDataToTypeConverterNS1_8metadata14Il2CppTypeLessENSA_26Il2CppTypeEqualityComparerEE12SortComparerEPS8_EEjT0_SH_SH_SH_T_
rzj:dynCall_vidi
qMd:_StreamReader_ReadToEnd_m371831293
xpg:_Mathf_RoundToInt_m1874334613
jPd:_MonoCustomAttrs_GetCustomAttributes_m1775925192
Agc:__Z42NoAllocHelpers_CUSTOM_ExtractArrayFromListP12Il2CppObject
NCj:_glVertexAttribPointer__wrapper
mhd:_HMAC_Create_m2148924157
czj:___udivdi3
FCf:_Exception__ctor_m1406832249
t0f:_Enumerator_System_Collections_IEnumerator_get_Current_m2339378585_gshared
Hcc:__ZN11PlayerPrefs9SetStringERKN4core12basic_stringIcNS0_20StringStorageDefaultIcEEEES6_
Vpj:__ZN6il2cpp6icalls8mscorlib6System8Delegate18SetMulticastInvokeEP14Il2CppDelegate
Fve:_Enumerator_VerifyCurrent_m2197239943_gshared
uT:__ZN11UnityEngine15CloudWebService20WebRequestRestClient5BeginEv
C6b:__ZN8Material12CleanupClassEv
dwj:_fseek
sxc:__ZN16memory_pool_implILi40EE15AutoPoolWrapper10InitializeEPv
Vtf:_DateTimeFormatInfo_GetEraName_m3151483707
r7e:_PKCS12_AddCertificate_m3618696508
CM:__ZN20SoundChannelInstance11set3DSpreadEf
h_f:_HashSet_1_Init_m2976925848_gshared
er:__ZNSt3__26__sortIRN11UnityEngine9Animation11BindingSortEPNS_4pairINS2_14GenericBindingEPNS2_10BoundIndexEEEEEvT0_SB_T_
Fee:_HttpsClientStream_U3CHttpsClientStreamU3Em__0_m2058474197
aCd:_Convert_ToUInt32_m2215525276
geb:__ZN24GenerateTypeTreeTransfer32TransferSTLStyleArrayWithElementI16SplashScreenLogoEEvRT_17TransferMetaFlags
VYi:__ZN15dense_hashtableINSt3__24pairIK10KeyWrapperINS1_IPK9FieldInfoP11Il2CppClassEEEjEES9_17ReflectionMapHashIS8_EN14dense_hash_mapIS9_jSD_NS9_14EqualsComparerINS0_8equal_toIS8_EEEENS0_9allocatorISB_EEE9SelectKeyESI_SK_E6insertERKSB_
rne:_InternalEnumerator_1_get_Current_m2680116177_gshared
rNi:__ZN14dense_hash_mapI10KeyWrapperIPKcEP11Il2CppClassN6il2cpp5utils11StringUtils12StringHasherIS2_EENS3_14EqualsComparerINS7_13VmStringUtils21CaseSensitiveComparerEEENSt3__29allocatorINSF_4pairIKS3_S5_EEEEEC2EjRKSA_RKSE_
Rca:__Z37InitializeIntermediateRendererManagerPv
g9i:__ZN6il2cpp2vm13LivenessState16AddProcessObjectEP12Il2CppObjectPS1_
sqf:_String_IndexOfOrdinal_m962178384
nhd:_HMACMD5__ctor_m3129799368
NWd:_TypeBuilder_GetEvent_m2166527753
yad:_Graphic_CrossFadeColor_m678806803
haa:__ZN23DefaultMeshVertexFormatC2E17ShaderChannelMask
Hyb:__ZL26Transfer_SimpleNativeClassI18StreamedBinaryReadILb1EE8GradientLb1EEvRK29SerializationCommandArgumentsR31RuntimeSerializationCommandInfo
fJg:__Z102RuntimeInvoker_Int32_t2950945753_RuntimeObject_Int32_t2950945753_CharU26_t1697032762_SByte_t1669577662PFvvEPK10MethodInfoPvPS4_
yQd:_MonoType_get_Namespace_m2015358851
gii:_IndexedSet_1_RemoveAt_m3002732320_gshared
vxd:_HashKeys_CopyTo_m4219627824
ROe:_InputField_GetLineStartPosition_m2947412579
wua:__ZN7ApiGLES10InvalidateERK14GfxContextGLES
nrj:__GLOBAL__sub_I_Runtime_cpp_38930
_od:_Convert_ToType_m2406080310
dai:_ReadOnlyCollection_1_IndexOf_m2659941036_gshared
x9h:_ReadOnlyCollection_1_System_Collections_IList_set_Item_m3570269385_gshared
fVh:__ZL85Graphic_t1660335611_CustomAttributesCacheGenerator_Graphic_OnPopulateMesh_m2916877004P21CustomAttributesCache
s7c:_DefaultControls_CreateToggle_m1236643913
$3e:_BitConverterLE_ToSingle_m1153793442
bsj:__ZN6il2cpp2os5Mutex7TryLockEjb
LCd:_Int16_System_IConvertible_ToByte_m3161982419
V4:__Z20IsVectorBuiltinParamPKcPi
dfj:__ZN6il2cpp2vm5Field8GetFlagsEP9FieldInfo
Yhd:_MD5CryptoServiceProvider_HashFinal_m2625727830
P_h:_Array_qsort_TisRaycastResult_t3360306849_m3861320071_gshared
Nof:_Single_System_IConvertible_ToUInt32_m289030200
L7i:__ZN6il2cpp6icalls8mscorlib6System10ReflectionL16LoadResourceFileEP24Il2CppReflectionAssembly
vAf:_Double_System_IConvertible_ToDouble_m3692611612
g0:__Z13IsFileCreatedRKN4core12basic_stringIcNS_20StringStorageDefaultIcEEEE
z$e:_Text_OnPopulateMesh_m1525268284
JJd:_FileStream_FlushBuffer_m914568182
r4a:__ZN16LightmapSettings18TransferDeprecatedI14SafeBinaryReadEEvRT_
g7f:_StringBuilder_AppendFormat_m921870684
$ej:__ZN15dense_hashtableINSt3__24pairIK10KeyWrapperIP12Il2CppObjectEN6il2cpp2gc9CachedCCWEEES5_NS7_5utils11PointerHashIS3_EEN14dense_hash_mapIS5_S9_SD_NS5_14EqualsComparerINS0_8equal_toIS4_EEEENS0_9allocatorISA_EEE9SelectKeyESI_SK_E5eraseE30dense_hashtable_const_iteratorISA_S5_SD_SM_SI_SK_E
ywd:_Hashtable__ctor_m1684344284
ry:__ZThn152_NK26AnimatorControllerPlayable41GetStateMachineBehaviourVectorDescriptionEv
tld:_Activator_CheckAbstractType_m2015247896
Vif:_RSACryptoServiceProvider_ImportParameters_m614616705
I7:__GLOBAL__sub_I_runtime_camera_renderloops_1_cpp
Cde:_SslHandshakeHash_CreateSignature_m1634235041
qye:_ShimEnumerator_get_Current_m3504536618_gshared
bUa:__ZN12FlareManager9AddCameraER6Camera
aYc:__ZN15UnityWebRequestD0Ev
ATe:_LayoutRebuilder_U3CRebuildU3Em__3_m523803689
tN:__ZN11AudioSource8TransferI14SafeBinaryReadEEvRT_
tJd:_FileNotFoundException__ctor_m2477162036
zVf:_EqualityComparer_1__cctor_m149356781_gshared
Exf:_Decimal_System_IConvertible_ToDouble_m3125524987
ov:__ZN7mecanim9animation23TransformDeltasFromClipEiiiRKNS0_18ClipMuscleConstantERKNS0_12ClipBindingsERKNS_14ValueArrayMaskERN4math4trsXESC_SC_
uBb:__Z18Transfer_BlittableI18StreamedBinaryReadILb0EELb0E12PropertyNameEvRK29SerializationCommandArgumentsR31RuntimeSerializationCommandInfo
izj:___divdi3
fma:__ZN9ShaderLab9IntShader26CreateFromSerializedShaderERKNS_16SerializedShaderERNSt3__26vectorI4PPtrI6ShaderENS4_9allocatorIS8_EEEEbPS7_
Joi:_Match_get_Empty_m2060287462
fnb:__ZN19ShaderPropertySheet16SetComputeBufferEN9ShaderLab16FastPropertyNameE15ComputeBufferIDNS_8SetFlagsE
erg:_U3CInvokeMessageIdSubscribersU3Ec__AnonStorey0_U3CU3Em__0_m444206473
FRf:_Dictionary_2_ContainsValue_m256968015_gshared
sjj:__ZNK15dense_hashtableINSt3__24pairIK10KeyWrapperIPK19Il2CppGenericMethodEP10MethodInfoEES6_N6il2cpp8metadata23Il2CppGenericMethodHashEN14dense_hash_mapIS6_S9_SD_NS6_14EqualsComparerINSC_26Il2CppGenericMethodCompareEEENS0_9allocatorISA_EEE9SelectKeyESH_SJ_E5beginEv
Vhe:_ArrayReadOnlyList_1_get_Item_m1974867852_gshared
tcd:_Image_AddQuad_m969836764
m0e:_MSCompatUnicodeTable_IsIgnorableNonSpacing_m47098938
Lih:_Collection_1_IsSynchronized_m2655903966_gshared
pFd:_Int32_System_IConvertible_ToSingle_m896140682_AdjustorThunk
sv:__ZN7mecanim21CreateFloatValueArrayEPKNS_18ValueArrayConstantERNS_6memory9AllocatorE
uWb:__ZL12CullGroupJobP20CullingGroupsJobDataj
znj:_GC_remove_dangling_disappearing_links
lU:__ZN11UnityEngine15CloudWebService14RestDownloader9IsAbortedEv
Ay:__ZN7mecanim12statemachine28DestroyStateMachineWorkspaceEPNS0_21StateMachineWorkspaceERNS_6memory9AllocatorE
qoc:__Z30GUIStyle_CUSTOM_SetDefaultFontP12Il2CppObject
owe:_Enumerator_System_Collections_IDictionaryEnumerator_get_Key_m3435754782_AdjustorThunk
io:FUNCTION_TABLE_f
Wo:FUNCTION_TABLE_i
Jri:_AnchorInfo_get_Position_m1133366486
oMd:_StreamReader_FindNextEOL_m2574298119
Qfa:__ZN11TypeManager12RegisterTypeERK20TypeRegistrationDesc
Bn:FUNCTION_TABLE_v
iab:__ZNSt3__26vectorI17BlendShapeChannelNS_9allocatorIS1_EEE8__appendEj
Ep:__ZN18StreamedBinaryReadILb0EE21TransferSTLStyleArrayI13dynamic_arrayI8Vector3fLj4EEEEvRT_17TransferMetaFlags
KKb:__ZZ23InitPlayerLoopCallbacksvEN43PostLateUpdateUpdateAllRenderersRegistrator7ForwardEv
ghb:__ZN21LightProbeProxyVolume13GetRenderDataER27LightProbeProxyVolumeSample
rGe:_Context_get_ContextProperties_m3283598326
Oeh:_Collection_1_System_Collections_IList_set_Item_m4249768453_gshared
uGi:_Keyboard_PlayRandomSound_m629210842
Mcb:__ZN11TimeManager8TransferI24GenerateTypeTreeTransferEEvRT_
hqc:__ZN8JSONRead8TransferItEEvRT_PKc17TransferMetaFlagsb
Rr:__ZNK11UnityEngine9Animation28GenericAnimationBindingCache10BindCustomERKNS0_14GenericBindingER9TransformRNS0_10BoundCurveE
lXi:__ZN6il2cpp2vm17TypeNameParseInfoC2ERKS1_
xVc:__ZN18UnityConnectClient17InitConnectClientEv
Fuj:_memcmp
DCd:_GuidParser_ParseHexPrefix_m3148550086
rUc:__ZN11UnityEngine7Connect18ConnectSessionInfo8TransferER9JSONWrite
qQ:__Z74Register_UnityEngine_AudioListener_INTERNAL_CALL_ReadExtensionPropertyNamev
t_h:_Array_InternalArray__set_Item_TisHitInfo_t3229609740_m1576844560_gshared
acb:__ZN9Scripting32GetCachedPtrFromScriptingWrapperE18ScriptingObjectPtr
bge:_SslClientStream_OnBeginNegotiateHandshake_m3734240069
kPc:__ZN2UI29ScheduleUIJobsForInstructionsERNS_7BatchesEjPKNS_13UIInstructionEfjjPNS_13CanvasJobDataE
$K:__ZN5audio5mixer22CreateAudioMixerMemoryERKNS0_18AudioMixerConstantEPN4FMOD6SystemERN7mecanim6memory9AllocatorEib
wEb:__ZL65EmitSerializationCommandsForLinearCollectionOfManagedObjectsFieldRK31TransferFunctionScriptingTraitsRK23TransferArrayField_InfoR20SerializationCommandR32SerializationCommandQueueBuilderRP20AllowNameConversions
X1h:_LayoutGroup_SetProperty_TisInt32_t2950945753_m3911895589_gshared
cV:__ZN11UnityEngine15CloudWebService19SessionEventManager31SetupNextActiveSessionContainerEv
KCg:__Z121RuntimeInvoker_Void_t1185182177_Int32_t2950945753_Int32_t2950945753_Int32_t2950945753_SByte_t1669577662_SByte_t1669577662PFvvEPK10MethodInfoPvPS4_
mKg:__Z52RuntimeInvoker_Single_t1397266774_Single_t1397266774PFvvEPK10MethodInfoPvPS4_
lud:_FixedSizeArrayListWrapper_InsertRange_m1706982628
Ngg:_UIntPtr_ToString_m984583492_AdjustorThunk
mIb:__ZL20ShaderWarmupFuncImplP6ShaderiPN9ShaderLab4PassERK16ShaderKeywordSetP10DynamicVBOPvR17ShaderPassContext
kJb:__ZN13GfxDeviceGLESC2E10MemLabelId
SGi:_TextGenerationSettings_Equals_m3618607189
dPi:__ZN15dense_hashtableI10KeyWrapperIPK17Il2CppGenericInstES4_N6il2cpp8metadata21Il2CppGenericInstHashEN14dense_hash_setIS4_S7_NS4_14EqualsComparerINS6_24Il2CppGenericInstCompareEEENSt3__29allocatorIS4_EEE8IdentityESB_SE_E6insertERKS4_
kYi:__ZN15dense_hashtableINSt3__24pairIK10KeyWrapperINS1_IPK14Il2CppAssemblyP11Il2CppClassEEEjEES9_17ReflectionMapHashIS8_EN14dense_hash_mapIS9_jSD_NS9_14EqualsComparerINS0_8equal_toIS8_EEEENS0_9allocatorISB_EEE9SelectKeyESI_SK_E3endEv
j9f:_NativeEventCalls_ResetEvent_internal_m885886540
APd:_MonoEnumInfo_get_enum_info_m1661176095
ivi:_GUIUtility_CheckOnGUI_m3924092168
wva:__ZN14DataBufferGLES12RecordUpdateEv
$je:_InternalEnumerator_1_get_Current_m1481634550_gshared
uKc:__ZN20TextRenderingPrivate15DynamicFontData28GetFaceForFontRefFromOSFontsERKNS_7FontRefE
dde:_Context_ClearKeyInfo_m1155154290
jtg:_Ray_GetPoint_m1852405345
Ifj:__ZN6il2cpp2vm12GenericClass12SetupMethodsEP11Il2CppClass
amb:__ZNK20LocalFileSystemPosix18GetApplicationPathEv
R8g:_List_1_set_Item_m658432263_gshared
tEb:__ZN9Scripting30IsSystemCollectionsGenericListE17ScriptingClassPtr
_1:__ZN21ScalableBufferManager20GetHeightScaleFactorEv
uSf:_Dictionary_2_Add_m1279427033_gshared
FPc:__ZN2UI23InitializeCanvasManagerEv
wQa:__ZN10GameObject16CheckConsistencyEv
B1c:_PointerInputModule_GetMousePointerEventData_m4273240034
y4b:__ZN14RenderSettings15InitializeClassEv
z3c:_AspectRatioFitter_set_aspectMode_m4140288987
rgc:__Z46Register_UnityEngine_GameObject_get_activeSelfv
Aya:__ZL35stbir__resample_horizontal_upsampleP11stbir__infoPf
c0g:__Z82RuntimeInvoker_RuntimeObject_RaycastResult_t3360306849_RuntimeObject_RuntimeObjectPFvvEPK10MethodInfoPvPS4_
Dah:_Enumerator__ctor_m3419056812_AdjustorThunk
Cpe:_InternalEnumerator_1_System_Collections_IEnumerator_get_Current_m1299775605_gshared
Qtb:__Z18Transfer_BlittableI24GenerateTypeTreeTransferLb0E10ColorRGBAfEvRK29SerializationCommandArgumentsR31RuntimeSerializationCommandInfo
STf:_DefaultComparer_Equals_m1713730345_gshared
kOc:__ZN2UI16GetCanvasManagerEv
abc:__ZN15GUIEventManager8PopEventER10InputEvent
Ggc:__Z31RectOffset_Get_Custom_PropRightP12Il2CppObject
KMc:__Z54Register_UnityEngine_TextGenerator_GetVerticesInternalv
mid:__Z3BoxP11Il2CppClassPv
rog:_Input_get_touchSupported_m1480684970
qbd:_GridLayoutGroup_SetLayoutVertical_m2106427802
Iqg:_MonoBehaviour_StartCoroutine_m3411253000
mGa:__ZN21UniformBufferTFMethodD2Ev
ape:_InternalEnumerator_1_System_Collections_IEnumerator_get_Current_m1096730143_AdjustorThunk
gdc:__ZL34GetComponentsImplementationRecurseILb1ELi1ELi2EEbR10GameObjectbRK17CompareParametersRK39GetComponentsImplementation_ReturnValue
fza:__ZN6prcoreL12RemapGenericI15TexFormatRGB56515TexFormatRGB888EEvPKNS_9InnerInfoE
qqj:__ZN6il2cpp5utils10MemoryPool9AddRegionEj
Fcf:_X509Certificate2__ctor_m3336405942
nad:_Graphic_get_workerMesh_m997382591
qlc:__Z38PlayableHandle_CUSTOM_IsValid_InjectedP9HPlayable
Jmd:_Array_System_Collections_IList_RemoveAt_m41405158
DGh:__ZL89GameObject_t1113636619_CustomAttributesCacheGenerator_GameObject_GetComponent_m1027872079P21CustomAttributesCache
q5c:_CanvasUpdateRegistry_IsRebuildingLayout_m3530790142
LQc:__Z41CanvasGroup_Get_Custom_PropBlocksRaycastsP12Il2CppObject
nlj:__ZN6il2cpp2os11Environment17GetProcessorCountEv
Iha:__ZNSt3__26vectorIN9ShaderLab26SerializedShaderDependencyENS_9allocatorIS2_EEE8__appendEj
Vaa:__ZN32TransformHierarchyChangeDispatch26DispatchSelfAndAllChildrenE15TransformAccessNS_12InterestTypeE
wQ:__Z46Register_UnityEngine_AudioSource_get_isPlayingv
rTc:__ZN11UnityEngine15PlatformWrapper21GetVRDeviceMirrorModeEv
$_c:_EventSystem_OnEnable_m3237278246
cca:__ZN13RuntimeStaticI22VirtualJoystickManagerLb0EE13StaticDestroyEPv
Egf:_Interpreter_Balance_m1978770534
zH:__ZN13AudioListener12ApplyFiltersEv
Z8g:_List_1_System_Collections_IList_Contains_m353431064_gshared
UAi:_AudioConfigurationChangeHandler_BeginInvoke_m4104069447
Zrj:__ZN6il2cpp8metadata27Il2CppGenericContextCompare7CompareEPK20Il2CppGenericContextS4_
rAj:dynCall_viiii
XDf:_CompareInfo_IsPrefix_m796715920
cLi:__ZNK15dense_hashtableINSt3__24pairIK10KeyWrapperIPK22Il2CppGenericParameterEP11Il2CppClassEES6_N6il2cpp5utils11PointerHashIS4_EEN14dense_hash_mapIS6_S9_SE_NS6_14EqualsComparerINS0_8equal_toIS5_EEEENS0_9allocatorISA_EEE9SelectKeyESJ_SL_E23find_position_with_hashERS7_j
K6d:_PrimalityTest_Invoke_m2948246884
zMb:__Z11CopyTextureP7TextureiiS0_ii
pie:_ArrayReadOnlyList_1_Contains_m2459654648_gshared
PRh:__ZL65EventTrigger_t1076084509_CustomAttributesCacheGenerator_delegatesP21CustomAttributesCache
pXi:__ZNSt3__214__split_bufferIN6il2cpp2vm17TypeNameParseInfoERNS_9allocatorIS3_EEED2Ev
a8g:_List_1_System_Collections_IList_Contains_m3717811284_gshared
p0d:_MonoEvent_get_Attributes_m3048829315
Zub:__Z22TransferField_NonArrayI24GenerateTypeTreeTransfer27Converter_SimpleNativeClassI8GUIStyleEEvRK23StaticTransferFieldInfoR31RuntimeSerializationCommandInfoRT0_
Uea:__ZN15DirectorManager14ConnectionPool16GrowEmptyBucketsEv
Evd:_CaseInsensitiveHashCodeProvider_AreEqual_m3534448780
SY:__ZN17PersistentManager32CopyToAwakeFromLoadQueueInternalER18AwakeFromLoadQueue
i7b:__ZN10GameObject15InitializeClassEv
eMg:__Z104RuntimeInvoker_Boolean_t97287965_Int32_t2950945753_Int64U5BU5DU26_t194432655_StringU5BU5DU26_t2154486980PFvvEPK10MethodInfoPvPS4_
hLg:__Z106RuntimeInvoker_RuntimeObject_Int16_t2552820387_RuntimeObject_BooleanU26_t4125257963_BooleanU26_t4125257963PFvvEPK10MethodInfoPvPS4_
fMb:__ZNK6Camera16SetActiveVRUsageEv
pWe:_Scrollbar_set_handleRect_m1170237786
euc:__ZL26Transfer_SimpleNativeClassI8JSONRead8GradientLb1EEvRK29SerializationCommandArgumentsR31RuntimeSerializationCommandInfo
gvj:_open
Rni:_X509CrlEntry_get_SerialNumber_m3627212772
m7i:__ZN6il2cpp6icalls8mscorlib6System5Array5CloneEP11Il2CppArray
BZb:__Z30GetPlayerShouldRunInBackgroundv
XPc:__Z13RegisterClassIN2UI6CanvasEEvv
Gpg:_Mathf__cctor_m1175545152
w0d:_MonoEvent_IsDefined_m10931749
Q8e:_NameValueCollection_AsSingleString_m3776180906
$ya:__ZN6prcoreL12RemapGenericI11TexFormatI815TexFormatRGB565EEvPKNS_9InnerInfoE
kFd:_Int32_System_IConvertible_ToInt64_m3520470966
Dua:__ZNK13TranslateGLES17FramebufferTargetEN2gl17FramebufferTargetE
lij:__ZL11on_gc_event11GCEventType
Wpe:_InternalEnumerator_1_System_Collections_IEnumerator_get_Current_m1612699335_gshared
Xbe:_TlsServerHello__ctor_m3887266572
Pkg:_Coroutine_ReleaseCoroutine_m809189848
BEj:b62
mEj:b61
oDj:b60
SFj:b67
RFj:b66
GEj:b65
UFj:b69
TFj:b68
soi:_Enumerator_get_Current_m359737019
uTa:__ZNSt3__26__treeINS_12__value_typeIi17ShadowCachingDataEENS_19__map_value_compareIiS3_NS_4lessIiEELb1EEE13stl_allocatorIS3_L18MemLabelIdentifier66ELi16EEE7destroyEPNS_11__tree_nodeIS3_PvEE
Tod:_BitConverter_ToInt64_m349022421
rbc:__Z9SetIIMGUIP6IIMGUI
l4g:_List_1_System_Collections_IList_Add_m1142950911_gshared
hEc:_tt_cmap10_get_info
VGb:__Z28SetupPixelCorrectCoordinatesi
m9b:__ZNSt3__218__insertion_sort_3IRN10vector_mapIiiNS_4lessIiEE13stl_allocatorINS_4pairIiiEEL18MemLabelIdentifier1ELi16EEE13value_compareEPS6_EEvT0_SD_T_
Yua:__Z5SplitRKN4core12basic_stringIcNS_20StringStorageDefaultIcEEEEcRNSt3__26vectorIS3_NS6_9allocatorIS3_EEEEi
qnb:__ZN11MonoManager23VirtualRedirectTransferER24GenerateTypeTreeTransfer
jyi:_AesTransform__ctor_m3143546745
wIf:_Array_InternalArray__ICollection_Remove_TisRuntimeObject_m2110193223_gshared
APh:__ZL64EventType_t3528516131_CustomAttributesCacheGenerator_scrollWheelP21CustomAttributesCache
rqg:_Mesh_SetTangents_m1615111656
N8b:__ZN13PlayableGraph16DestroyRecursiveEP8Playable
E9i:__ZN6il2cpp2vm9Exception20GetArgumentExceptionERKNS_5utils10StringViewIDsEES6_
R9g:_Enumerator_System_Collections_IEnumerator_Reset_m1487823313_AdjustorThunk
FJe:_MethodCallDictionary__cctor_m2213329406
KH:__ZN12AudioManagerD0Ev
cPe:_InputField_set_textComponent_m2547304131
Tb:invoke_viiififii
R0e:_SortKeyBuffer_Initialize_m3786111493
Qva:__ZN10Matrix3x3faSERK10Matrix4x4f
EZh:__ZL58IVertexModifier_t3404627876_CustomAttributesCacheGeneratorP21CustomAttributesCache
vdb:__ZNK22GenericPropertyBinding13SetFloatValueERKN11UnityEngine9Animation10BoundCurveEf
u5f:_Encoding__cctor_m1936558127
a6g:_List_1__ctor_m163821521_gshared
Qhd:_MD5_Create_m3289886172
Lsg:_QualitySettings_set_vSyncCount_m3131636076
Olf:_X509Certificate_get_Subject_m2638144878
RKc:_raccess_guess_darwin_ufs_export
uig:_AsyncOperation_Finalize_m1841265672
dKb:__ZN11TypeManager18InitializeAllTypesEv
LOe:_InputField_MarkGeometryAsDirty_m817808086
ZSe:_LayoutGroup_get_isRootLayoutGroup_m1082645254
FF:__ZN9AudioClipD0Ev
z3i:_il2cpp_class_from_name
uVb:__ZN13dynamic_arrayI11ActiveLightLj4EE26emplace_back_uninitializedEv
IVe:_RectMask2D_OnDisable_m809267607
Vze:_Enumerator_MoveNext_m2602845255_AdjustorThunk
tah:_Queue_1__ctor_m1971992302_gshared
fx:__ZN27AnimationLayerMixerPlayable26ProcessAnimationLayerBeginEP35AnimationPlayableEvaluationConstantP32AnimationPlayableEvaluationInputP33AnimationPlayableEvaluationOutput
v2b:__Z13RegisterClassI8GUILayerEvv
F0b:__ZN25ThreadsafeLinearAllocatorC2EiiPKc
Wpg:_Mesh_GetIndicesImpl_m3233954035
WPd:_MonoType_GetEvent_m28975240
LCa:__ZN14GfxContextGLES11MakeCurrentER7ApiGLESN2gl13ContextHandleE
i_h:_Array_InternalArray__set_Item_TisUInt16_t2177724958_m1951465847_gshared
fKd:_MonoIO_Write_m3999708352
GBj:dynCall_viffffi
sOf:_Array_InternalArray__ICollection_CopyTo_TisChar_t3634460470_m3599063464_gshared
i8f:_UTF7Encoding_InternalGetChars_m2722395139
xuf:_DateTime_get_Today_m2788644320
jIb:__ZN16GraphicsSettings22WarmupPreloadedShadersEv
ZRc:__Z34Canvas_Set_Custom_PropSortingOrderP12Il2CppObjecti
ued:_SByte_System_IConvertible_ToSingle_m1083054891
noi:_CostDelegate_Invoke_m898648402
b8f:_UTF7Encoding_Equals_m227704363
Vlg:_DisplaysUpdatedDelegate_Invoke_m3203573844
mCb:__ZN18StreamedBinaryReadILb0EE8TransferI13dynamic_arrayI12PropertyNameLj4EEEEvRT_PKc17TransferMetaFlags
yma:__ZN9ShaderLab4Pass6RetainEv
T4e:_KeyPairPersistence_get_ContainerName_m4274536094
Wv:__ZN7mecanim9animation22CopyAnimationNodeStateEPKNS0_18AnimationNodeStateEPS1_bbRKNS_6bitsetILj83EEE
ocb:__Z10AddGUIAxesR13dynamic_arrayI9InputAxisLj4EE
ab:invoke_iiiiiiffiiiiiiiiiffffiii
kug:_Rect_op_Equality_m3986168348
mxe:_Enumerator_System_Collections_IDictionaryEnumerator_get_Key_m4039922590_AdjustorThunk
mNc:__ZN2UI6Canvas8TransferI14SafeBinaryReadEEvRT_
wZi:__ZN6il2cpp2gc19AppendOnlyGCHashMapIPK10Il2CppTypeP20Il2CppReflectionTypeNS_8metadata14Il2CppTypeHashENS7_26Il2CppTypeEqualityComparerEE3AddERKS4_S6_
oR:__ZN11UnityEngine15CloudWebService17CloudJobScheduler11ScheduleJobEPFvPvES2_
n1e:_SimpleCollator_IsSuffix_m1291687763
yS:__ZN11UnityEngine15CloudWebService17CloudServiceEvent12ToJsonStringER9JSONWrite
vbe:_TlsClientHello__ctor_m1986768336
Hca:__ZNK18VertexChannelsInfoltERKS_
ENg:__Z89RuntimeInvoker_Boolean_t97287965_Int32_t2950945753_Int32U26_t1369213839_Int32_t2950945753PFvvEPK10MethodInfoPvPS4_
Rbc:__Z18SetTargetFrameRatei
trd:_Char_System_IConvertible_ToType_m4138905176_AdjustorThunk
dqc:__ZN9JSONWrite8TransferIfEEvRT_PKc17TransferMetaFlags
Swf:_DBNull_System_IConvertible_ToUInt16_m643477279
UOa:__ZN10MemoryFileD0Ev
Xcc:__ZN10MonoScript27InitializeAndRegisterScriptERKN4core12basic_stringIcNS0_20StringStorageDefaultIcEEEES6_S6_S6_b
zhj:__ZN6il2cpp2os10ThreadImpl22SetNativeThreadCleanupEPFvPvE
awf:_DateTimeOffset__cctor_m3610253033
xDf:_NumberFormatInfo_get_InvariantInfo_m349577018
_qd:_Byte_CompareTo_m4285128861_AdjustorThunk
QFe:_ConfigHandler_ExtractAssembly_m2143791058
Mdj:__ZN6il2cpp8metadataL24RecursiveGenericDepthForEPK17Il2CppGenericInst
syg:_Transform_GetChild_m1092972975
Qpb:__ZN13GUIStyleState8TransferI14SafeBinaryReadEEvRT_
Md:_glDrawArrays
RAi:_AudioSource_get_clip_m1234340632
v3d:_ResourceCacheItem_t51292791_marshal_pinvoke_back
TD:__ZN23AnimatedPropertyBuilder5BuildEP13AnimationClip18ScriptingObjectPtr
yab:__ZN14BlendShapeData8TransferI18StreamedBinaryReadILb0EEEEvRT_
UFc:_Round_To_Grid
LEc:_UNITY_FT_Stream_Close
r$c:_EventTrigger_OnPointerClick_m1385968891
Ifg:_UInt32_ToString_m4293943134_AdjustorThunk
Evg:_Renderer_get_sortingLayerID_m3902855301
Khf:_Interval_CompareTo_m3282557545_AdjustorThunk
que:_Comparer_1__cctor_m1018589532_gshared
VLg:__Z54RuntimeInvoker_TimeSpan_t881159249_TimeSpan_t881159249PFvvEPK10MethodInfoPvPS4_
nga:__ZL20FormatOrderedProcessPKcP17FormatOrderedDataPc
TOf:_Array_InternalArray__ICollection_CopyTo_TisResourceCacheItem_t51292791_m766230259_gshared
_rf:_Decoder_set_Fallback_m3834517714
Ofc:__Z35DebugLogHandler_CUSTOM_Internal_Log7LogTypeP12Il2CppStringP12Il2CppObject
nca:__ZNSt3__26__treeINS_12__value_typeI18VertexChannelsInfoP16MeshVertexFormatEENS_19__map_value_compareIS2_S5_NS_4lessIS2_EELb1EEE13stl_allocatorIS5_L18MemLabelIdentifier17ELi16EEE7destroyEPNS_11__tree_nodeIS5_PvEE
hYh:__ZL76CanvasScaler_t2767979955_CustomAttributesCacheGenerator_m_MatchWidthOrHeightP21CustomAttributesCache
zEj:_emscripten_glShaderBinary__wrapper
UBa:__ZL17ProgramUniform3ivPK7ApiGLESjiihPKv
$sd:_ArrayList_Shift_m395607654
Bqa:__ZN9GfxDevice25GetBackBufferColorSurfaceEv
lPa:__ZN25SingleBlockMemoryFileData9SetLengthEy
z9b:__Z29AwakeAndActivateClonedObjectsPP6ObjectRK10vector_mapIiiNSt3__24lessIiEE13stl_allocatorINS3_4pairIiiEEL18MemLabelIdentifier1ELi16EEE
l2i:__ZN15dense_hashtableINSt3__24pairIK10KeyWrapperINS1_IPK10MethodInfoP11Il2CppClassEEEjEES9_17ReflectionMapHashIS8_EN14dense_hash_mapIS9_jSD_NS9_14EqualsComparerINS0_8equal_toIS8_EEEENS0_9allocatorISB_EEE9SelectKeyESI_SK_E14squash_deletedEv
x4e:_KeyGeneratedEventHandler_Invoke_m4131555809
s1b:__Z13RegisterClassI6ShaderEvv
vrf:_String_CharCopyReverse_m1548661297
mZc:__ZN13RuntimeStaticI11WindManagerLb0EE13StaticDestroyEPv
yrc:__Z18Transfer_BlittableI9JSONWriteLb1EaEvRK29SerializationCommandArgumentsR31RuntimeSerializationCommandInfo
g2i:__ZN13Il2CppHashMapINSt3__24pairIPK10MethodInfoP11Il2CppClassEEj17ReflectionMapHashIS7_ENS0_8equal_toIS7_EENS0_9allocatorINS1_IK10KeyWrapperIS7_EjEEEEEC2EjRKS9_RKSB_
VPb:__ZN11HaloManager11HasAnyHalosEPK11CullResults
G8a:__ZN9Texture3D23VirtualRedirectTransferER19StreamedBinaryWriteILb0EE
Wnj:_GC_reclaim_block
dP:__Z13RegisterClassI10SampleClipEvv
QLg:__Z81RuntimeInvoker_Void_t1185182177_Int32_t2950945753_Int32_t2950945753_RuntimeObjectPFvvEPK10MethodInfoPvPS4_
LSb:__ZNK23ForwardShaderRenderLoop18RenderObjectSorterILb1EEclERK21ForwardRenderPassDataS4_
uvd:_CaseInsensitiveComparer__ctor_m1508720200
JQi:__ZN15dense_hashtableI10KeyWrapperIPK19Il2CppGenericMethodES4_N6il2cpp8metadata23Il2CppGenericMethodHashEN14dense_hash_setIS4_S7_NS4_14EqualsComparerINS6_26Il2CppGenericMethodCompareEEENSt3__29allocatorIS4_EEE8IdentityESB_SE_E12maybe_shrinkEv
gHa:__ZN10BufferGLES10BeginWriteEjj
HQi:__ZNK15dense_hashtableI10KeyWrapperIPK19Il2CppGenericMethodES4_N6il2cpp8metadata23Il2CppGenericMethodHashEN14dense_hash_setIS4_S7_NS4_14EqualsComparerINS6_26Il2CppGenericMethodCompareEEENSt3__29allocatorIS4_EEE8IdentityESB_SE_E12test_deletedEj
fB:__ZN7mecanim12statemachine18StateMachineMemory8TransferI9BlobWriteEEvRT_
JPa:__ZN20ArchiveStorageReader10InitializeER15FileSystemEntryyb
T4i:__GLOBAL__sub_I_ArrayMetadata_cpp
fHa:__ZN7ApiGLES11FlushBufferEjN2gl12BufferTargetEll
WLh:__ZL100NativeContainerSupportsDeallocateOnJobCompletionAttribute_t1683066125_CustomAttributesCacheGeneratorP21CustomAttributesCache
Mqb:__ZN14SafeBinaryRead21TransferSTLStyleArrayI13dynamic_arrayI8BitFieldLj4EEEEvRT_17TransferMetaFlags
sDa:__ZN12_GLOBAL__N_127PrepareReadback_ResolveMSAAER18GfxFramebufferGLESR7ApiGLESP17RenderSurfaceGLESS5_
c6b:__ZNK24RendererAnimationBinding9BindValueER6ObjectRKN11UnityEngine9Animation14GenericBindingERNS3_10BoundCurveE
mZd:_TypeBuilder_has_ctor_method_m2987175843
Me:_glBindBuffer
ZBb:__ZN8GUIStyle8TransferI18StreamedBinaryReadILb0EEEEvRT_
bme:_InternalEnumerator_1_get_Current_m3500427238_gshared
qda:__ZNSt3__213__stable_sortIRN10vector_mapIijNS_4lessIiEENS_9allocatorINS_4pairIijEEEEE13value_compareENS_11__wrap_iterIPS6_EEEEvT0_SE_T_NS_15iterator_traitsISE_E15difference_typeEPNSH_10value_typeEi
oeb:__ZN10VRSettings8Daydream8TransferI18StreamedBinaryReadILb0EEEEvRT_
iXa:__ZNSt3__218__insertion_sort_3IRNS_6__lessIN4core12basic_stringIcNS2_20StringStorageDefaultIcEEEES6_EEPS6_EEvT0_SA_T_
sBe:_ValueCollection_System_Collections_Generic_ICollectionU3CTValueU3E_Remove_m1748672125_gshared
suj:_isupper
U$a:__ZNSt3__26__treeINS_12__value_typeIN9ShaderLab16FastPropertyNameEN18UnityPropertySheet11UnityTexEnvEEENS_19__map_value_compareIS3_S6_NS_4lessIS3_EELb1EEENS_9allocatorIS6_EEE7destroyEPNS_11__tree_nodeIS6_PvEE
W5h:_ReadOnlyCollection_1_System_Collections_IList_Clear_m108858531_gshared
iHg:__Z102RuntimeInvoker_RuntimeObject_Int32_t2950945753_RuntimeObject_RuntimeObject_RuntimeObject_RuntimeObjectPFvvEPK10MethodInfoPvPS4_
kxi:_GUIUtility_set_guiIsExiting_m1558910088
qbe:_Context_Clear_m2678836033
dWd:_DerivedType_IsDefined_m3906894566
WRi:__ZN6il2cpp2vm13MetadataCache24GetExportedTypeFromIndexEi
SXg:__Z54RuntimeInvoker_Void_t1185182177_RaycastHit_t1056001966PFvvEPK10MethodInfoPvPS4_
Gpc:__ZN5Unity9rapidjson6WriterI16TempBufferWriterNS0_4UTF8IcEES4_13JSONAllocatorE9WriteUintEj
Xwj:_getuid
_D:__ZN7mecanim5human8BoneNameEj
_2b:__Z13RegisterClassI10MonoScriptEvv
Opg:_Matrix4x4_GetColumn_m461504848_AdjustorThunk
kDd:_Int16_System_IConvertible_ToUInt64_m134975563_AdjustorThunk
iJc:__ZN20TextRenderingPrivate8FontImpl8TransferI18StreamedBinaryReadILb0EEEEvRT_
FYe:_ScrollRect_UpdateScrollbarVisibility_m4226977273
DTi:__ZN6il2cpp6icalls8mscorlib6System8MonoType22get_IsGenericParameterEP20Il2CppReflectionType
Du:__ZN7mecanim5human14HumanPoseClearERNS0_9HumanPoseE
C6e:_SymmetricTransform_TransformFinalBlock_m4059448527
VBd:_Convert_ToUInt16_m3216249716
q0a:__ZN18StreamedBinaryReadILb0EE19TransferSTLStyleMapINSt3__23mapIN9ShaderLab16FastPropertyNameE10ColorRGBAfNS2_4lessIS5_EENS2_9allocatorINS2_4pairIKS5_S6_EEEEEEEEvRT_17TransferMetaFlags
Bta:__ZN13GfxDeviceGLES24DrawBufferRangesPlatformEP9GfxBufferiPK18VertexStreamSourceiPK16DrawBuffersRangeiP17VertexDeclaration17ShaderChannelMaskjb
Eah:_Enumerator_System_Collections_IEnumerator_Reset_m4269083576_gshared
$Ke:_SoapServices_EncodeNs_m635167772
tZb:__ZN13RenderManager28AreCamerasUsingMotionVectorsEv
sca:__Z25InitializeLODGroupManagerPv
yoi:_Mark_get_IsDefined_m2539660708
Tsa:__ZN13GfxDeviceGLES12EndStereoEyeE15StereoscopicEye
Ded:_SByte_System_IConvertible_ToUInt64_m4151910932_AdjustorThunk
UMb:__ZNK12ImageFilters28ApplyAfterTransparentFiltersEv
Jng:_GameObject__ctor_m3707688467
eee:_HandshakeMessage_Compare_m2214647946
gVc:__ZN11UnityEngine7Connect15AppRunningEvent12ToJsonStringER9JSONWrite
V0a:__ZN19ShaderPropertySheet5ClearEb
Eif:_RSA_Create_m4065275734
KEf:_CultureInfo_GetCultureInfo_m630276874
sNb:__ZNK6Camera11GetPositionEv
_s:__ZN8Animator19CreatePlayableGraphEv
I$c:_ExecuteEvents_Execute_m3952332304
fIj:_emscripten_glClearDepth__wrapper
Dmb:__ZNK16MemoryFileSystem8FilenameERK13FileEntryData
Qf:_glUniform1fv
Uf:_JS_FileSystem_Sync
uEa:__ZNSt3__26__treeINS_12__value_typeI21GLESRenderTargetSetupN2gl6HandleILNS3_10ObjectTypeE9EEEEENS_19__map_value_compareIS2_S7_NS_4lessIS2_EELb1EEENS_9allocatorIS7_EEE7destroyEPNS_11__tree_nodeIS7_PvEE
m5e:_KeyPairPersistence__IsUserProtected_m438961964
qxa:__ZN4crnd11crnd_deleteINS_13prefix_coding14decoder_tablesEEEvPT_
rwe:_Enumerator_System_Collections_IDictionaryEnumerator_get_Value_m512771145_AdjustorThunk
Oqf:_String_Replace_m1273907647
LLe:_RealProxy_InternalGetProxyType_m2154819545
wDa:__ZN4gles15BlitFramebufferERNS_23BlitFramebufferDrawQuadER9GfxDeviceii9TextureIDiiiiiiii
vRd:_NumberFormatter_NumberToString_m827252518
Sf:__emscripten_sample_gamepad_data
m1b:__Z22DelayedDestroyCallbackP6ObjectPv
Dli:_PKCS12_set_Password_m4088935795
kFg:__Z96RuntimeInvoker_Void_t1185182177_SByte_t1669577662_ByteU5BU5DU26_t4057885439_Int32U26_t1369213839PFvvEPK10MethodInfoPvPS4_
vAg:__Z78RuntimeInvoker_Boolean_t97287965_RuntimeObject_RuntimeObject_SByte_t1669577662PFvvEPK10MethodInfoPvPS4_
ujg:_Camera_get_nearClipPlane_m837839537
U$:__Z34scripting_class_get_declaring_type17ScriptingClassPtr
nVc:__ZN11UnityEngine7Connect20BasePersistentValues13RestoreValuesER8JSONRead
Bcb:__ZN11TimeManagerD0Ev
pvi:_GUIUtility_Internal_GetGUIDepth_m1169824684
DL:__ZN12AudioManager33GetAudioEffectInternalDefinitionsEv
n3a:__ZN9Texture2D16DeleteGfxTextureEv
xlb:__ZN20LocalFileSystemPosix4OpenER13FileEntryData14FilePermission16FileAutoBehavior
bcg:_TimeSpan_Subtract_m1264203589
rQe:_InputField_GetUnclampedCharacterLineFromPosition_m2611553547
a1i:__ZN6il2cpp2gc19AppendOnlyGCHashMapIPK10Il2CppTypeP20Il2CppReflectionTypeNS_8metadata14Il2CppTypeHashENS7_26Il2CppTypeEqualityComparerEEC2Ev
aUd:_CustomAttributeData_GetCustomAttributes_m2141595938
QPi:__ZN15dense_hashtableINSt3__24pairIK10KeyWrapperIN6il2cpp5utils13dynamic_arrayIPK10Il2CppTypeLj4EEEEPFvvEEESA_NS3_8metadata19Il2CppSignatureHashEN14dense_hash_mapISA_SD_SG_NSA_14EqualsComparerINSF_22Il2CppSignatureCompareEEENS0_9allocatorISE_EEE9SelectKeyESK_SM_ED2Ev
bNc:__ZN2UI6Canvas12AddToManagerEv
iDc:_UNITY_tt_face_load_sbit
E6c:_ColorTweenCallback__ctor_m2236520273
$Pd:_MonoType_GetMethodsByName_m2005909471
vzc:_cf2_hint_isTop
uYb:__ZN23ManagedAttributeManager21GetRequiredComponentsE17ScriptingClassPtr
Fji:_TlsCipherSuite_ComputeServerRecordMAC_m3941098609
F6c:_ColorTween_AddOnChangedCallback_m3959760640_AdjustorThunk
wLe:_RemotingServices_Unmarshal_m3744595373
_4h:_ReadOnlyCollection_1_System_Collections_IList_get_Item_m2174806213_gshared
o_b:__Z23InitializeStdConvertersv
ORb:__ZN19ShaderPropertySheet17UpdateTextureInfoEiRK23FastTexturePropertyNamePK10TextureRef
pmf:_SecurityElement_IsValidAttributeName_m713904709
yCc:_ps_unicodes_init
KMd:_StreamWriter_Write_m2487601391
e6b:__ZN13ProduceHelperI14PlayerSettingsLb0EE7ProduceE10MemLabelId18ObjectCreationMode
DKb:__ZZ23InitPlayerLoopCallbacksvEN38PreUpdateCheckTexFieldInputRegistrator7ForwardEv
Exa:__ZN4crnd12crn_unpacker22decode_color_endpointsEv
Vbj:__ZNK10KeyWrapperINSt3__24pairIPKcS3_EEE14EqualsComparerI26NamespaceAndNamePairEqualsEclERKS5_SA_
__d:_FieldInfo_get_IsLiteral_m534699794
Sca:__Z34CleanupIntermediateRendererManagerPv
koi:_X509Stores_Open_m1553467177
Qyf:_Decimal_op_Multiply_m2389849621
Y0c:_PointerEventData_get_eligibleForClick_m3788762543
Qoi:_MatchCollection_get_Count_m1667454419
y9f:_Monitor_Pulse_m82725344
wEf:_CultureInfo_get_NumberFormat_m1244033732
vKd:_FileStream_Dispose_m2599766137
Pkd:_Array_Copy_m1988217701
Njg:_Camera_FireOnPreCull_m2869588437
gh:_JS_WebRequest_GetResponseHeaders
yFb:__ZNSt3__26__treeINS_12__value_typeI26SerializedObjectIdentifieriEENS_19__map_value_compareIS2_S3_NS_4lessIS2_EELb1EEENS_9allocatorIS3_EEE7destroyEPNS_11__tree_nodeIS3_PvEE
gCc:_otv_Script_validate
H1b:__ZN9Scripting18RaiseNullExceptionEPKcz
ifa:__ZN13RuntimeStaticI13RendererSceneLb0EE16StaticInitializeEPv
rh:_glCreateProgram
N0i:__ZN6il2cpp2vm10Reflection7IsFieldEP12Il2CppObject
CWe:_Scrollbar_set_numberOfSteps_m3603299569
RRa:__ZN24GenerateTypeTreeTransfer32TransferSTLStyleArrayWithElementI17SortingLayerEntryEEvRT_17TransferMetaFlags
FDj:_glUniformMatrix3fv__wrapper
yUa:__ZN5Light9SetupHaloEv
tOe:_Text_set_horizontalOverflow_m2473787109
Dyb:__Z18Transfer_BlittableI18StreamedBinaryReadILb1EELb1E12PropertyNameEvRK29SerializationCommandArgumentsR31RuntimeSerializationCommandInfo
I1i:__ZN15dense_hashtableINSt3__24pairIK10KeyWrapperIPK22Il2CppGenericParameterEPK24MonoGenericParameterInfoEES6_N6il2cpp5utils11PointerHashIS4_EEN14dense_hash_mapIS6_SA_SF_NS6_14EqualsComparerINS0_8equal_toIS5_EEEENS0_9allocatorISB_EEE9SelectKeyESK_SM_EC2ERKSP_j
epj:_GC_general_register_disappearing_link
I9:__ZN23TransformChangeDispatch12CleanupClassEPv
icc:__ZN8UserList11SendMessageERK17MessageIdentifier
QRc:__Z33Canvas_Get_Custom_PropScaleFactorP12Il2CppObject
CC:__ZNK26AnimatorControllerPlayable21GetStateMachineMemoryEi
OWa:__ZN17CollisionMeshData20VertexDataHasChangedEv
ipi:_PatternCompiler_Emit_m604664654
jIf:_Array_InternalArray__ICollection_Remove_TisKeyValuePair_2_t3842366416_m278128148_gshared
xSa:__ZNK6Camera16GetTargetTextureEv
C1h:_Component_GetComponentsInChildren_TisRuntimeObject_m35549932_gshared
xYc:__ZNK20UnityWebRequestProtoI24UnityWebRequestTransport16AtomicRefCounter14RedirectHelper14ResponseHelper15DownloadHandler13UploadHandler12HeaderHelper14AsyncOperationE17GetUploadProgressEv
iqf:_String_CompareTo_m3030934538
dqb:__Z35Transfer_Blittable_SingleValueFieldI14SafeBinaryReadyEvRT_R17GeneralMonoObjectRK23StaticTransferFieldInfo
QYa:__ZN8Playable20ClearInputConnectionEi
uOb:__ZN13BatchRenderer12EndLoopFlushEv
Yjd:_X509CertificateEnumerator_System_Collections_IEnumerator_Reset_m2928805663
rac:__ZNK6Sprite11GetInnerUVsE20SpriteRenderDataMode
iD:__ZN11UnityEngine9Animation28DestroyAvatarBindingConstantEPNS0_21AvatarBindingConstantERN7mecanim6memory9AllocatorE
Zef:_X509ChainElementEnumerator_System_Collections_IEnumerator_get_Current_m1913555061
yof:_Single_System_IConvertible_ToDouble_m1584722292_AdjustorThunk
Nwg:_DataUtility_INTERNAL_CALL_GetPadding_m650254139
jvb:__Z29Transfer_Blittable_ArrayFieldI24GenerateTypeTreeTransfer11ColorRGBA32EvRT_R9ArrayInfoRK23StaticTransferFieldInfo
p4b:__ZN16MessageForwarder23RegisterMessageCallbackEiPFvPviR11MessageDataEPKN5Unity4TypeE
V7d:_MD2Managed_HashFinal_m808964912
Uvf:_DateTime_op_Equality_m1022058599
sWa:__ZN4Mesh30AcquireSharedMeshRenderingDataEv
bi:_gmtime
ii:_emscripten_glUniform3i
nua:__ZNK7ApiGLES10GetContextEv
Aob:__Z18Transfer_BlittableI14SafeBinaryReadLb1E5RectTIfEEvRK29SerializationCommandArgumentsR31RuntimeSerializationCommandInfo
Q5a:__ZN15TextureSettings14SetAnisoLimitsEii
Bg:_glGetFramebufferAttachmentParameteriv
cvb:__Z19TransferField_ArrayI24GenerateTypeTreeTransfer27Converter_SimpleNativeClassI10RectOffsetEEvRK23StaticTransferFieldInfoR31RuntimeSerializationCommandInfoRT0_
mgg:_UInt64_System_IConvertible_ToUInt32_m2784653358_AdjustorThunk
JUa:__Z40ConfigureBlockRangesWithMinIndicesPerJobP10BlockRangeii
xAa:__ZN6prcoreL17RemapGenericFloatI18TexFormatARGBFloat15TexFormatRGHalfEEvPKNS_9InnerInfoE
uvi:_GUILayout_Height_m3349769634
vnb:__ZNSt3__26vectorI4PPtrI10MonoScriptE13stl_allocatorIS3_L18MemLabelIdentifier78ELi16EEE8__appendEj
JSe:_LayoutGroup_get_flexibleWidth_m2787597997
Fog:_LayerMask_op_Implicit_m3296792737
r6b:__ZL22PrepareMeshRenderNodesILb1EEvR35RenderNodeQueuePrepareThreadContext
_lb:__ZN20LocalFileSystemPosix5TouchER13FileEntryData
Ksc:__ZN9JSONWrite8TransferI13dynamic_arrayItLj2EEEEvRT_PKc17TransferMetaFlags
zi:_emscripten_glDrawElements
mEd:_NumberFormatter_AppendDecimalString_m10636623
fjg:_Bounds_get_max_m3756577669
tyc:_cf2_blues_init
Mqh:__ZL59ParameterBuilder_t1137139675_CustomAttributesCacheGeneratorP21CustomAttributesCache
ZEj:_glVertexAttrib4fv__wrapper
OT:__ZN11UnityEngine15CloudWebService23WebRequestUploadHandlerD2Ev
DA:__ZN9BlobWriteD2Ev
Nob:__ZL26Transfer_SimpleNativeClassI14SafeBinaryRead8GradientLb0EEvRK29SerializationCommandArgumentsR31RuntimeSerializationCommandInfo
GEg:__Z68RuntimeInvoker_Boolean_t97287965_Int32_t2950945753_SByte_t1669577662PFvvEPK10MethodInfoPvPS4_
jPf:_Array_InternalArray__ICollection_CopyTo_TisRaycastHit2D_t2279581989_m3542049333_gshared
WSd:_Assembly_GetExecutingAssembly_m4021024968
MPe:_InputField_ClampPos_m2625258136
HNi:__ZNK15dense_hashtableINSt3__24pairIK10KeyWrapperIPKcEP11Il2CppClassEES5_N6il2cpp5utils11StringUtils12StringHasherIS4_EEN14dense_hash_mapIS5_S8_SE_NS5_14EqualsComparerINSB_13VmStringUtils21CaseSensitiveComparerEEENS0_9allocatorIS9_EEE9SelectKeyESJ_SL_E10test_emptyEj
ZMe:_MessageFormatter_ReadMethodResponse_m1946725361
Cli:_PKCS12__ctor_m1587304645
uZa:__ZN13RenderTexture23VirtualRedirectTransferER18StreamedBinaryReadILb0EE
BDc:_UNITY_tt_face_lookup_table
B_c:_BaseRaycaster_ToString_m2535186737
ppc:__ZN5Unity9rapidjson13GenericReaderINS0_4UTF8IcEES3_13JSONAllocatorE9ParseHex4INS0_25GenericInsituStringStreamIS3_EEEEjRT_
pFa:__Z17ComputeMipmapSizeiii14GraphicsFormat
$yc:_cf2_stack_pushFixed
r8c:_Dropdown_OnCancel_m1495594239
j5i:__ZNK15dense_hashtableINSt3__24pairIK10KeyWrapperINS1_IP11Il2CppClassjEEES4_EES6_N6il2cpp8metadata14ArrayClassHashEN14dense_hash_mapIS6_S4_SB_NS6_14EqualsComparerINSA_17ArrayClassCompareEEENS0_9allocatorIS8_EEE9SelectKeyESF_SH_E3endEv
gwd:_CollectionBase_OnValidate_m1606907366
Lqg:_MonoBehaviour_StopCoroutineViaEnumerator_Auto_m3883784228
mHc:_TT_Get_MM_Blend
nZ:__Z16realloc_internalPvjj10MemLabelId15AllocateOptionsPKci
IUg:__Z78RuntimeInvoker_Void_t1185182177_RuntimeObject_RuntimeObject_Single_t1397266774PFvvEPK10MethodInfoPvPS4_
gRc:__Z50CanvasRenderer_CUSTOM_CreateUIVertexStreamInternalP12Il2CppObjectS0_S0_S0_S0_S0_S0_S0_S0_S0_
wea:__ZN14PlayableOutput15PrepareTraverseERK9FrameData
fDb:__ZL19RequireCorLibMethodPKcS0_S0_
r2:__ZNK5Unity9Component22GetTypeVirtualInternalEv
zxc:_UNITY_FT_Outline_Get_CBox
$l:_emscripten_get_fullscreen_status
kBa:__ZN6prcoreL26RemapGenericIntegerToFloatI17TexFormatARGB888817TexFormatRGBFloatEEvPKNS_9InnerInfoE
TIe:_MethodDictionary_SetMethodProperty_m3032369066
hWb:__ZN15LODGroupManager27GarbageCollectCameraLODDataEv
iUg:__Z139RuntimeInvoker_Void_t1185182177_RuntimeObject_Color32_t2600501292_Int32_t2950945753_Int32_t2950945753_Single_t1397266774_Single_t1397266774PFvvEPK10MethodInfoPvPS4_
xZb:__ZN13ScreenManagerC2Ev
OZf:_Enumerator_System_Collections_IEnumerator_Reset_m3289381690_gshared
Jw:__ZN7mecanim20ValueArrayBlendBeginILb1EEEvRNS_14ValueArrayMaskE
dmc:__ZN12GUIClipState20CalculateMouseValuesER10InputEvent
pub:__Z18Transfer_BlittableI24GenerateTypeTreeTransferLb0E12PropertyNameEvRK29SerializationCommandArgumentsR31RuntimeSerializationCommandInfo
jua:__ZN7ApiGLES4InitERK14GfxContextGLESR16GfxDeviceLevelGL
TDe:_RemotingServices_CreateClientProxy_m809906894
x5:__ZNK11LightProbes14LightProbeData33GetLightProbeInterpolationWeightsERK8Vector3fRiR8Vector4fRf
OLd:_Stream_Dispose_m2589290611
BKe:_ReturnMessage_get_LogicalCallContext_m2352570297
Rfa:__ZN11TypeManager36FatalErrorOnPersistentTypeIDConflictEiPKc
MV:__ZN21UnityDefaultAllocatorI17LowLevelAllocatorED0Ev
zX:__ZN8Renderer15SetIsRenderableEb
hkh:__ZL54IEnumerator_t1853284238_CustomAttributesCacheGeneratorP21CustomAttributesCache
yBa:__Z14DecodeBC7BlockP9HDRColorAPKh
h3e:_BigInteger_op_RightShift_m2934036419
a6b:__ZNK24RendererAnimationBinding12GetPPtrValueERKN11UnityEngine9Animation10BoundCurveE
cRg:__Z95RuntimeInvoker_Boolean_t97287965_RuntimeObject_TextGenerationSettings_t1351628751_RuntimeObjectPFvvEPK10MethodInfoPvPS4_
Ipd:_Boolean_System_IConvertible_ToSByte_m806999
Tpd:_Boolean_System_IConvertible_ToUInt32_m2723177447_AdjustorThunk
i$g:__Z84RuntimeInvoker_Boolean_t97287965_RaycastResult_t3360306849_RaycastResult_t3360306849PFvvEPK10MethodInfoPvPS4_
mpj:_GC_new_proc_inner
ic:invoke_fiiffi
f0e:_MSCompatUnicodeTable_BuildTailoringTables_m1316979344
Qnb:__Z35Transfer_Blittable_FixedBufferFieldI14SafeBinaryReadiEvRK29SerializationCommandArgumentsR31RuntimeSerializationCommandInfo
ZMb:__ZNK25CameraStackRenderingState21IsRenderingLastCameraEv
GVf:_EqualityComparer_1_System_Collections_IEqualityComparer_Equals_m1538289377_gshared
Kya:__ZL24stbir__filter_catmullromff
_mf:_SecurityElement_AddChild_m1606852781
NUi:__ZN6il2cpp6icalls8mscorlib6SystemL16CheckMemberMatchI9EventInfoNS_5utils10functional6FilterINSt3__212basic_stringIcNS8_11char_traitsIcEENS8_9allocatorIcEEEENS5_13VmStringUtils21CaseSensitiveComparerEEEEEbPKT_PK11Il2CppClassSN_iRKT0_
nVg:__Z83RuntimeInvoker_Boolean_t97287965_SpriteStateU26_t2382775785_SpriteState_t1362986479PFvvEPK10MethodInfoPvPS4_
_Mf:_Array_LastIndexOf_TisRuntimeObject_m1677937501_gshared
qYb:__Z23ValidateScriptComponentP10MonoScriptPN4core12basic_stringIcNS1_20StringStorageDefaultIcEEEE
iXh:__ZL68Selectable_t3250028441_CustomAttributesCacheGenerator_m_InteractableP21CustomAttributesCache
yu:__ZN7mecanim9animation12GetHumanPoseIfEEvRKNS0_18ClipMuscleConstantEPKT_RNS_5human9HumanPoseE
U7a:__ZNSt3__215__inplace_mergeIRNS_4lessI4PPtrI11SpriteAtlasEEENS_11__wrap_iterIPS4_EEEEvT0_SA_SA_T_NS_15iterator_traitsISA_E15difference_typeESE_PNSD_10value_typeEi
YC:__ZN11UnityEngine9Animation30CreateAvatarBindingConstantOptER9TransformPKN7mecanim9animation14AvatarConstantERNS3_6memory9AllocatorE
pua:__ZN26SinglePassStereoSupportExt27InitSinglePassStereoSupportEP21ISinglePassStereoImplP9GfxDevice
N0c:_PointerEventData_set_button_m2912797404
DV:__ZNSt3__23mapIN19CloudServiceHandler11ServiceTypeEPS1_NS_4lessIS2_EE13stl_allocatorINS_4pairIKS2_S3_EEL18MemLabelIdentifier88ELi16EEEixERS8_
ECc:_ft_get_adobe_glyph_index
mJe:_MethodCall_get_GenericArguments_m1010093584
zrj:__ZNSt3__26__treeINS_12__value_typeINS_12basic_stringIcNS_11char_traitsIcEENS_9allocatorIcEEEEPFvvEEENS_19__map_value_compareIS7_SA_NS_4lessIS7_EELb1EEENS5_ISA_EEE25__emplace_unique_key_argsIS7_JRKNS_21piecewise_construct_tENS_5tupleIJOS7_EEENSL_IJEEEEEENS_4pairINS_15__tree_iteratorISA_PNS_11__tree_nodeISA_PvEEiEEbEERKT_DpOT0_
sjc:__Z47Register_UnityEngine_Texture_Internal_GetHeightv
fpf:_Single_ToString_m3947131094_AdjustorThunk
JEb:__Z25scripting_field_get_flags17ScriptingFieldPtr
k0e:_MSCompatUnicodeTable_Level3_m1870873670
ekb:__ZNSt3__218__insertion_sort_3IRPFbRK23TransformAccessReadOnlyS3_EPS1_EEvT0_S8_T_
idf:_X509ChainStatus_GetInformation_m245493206
kzg:_Vector3_Lerp_m407887542
aih:_Collection_1__ctor_m2277581063_gshared
Poi:_MatchCollection__ctor_m4138850022
ZXe:_ScrollRect_set_verticalScrollbarSpacing_m1091218920
Wuc:__ZN8JSONRead8TransferIyEEvRT_PKc17TransferMetaFlagsb
uob:__Z18Transfer_BlittableI14SafeBinaryReadLb0EtEvRK29SerializationCommandArgumentsR31RuntimeSerializationCommandInfo
uSi:__ZN6il2cpp2vm13MetadataCache24InitializeMethodMetadataEj
DW:__ZNK20DynamicHeapAllocatorI17LowLevelAllocatorE8ContainsEPKv
jhd:_HMAC_HashFinal_m1921180827
kvf:_DateTime__ParseString_m2913931606
baj:__ZN6il2cpp2vm14PlatformInvoke36MarshalCppStringToCSharpStringResultEPKc
QTb:__ZN8Material23GetStencilWriteMaterialEv
UDa:__Z12GetBlockSize14GraphicsFormat
qHf:_Array_InternalArray__ICollection_Contains_TisIntPtr_t_m272531112_gshared
RLe:_RemotingProxy_get_TypeName_m4085898624
zXd:_GenericTypeParameterBuilder_not_supported_m3358960901
QRa:__ZN10TagManager8TransferI24GenerateTypeTreeTransferEEvRT_
Jdh:_Collection_1_ConvertItem_m169929357_gshared
LId:_MonoIO_GetCurrentDirectory_m762333289
Vac:__Z35AllocExtractMeshComponentFromScriptRK4Mesh30InternalScriptingShaderChannel34InternalScriptingVertexChannelTypei
Kw:__ZN7mecanim12SetValueMaskILb1EEEvPNS_14ValueArrayMaskEb
wDe:_Dictionary_2_ContainsKey_m415531417_gshared
DRa:__ZN10TagManager23VirtualRedirectTransferER24GenerateTypeTreeTransfer
QPf:_Array_InternalArray__Insert_TisCustomAttributeNamedArgument_t287865710_m3526512389_gshared
Eya:__ZL23stbir__filter_trapezoidff
nQ:__Z44Register_UnityEngine_AudioClip_get_ambisonicv
Ueg:_UInt32_System_IConvertible_ToBoolean_m1763673183
eXb:__ZN23ScriptableRenderContextD2Ev
poh:__ZL52ArrayList_t2718874744_CustomAttributesCacheGeneratorP21CustomAttributesCache
Aed:_SByte_System_IConvertible_ToUInt32_m4275534457
Nqg:_MonoBehaviour_StopCoroutine_Auto_m820288890
i_i:__ZN15dense_hashtableINSt3__24pairIK10KeyWrapperINS1_IPK10MethodInfoP11Il2CppClassEEEjEES9_17ReflectionMapHashIS8_EN14dense_hash_mapIS9_jSD_NS9_14EqualsComparerINS0_8equal_toIS8_EEEENS0_9allocatorISB_EEE9SelectKeyESI_SK_E15insert_noresizeERKSB_
uMc:__Z32TextGenerator_CUSTOM_Dispose_cppP12Il2CppObject
A7i:__ZN6il2cpp6icalls8mscorlib6System19ExtractWidenedValueE14Il2CppTypeEnumPv
Sjf:_SHA256Managed_HashFinal_m2914312286
iJb:__ZN12GPUFencePoolC2Ev
Uoj:_GC_invoke_finalizers
Xqf:_String_Format_m2556382932
gKi:__ZL14adjustScale128PyS_i
FPh:__ZL59EventType_t3528516131_CustomAttributesCacheGenerator_ignoreP21CustomAttributesCache
Hob:__Z18Transfer_BlittableI14SafeBinaryReadLb0E8BitFieldEvRK29SerializationCommandArgumentsR31RuntimeSerializationCommandInfo
S2h:_Array_InternalArray__get_Item_TisTimeSpan_t881159249_m1885583191_gshared
aGf:_Guid__ctor_m3421080095
B5:__ZNK10GameObject25QueryComponentByExactTypeEPKN5Unity4TypeE
she:_U3CGetEnumeratorU3Ec__Iterator0_System_Collections_Generic_IEnumeratorU3CTU3E_get_Current_m52354244_gshared
Y3:__ZNK9ShaderLab22ShaderStencilStateDesc17ToGfxStencilStateEPK19ShaderPropertySheetS3_RK14GfxRasterStateR15GfxStencilState
Qhh:_Collection_1_Remove_m2372638279_gshared
mXe:_U3CClickRepeatU3Ec__Iterator0_MoveNext_m2800364313
EEc:_tt_cmap0_char_next
zBa:__Z15DecodeBC6HBlockP9HDRColorAPKh
vjg:_Camera_get_farClipPlane_m538536689
u2b:__Z13RegisterClassI10GUIElementEvv
ggd:_DSA_Create_m1220983153
$oj:_GC_malloc_uncollectable
Wid:_Array_Clone_m2672907798
Cmb:__ZNK16MemoryFileSystem6ParentERK13FileEntryDataRN4core12basic_stringIcNS3_20StringStorageDefaultIcEEEE
eNd:_SynchronizedWriter_Write_m1297715977
J9c:_Graphic_get_rectTransform_m1167152468
uca:__ZN15LODGroupManagerD2Ev
jNe:_ObjectReader_ReadRefTypeObjectInstance_m3311150386
_vc:__ZN8JSONRead21TransferSTLStyleArrayI13dynamic_arrayIN4math12int2_storageELj4EEEEvRT_17TransferMetaFlags
KSg:__Z115RuntimeInvoker_Boolean_t97287965_RuntimeObject_RuntimeObject_Single_t1397266774_SByte_t1669577662_Int32_t2950945753PFvvEPK10MethodInfoPvPS4_
wPh:__ZL62EventType_t3528516131_CustomAttributesCacheGenerator_mouseMoveP21CustomAttributesCache
z2e:_BigInteger_op_Multiply_m3801644593
Cog:_DefaultValueAttribute_Equals_m443523471
QOa:__ZN12IFileAdapter9SetLengthER13FileEntryDatay
Mic:__Z39SortingLayer_CUSTOM_GetLayerValueFromIDi
Kc:_Mix_PlayMusic
Dtf:_DateTime_System_IConvertible_ToSByte_m4130251280
dlg:_CullingGroup_SendEvents_m2491312335
zAc:_cff_cmap_encoding_init
PXc:__Z34GetUnityWebRequestScriptingClassesv
XCj:___cxa_pure_virtual__wrapper
nFd:_Int32_System_IConvertible_ToSByte_m3133688512_AdjustorThunk
Rm:FUNCTION_TABLE_fii
uHb:__ZN19RuntimeSceneManager24PrepareNewBootstrapSceneEv
_Rg:__Z57RuntimeInvoker_Void_t1185182177_RaycastResult_t3360306849PFvvEPK10MethodInfoPvPS4_
ijg:_Bounds_op_Equality_m3322991400
E2c:_StandaloneInputModule_Process_m309156323
EZi:__ZNK15dense_hashtableINSt3__24pairIK10KeyWrapperIPK10Il2CppTypeEjEES6_N6il2cpp8metadata14Il2CppTypeHashEN14dense_hash_mapIS6_jSB_NS6_14EqualsComparerINSA_26Il2CppTypeEqualityComparerEEENS0_9allocatorIS8_EEE9SelectKeyESF_SH_E12test_deletedEj
iKa:__ZN10SpookyHash7Hash128EPKvjPyS2_
AVb:__ZL60CombineDirectionalShadowCasterCullingIndexListsAndDestroyJobP20ShadowCullingJobData
zwd:_Hashtable__ctor_m3890751112
Syg:_Vector2_ToString_m1205609053_AdjustorThunk
JBc:_otv_MarkBasePos_validate
qka:__ZN9ShaderLab18SerializedPropertyC2ERKS0_
Exc:_cff_driver_init
uag:_ThreadPool_QueueUserWorkItem_m1526970260
gt:__ZN17AnimationPlayable23ConnectNoTopologyChangeEPS_S0_ii
M4b:__ZN16ReflectionProbes20DidChangeActiveSceneEP10UnitySceneS1_
Uqf:_String_ToUpperInvariant_m2531236323
K6a:__ZN16SpriteRenderData8TransferI14SafeBinaryReadEEvRT_
LCj:_emscripten_glVertexAttrib3f__wrapper
Wfd:_DESTransform_GetStrongKey_m1464830895
Mid:_RijndaelTransform_Encrypt192_m3191066202
Jve:_Enumerator_Reset_m1314900927_gshared
Xlb:__ZN20LocalFileSystemPosix4CopyER13FileEntryDataS1_
VOi:__ZNK15dense_hashtableI10KeyWrapperIPK19Il2CppGenericMethodES4_N6il2cpp8metadata23Il2CppGenericMethodHashEN14dense_hash_setIS4_S7_NS4_14EqualsComparerINS6_26Il2CppGenericMethodCompareEEENSt3__29allocatorIS4_EEE8IdentityESB_SE_E3endEv
KTb:__ZL31SetRenderStateForStencilMarkingR9GfxDeviceR17ShaderPassContextjj
tPa:__ZN20ArchiveStorageReader20FillChunkCachedBlockEPNS_11CachedBlockE
uDe:_Dictionary_2_Add_m653869716_gshared
TLd:_StreamAsyncResult__ctor_m3118856368
Vuf:_DateTime_Equals_m611432332_AdjustorThunk
MM:__ZN10AudioMixer16ResumeProcessingEv
N9c:_Graphic_OnBeforeTransformParentChanged_m4229077069
Cqb:__ZNSt3__26vectorI17AnimationCurveTplIfE13stl_allocatorIS2_L18MemLabelIdentifier1ELi16EEE7reserveEj
Mlg:_Display_GetRenderingExtImpl_m2069813991
OPc:__ZN2UI13CanvasManager21EmitGeometryForCameraEP6Camera
Q$:__Z31AudioFilterReadValidateCallback18ScriptingMethodPtr17ScriptingClassPtrP6Object
JOe:_InputField_SetDrawRangeToContainCaretPosition_m1009661083
Cla:__ZN9ShaderLab16SerializedTagMap8TransferI19StreamedBinaryWriteILb0EEEEvRT_
pLd:_MonoIO_get_PathSeparator_m4045322458
LB:__ZN7mecanim5human30HumanPoseAdjustForMissingBonesEPKNS0_5HumanEPNS0_9HumanPoseE
yff:_X509SubjectKeyIdentifierExtension_FromHex_m1011249985
q8i:__ZN6il2cpp6icalls8mscorlib6System9Threading6Thread25SetCachedCurrentUICultureEP12Il2CppThreadP12Il2CppObject
smd:_ArithmeticException__ctor_m479063094
kNe:_ObjectReader_ReadObjectInstance_m3952621118
uDc:_UNITY_FT_Bitmap_Convert
BVb:__Z22CullDirectionalShadowsR9IndexListPK9SceneNodePK4AABBR22DirectionalCullContext
ETd:_Default_BindToMethod_m490530316
SFd:_Int32_ToString_m2507389746
Lbf:_X509KeyUsageExtension_ToString_m3542316380
vid:_RijndaelManaged__ctor_m1562735454
ebe:_SslCipherSuite__ctor_m1470082018
uRi:__ZN15dense_hashtableINSt3__24pairIK10KeyWrapperIPK11Il2CppClassEPKcEES6_N6il2cpp5utils11PointerHashIS3_EEN14dense_hash_mapIS6_S9_SE_NS6_14EqualsComparerINS0_8equal_toIS5_EEEENS0_9allocatorISA_EEE9SelectKeyESJ_SL_E4findERS7_
TTe:_LayoutUtility_U3CGetMinHeightU3Em__4_m2382889764
Gfg:_UInt32_ToString_m2574561716_AdjustorThunk
zU:__ZN11UnityEngine15CloudWebService14RestDownloader7OnAbortEv
Fnj:_alloc_mark_stack
cWi:_AnalyticsSessionInfo_CallSessionStateChanged_m2615824008
RL:__ZNK11AudioSource22GetTypeVirtualInternalEv
hsa:__ZNK13GfxDeviceGLES18GetDefaultRTFormatEv
OGc:_UNITY_FT_Get_Glyph_Name
q5:__Z13VFormatBufferPciPKcPi
dvb:__Z19TransferField_ArrayI24GenerateTypeTreeTransfer27Converter_SimpleNativeClassI8GradientEEvRK23StaticTransferFieldInfoR31RuntimeSerializationCommandInfoRT0_
wai:_ReadOnlyCollection_1_System_Collections_IList_Remove_m913116894_gshared
Eji:_TlsCipherSuite__ctor_m3580955828
m1f:_Enumerator_System_Collections_IEnumerator_Reset_m2355925297_AdjustorThunk
ZR:__ZN11UnityEngine15CloudWebService16SessionContainer16MarkAsDispatchedERKN4core12basic_stringIcNS2_20StringStorageDefaultIcEEEE
_je:_InternalEnumerator_1_System_Collections_IEnumerator_get_Current_m2667908392_gshared
NOb:__Z16CopyActiveLightsRK12ActiveLightsRS_
Clc:__ZN16memory_pool_implILi28EE15AutoPoolWrapper10InitializeEPv
w1g:_List_1_System_Collections_IList_IndexOf_m3921550135_gshared
PIf:_Array_InternalArray__ICollection_Remove_TisUInt64_t4134040092_m2664745791_gshared
Zjc:__Z26Transform_CUSTOM_IsChildOfP12Il2CppObjectS0_
gr:__ZN4core8hash_mapIN11UnityEngine9Animation14GenericBindingENS2_10BoundIndexENS2_25GenericBindingHashFunctorENS2_30GenericBindingValueArrayUniqueEE4findERKS3_
Ypi:_PatternLinkStack_SetCurrent_m366511098
Nsj:__ZNSt3__26vectorINS_12basic_stringIDsNS_11char_traitsIDsEENS_9allocatorIDsEEEENS4_IS6_EEE18__construct_at_endEj
ukg:_Color32__ctor_m4150508762_AdjustorThunk
n8f:_UTF7Decoder__ctor_m546843796
KAf:_Double_System_IConvertible_ToUInt32_m271206838_AdjustorThunk
tpa:__ZNK13GfxDeviceGLES11GetViewportEv
Gbc:__ZN14AsyncOperation26ClearCachedScriptingObjectEv
LGc:_UNITY_tt_face_load_cvt
Ive:_Enumerator_System_Collections_IEnumerator_Reset_m4080198166_gshared
cgc:__Z31GameObject_Set_Custom_PropLayerP12Il2CppObjecti
x6h:_ReadOnlyCollection_1_System_Collections_IList_Add_m1881324749_gshared
pSi:__ZL32InitializeCustomAttributesCachesPv
YPa:__ZN20ArchiveStorageReaderD0Ev
bha:__ZN6Shader23VirtualRedirectTransferER19StreamedBinaryWriteILb0EE
vXc:__ZN19TransportJavaScript7PrepareEv
e7g:_List_1_System_Collections_IList_IndexOf_m1088859899_gshared
Uti:_Uri__ctor_m3848281005
juc:__Z35Transfer_Blittable_FixedBufferFieldI8JSONReadaEvRK29SerializationCommandArgumentsR31RuntimeSerializationCommandInfo
bmb:__ZNK20LocalFileSystemPosix20GetApplicationFolderEv
Ddd:_StreamingContext_Equals_m2722903674_AdjustorThunk
$R:__ZN11UnityEngine15CloudWebService14DataDispatcher31SetupSessionContainerToDispatchEv
NCb:__Z29Transfer_Blittable_ArrayFieldI18StreamedBinaryReadILb0EE8Vector3fEvRT_R9ArrayInfoRK23StaticTransferFieldInfo
Ffd:_CspParameters__ctor_m1928090281
i$a:__ZN9ShaderLab11shaderprops9GetVectorEPK19ShaderPropertySheetS3_NS_16FastPropertyNameE
pI:__ZN4FMOD12ChannelGroup10getDSPHeadEPPNS_3DSPE
yFc:_UNITY_tt_size_run_prep
LH:__ZN12AudioManager17MainThreadCleanupEv
Nmf:_Evidence_CopyTo_m872435527
_kd:_SecurityParser_OnEndElement_m2088612360
Q1:__ZNK6Camera18ScreenToWorldPointERK8Vector3f
d8i:__ZN6il2cpp6icalls8mscorlib6System9Threading6Thread11GetDomainIDEv
qva:__ZNK13TranslateGLES13GetFormatDescE14GraphicsFormat
tx:__ZN7mecanim9animation22MotionAddOverrideLayerEPNS0_12MotionOutputEPKS1_fbbRKNS_6bitsetILj83EEE
_Ma:__ZN17ArchiveFileSystemD0Ev
wqi:_BackslashNumber_ResolveReference_m4176908213
Ule:_InternalEnumerator_1_System_Collections_IEnumerator_get_Current_m888718134_AdjustorThunk
Mud:_SynchronizedArrayListWrapper_IndexOf_m1028529531
P9c:_GraphicRegistry_UnregisterGraphicForCanvas_m2540204166
zSb:__ZN14qsort_internal5QSortIP20ShadowCasterSortDatai26ShadowCasterSortDataSorterEEvT_S4_T0_T1_
KU:__ZN11UnityEngine15CloudWebService19SessionEventManager5StartERKN4core12basic_stringIcNS2_20StringStorageDefaultIcEEEEii
Amc:__ZN16GUIKeyboardState16SaveFromGUIStateER8GUIState
xqb:__Z22TransferField_NonArrayI14SafeBinaryRead27Converter_SimpleNativeClassI8GradientEEvRK23StaticTransferFieldInfoR31RuntimeSerializationCommandInfoRT0_
zf:_emscripten_glBufferData
Jhi:_UnityEvent_2_FindMethod_Impl_m2569180594_gshared
RPb:__Z25DoForwardShaderRenderLoopRK17RenderLoopContextR13dynamic_arrayI16RenderObjectDataLj4EERK11CullResultsbbbN6Camera10RenderFlagE
GPc:__ZZN2UI23InitializeCanvasManagerEvEN53UIEventsCanvasManagerEmitOffScreenGeometryRegistrator7ForwardEv
Df:_glUniform3iv
Gqg:_Mesh_RecalculateBounds_m39931642
zrg:_Plane__ctor_m2890438515
qvi:_GUI_get_skin_m1874615010
j5g:_List_1_System_Collections_IList_Contains_m453976393_gshared
Uqc:__Z18Transfer_BlittableI9JSONWriteLb0E9BoundsIntEvRK29SerializationCommandArgumentsR31RuntimeSerializationCommandInfo
ldg:_Type_GetMethod_m1197120913
Kwj:_fwrite
s4d:_COMException__ctor_m3707984232
lUf:_DefaultComparer_Equals_m962817516_gshared
dPg:__Z107RuntimeInvoker_Void_t1185182177_Single_t1397266774_Single_t1397266774_Single_t1397266774_Single_t1397266774PFvvEPK10MethodInfoPvPS4_
yDb:__ZN13MonoBehaviourD0Ev
aPc:__ZN2UI6Canvas18UpdateEventIndexesEv
Nxi:_SymmetricTransform_CTS_m764800021
nwj:_pipe
zli:_SubjectAltNameExtension_ToString_m3628154311
xng:_RenderPipelineManager_get_currentPipeline_m1638613344
wIi:_CanvasRenderer_SetPopMaterial_m2720611463
gic:__Z50RectTransform_CUSTOM_INTERNAL_set_anchoredPositionP12Il2CppObjectRK13Vector2fIcall
fka:__ZNSt3__26vectorIN9ShaderLab19SerializedSubShaderENS_9allocatorIS2_EEE6resizeEj
KMa:__ZN4FileC2Ev
FLg:__Z81RuntimeInvoker_Void_t1185182177_RuntimeObject_Double_t594665363_Int32_t2950945753PFvvEPK10MethodInfoPvPS4_
X3e:_BitConverterLE_UIntFromBytes_m3974925535
Mcg:_Type_GetTypeFromHandle_m1620074514
p_i:__ZN15dense_hashtableINSt3__24pairIK10KeyWrapperINS1_IPK10MethodInfoP11Il2CppClassEEEjEES9_17ReflectionMapHashIS8_EN14dense_hash_mapIS9_jSD_NS9_14EqualsComparerINS0_8equal_toIS8_EEEENS0_9allocatorISB_EEE9SelectKeyESI_SK_E12maybe_shrinkEv
qRa:__ZN14BatchAllocator16AllocateInternalEPPvijjj
Ung:_GameObject_SendMessage_m3720186693
M2b:__Z13RegisterClassI6SpriteEvv
UIf:_Array_InternalArray__ICollection_Remove_TisKeyframe_t4206410242_m3222074551_gshared
kmd:_ArgumentException_get_Message_m520762021
oje:_InternalEnumerator_1_System_Collections_IEnumerator_get_Current_m1641466962_AdjustorThunk
oOi:__ZN14dense_hash_setI10KeyWrapperIPK17Il2CppGenericInstEN6il2cpp8metadata21Il2CppGenericInstHashENS4_14EqualsComparerINS6_24Il2CppGenericInstCompareEEENSt3__29allocatorIS4_EEEC2EjRKS7_RKSA_
I7e:_HybridDictionary_Switch_m3818192922
Wmj:_min_bytes_allocd
Dzb:__ZN17AnimationCurveTplIfE15InvalidateCacheEv
xZe:_Selectable_Awake_m2577497063
qLf:_Array_compare_TisUIVertex_t4057497605_m3950502696_gshared
blc:__Z29Mesh_Get_Custom_PropCanAccessP12Il2CppObject
s7a:__ZN6Sprite8TransferI19StreamedBinaryWriteILb0EEEEvRT_
Eve:_Enumerator_System_Collections_IEnumerator_get_Current_m2979767597_gshared
NOf:_Array_InternalArray__ICollection_CopyTo_TisLabelData_t360167391_m175414846_gshared
w2e:_BigInteger_op_Implicit_m378428706
crg:_PlayerConnection_DisconnectedCallback_m1697017309
Ffb:__Z14resize_trimmedINSt3__26vectorIi13stl_allocatorIiL18MemLabelIdentifier13ELi16EEEEEvRT_j
xE:__ZN7mecanim9animation18ControllerConstant15InitializeClassEv
uBf:_Enum_System_IConvertible_ToDateTime_m3823814707
uo:FUNCTION_TABLE_iiiiiiiffiiiiiiiiiffffiiii
SAf:_Double_CompareTo_m3151899116_AdjustorThunk
fRd:_NumberFormatter_Init_m2982613221
Eyc:_cf2_getMaxstack
IWd:_EnumBuilder_GetCustomAttributes_m166600193
ayi:_Check_Source_m4098695967
xwg:_SpaceAttribute__ctor_m2972541600
XAd:_Convert_ToInt32_m2128774575
nue:_DefaultComparer_Compare_m297694671_gshared
Qze:_Enumerator_System_Collections_IEnumerator_Reset_m2917956982_gshared
Rzc:_cff_parser_run
Soj:_GC_notify_or_invoke_finalizers
Xgj:__ZN6il2cpp2os6Thread5SleepEjb
gqf:_String_Compare_m1293271421
cFd:_Int32_System_IConvertible_ToDateTime_m1824716955_AdjustorThunk
KCj:_emscripten_glUniform3f__wrapper
Hn:FUNCTION_TABLE_viiiifii
CMc:__Z38Register_UnityEngine_Font_get_materialv
S4f:_List_1_set_Item_m3289315279_gshared
yFd:_Int32_CompareTo_m2864982090
Ejj:__ZN15dense_hashtableINSt3__24pairIK10KeyWrapperIPK19Il2CppGenericMethodEP10MethodInfoEES6_N6il2cpp8metadata23Il2CppGenericMethodHashEN14dense_hash_mapIS6_S9_SD_NS6_14EqualsComparerINSC_26Il2CppGenericMethodCompareEEENS0_9allocatorISA_EEE9SelectKeyESH_SJ_E4findERS7_
KRa:__ZN10TagManager23AddDefaultLayerIfNeededEv
_Ta:__ZN10FlareLayer12AddToManagerEv
Fda:__ZN18AsyncUploadManagerC2E10MemLabelId
oHa:__ZNSt3__26vectorINS_4pairI5CbKeyPN19ConstantBuffersGLES11ConstBufferEEENS_9allocatorIS6_EEE21__push_back_slow_pathIKS6_EEvRT_
x6i:__ZNK15dense_hashtableINSt3__24pairIK10KeyWrapperINS1_IP11Il2CppClassjEEES4_EES6_N6il2cpp8metadata14ArrayClassHashEN14dense_hash_mapIS6_S4_SB_NS6_14EqualsComparerINSA_17ArrayClassCompareEEENS0_9allocatorIS8_EEE9SelectKeyESF_SH_E12test_deletedEj
Wcb:__ZN13BuildSettings23VirtualRedirectTransferER24GenerateTypeTreeTransfer
Vub:__ZN24GenerateTypeTreeTransfer21TransferSTLStyleArrayINSt3__26vectorI8GUIStyle13stl_allocatorIS3_L18MemLabelIdentifier1ELi16EEEEEEvRT_17TransferMetaFlags
CAe:_Enumerator_get_Current_m926428745_AdjustorThunk
rzc:_cf2_arrstack_clear
vtc:__Z18Transfer_BlittableI8JSONReadLb1E8Vector2fEvRK29SerializationCommandArgumentsR31RuntimeSerializationCommandInfo
Nge:_SslStreamBase_BeginRead_m3146234303
hBf:_Double_ToString_m1051753975
fOc:__ZN2UI14CanvasRenderer23VirtualRedirectTransferER24GenerateTypeTreeTransfer
mLb:__Z16PresentAfterDrawN9GfxDevice11PresentModeE
Mwa:__ZN10DynamicVBO19FillQuadIndexBufferER21DynamicVBOChunkHandle
wmi:_PKCS12_Clone_m2085085101
CYf:_EqualityComparer_1__cctor_m3880019879_gshared
akj:__ZN6il2cpp2vm6String8NewUtf16ERKNS_5utils10StringViewIDsEE
m8d:_MD5SHA1__ctor_m4081016482
TEj:_glGenFramebuffers__wrapper
sHj:_glBindBufferBase__wrapper
VSe:_LayoutGroup_GetAlignmentOnAxis_m1696038011
H9:__ZN23TransformChangeDispatch15InitializeClassEPv
zS:__ZN9JSONWrite8TransferIyEEvRT_PKc17TransferMetaFlags
iQb:__ZN22MotionVectorRenderLoop16PerformRenderingER8JobFence
wGj:_glTexSubImage2D__wrapper
gU:__ZN11UnityEngine15CloudWebService18RestFileDownloader13OnReceiveDataEPKvj
HFc:_UNITY_TT_RunIns
KFc:_Current_Ppem
Tpc:__ZN5Unity9rapidjson6WriterI16TempBufferWriterNS0_4UTF8IcEES4_13JSONAllocatorE10StartArrayEv
U5h:_ReadOnlyCollection_1_System_Collections_IEnumerable_GetEnumerator_m610559569_gshared
xZf:_GenericEqualityComparer_1_Equals_m3279253448_gshared
FBj:dynCall_iiiiiiiii
Wga:__ZN6ShaderD0Ev
Z1b:__ZN18BackgroundJobQueue19ScheduleJobInternalEPFvPvES0_RKNS_8JobFenceE
Vdj:__ZN6il2cpp2gc8GCHandle9GetTargetEj
LLb:__ZN25CameraStackRenderingState18EndStereoRenderingEv
Flb:__ZN20LocalFileSystemPosix9SetLengthER13FileEntryDatay
uHd:_IntPtr_op_Explicit_m1593085246
sTh:__ZL64StandaloneInputModule_t2760469101_CustomAttributesCacheGeneratorP21CustomAttributesCache
Vsj:__ZN6il2cpp5utils25NativeDelegateMethodCache17GetNativeDelegateEPFvvE
xWa:__Z27ConvertSubMeshesToTrianglesItEvR13dynamic_arrayI7SubMeshLj4EERS0_IhLj1EE
ak:_emscripten_glGetProgramiv
MFi:_InputBuffer_add_onCommandSent_m2926830140
ceb:__ZN26PlayerSettingsSplashScreen8TransferI24GenerateTypeTreeTransferEEvRT_
pAa:__ZN6prcoreL17RemapGenericFloatI18TexFormatRGBAFloat14TexFormatRHalfEEvPKNS_9InnerInfoE
kCf:_Environment_get_Platform_m520224871
ZAf:_FormatException__ctor_m1479314061
zg:_glScissor
JEf:_CultureInfo_insert_into_shared_tables_m4239017467
LUc:__ZNSt3__26__treeINS_12__value_typeIN4core12basic_stringIcNS2_20StringStorageDefaultIcEEEE14CallbackArray2IRKS6_R8JSONReadEEENS_19__map_value_compareIS6_SD_NS_4lessIS6_EELb1EEE13stl_allocatorISD_L18MemLabelIdentifier6ELi16EEE7destroyEPNS_11__tree_nodeISD_PvEE
BIi:_CanvasRenderer_SplitUIVertexStreamsInternal_m3280623346
pUe:_CullStateChangedEvent__ctor_m4089558259
Tji:_TlsClientSettings_set_ClientCertificate_m3374228612
ZKd:_MemoryStream_Read_m337792459
PPf:_Array_InternalArray__Insert_TisRuntimeObject_m1619219378_gshared
IMd:_StreamWriter_LowLevelWrite_m1318762026
JQd:_MulticastDelegate_GetHashCode_m3864330728
J6g:_List_1_Insert_m1643593161_gshared
ZEg:__Z133RuntimeInvoker_Int32_t2950945753_RuntimeObject_RuntimeObject_Int32_t2950945753_Int32_t2950945753_RuntimeObject_ContextU26_t3937453398PFvvEPK10MethodInfoPvPS4_
Wqa:__ZN13GfxDeviceGLES21RegisterNativeTextureE9TextureIDi16TextureDimension
Lic:__Z44Register_UnityEngine_Material_DisableKeywordv
hn:FUNCTION_TABLE_iiiiiiif
IGg:__Z118RuntimeInvoker_Int32_t2950945753_IntPtr_t_RuntimeObject_Int32_t2950945753_Int32_t2950945753_MonoIOErrorU26_t1548853198PFvvEPK10MethodInfoPvPS4_
QHj:_emscripten_glUniform4fv__wrapper
en:FUNCTION_TABLE_iiiiiiii
Sfa:__ZN4core8hash_mapIiP4RTTIN11TypeManager27HashFunctorPersistentTypeIDENSt3__28equal_toIiEEEixERKi
d7c:_DefaultControls_CreateUIElementRoot_m3904573408
Mwc:__ZN19ControllerHitReportD2Ev
Ome:_InternalEnumerator_1_System_Collections_IEnumerator_get_Current_m4189894603_gshared
Eqj:__ZN6il2cpp2os11MutexHandle4WaitEv
XT:__ZN11UnityEngine15CloudWebService23WebRequestUploadHandler8GetBytesEv
rof:_Single_System_IConvertible_ToChar_m1898259383
bza:__ZN6prcoreL12RemapGenericI11TexFormatI817TexFormatARGB4444EEvPKNS_9InnerInfoE
qPf:_Array_InternalArray__ICollection_CopyTo_TisVector2_t2156229523_m4226925582_gshared
qGf:_Guid_Equals_m1866984197_AdjustorThunk
Idb:__ZNK14PlayerSettings22GetTypeVirtualInternalEv
j8h:_ReadOnlyCollection_1_System_Collections_IList_Insert_m2216746332_gshared
Tzd:_Convert_ToChar_m2261593104
acj:__ZN15dense_hashtableINSt3__24pairIK10KeyWrapperINS1_IPKcS4_EEEiEES6_24NamespaceAndNamePairHashN14dense_hash_mapIS6_iS9_NS6_14EqualsComparerI26NamespaceAndNamePairEqualsEENS0_9allocatorIS8_EEE9SelectKeyESD_SF_EC2ERKSI_j
znh:__ZL61ComImportAttribute_t1295173782_CustomAttributesCacheGeneratorP21CustomAttributesCache
JBf:_Enum_FormatSpecifier_X_m2932245600
AVd:_DerivedType_GetInterfaces_m2159651138
Gjg:_Camera_ScreenToViewportPoint_m3569032523
hea:__ZN15DirectorManager12RegisterJobsEP13PlayableGraph
Zyd:_Stack_Push_m2529252115
Hnc:__Z38Event_CUSTOM_Internal_GetMousePositionP12Il2CppObjectP13Vector2fIcall
FU:__ZN11UnityEngine15CloudWebService14DataDispatcher10InitializeERKN4core12basic_stringIcNS2_20StringStorageDefaultIcEEEEPvjRNS0_18ICloudJobSchedulerE
aXc:__ZN22CrashReportingSettingsC2Ev
zzc:_cff_free_glyph_data
$fd:_DESTransform__cctor_m244488330
qqa:__ZN13GfxDeviceGLES23ResolveDepthIntoTextureE12ObjectHandleI17RenderSurface_TagP17RenderSurfaceBaseES4_
sTd:_AssemblyName_OnDeserialization_m3779987437
qV:__ZN11UnityEngine15CloudWebService14DataDispatcher17PlayerLoopHandlerEv
sAd:_Convert_ToDouble_m1177445661
Jbd:_HorizontalOrVerticalLayoutGroup_set_childControlHeight_m1806657287
zgf:_Interpreter_GetString_m94448266
nvg:_RectTransform_set_offsetMin_m1512629941
eVc:__ZN11UnityEngine7Connect15AppRunningEventC2Ejjjj
L9i:__ZN6il2cpp2vm9Exception23GetInvalidCastExceptionEPKc
H$:__Z26GetManagedAttributeManagerv
Wtj:__ZN6il2cpp6icalls8mscorlib6System8DateTime16GetTimeMonotonicEv
UFa:__ZN19ComputeShaderKernelC2ERKS_
NWa:__ZN4Mesh14ClearSkinCacheEv
MEd:_NumberFormatter_InitDecHexDigits_m829694854
Arc:__Z18Transfer_BlittableI9JSONWriteLb0EjEvRK29SerializationCommandArgumentsR31RuntimeSerializationCommandInfo
Ggi:_UnityAction_2_BeginInvoke_m1769266175_gshared
VVi:__ZN6il2cpp2os4File10DeleteFileERKNSt3__212basic_stringIcNS2_11char_traitsIcEENS2_9allocatorIcEEEEPi
Xla:__ZL15GetIndexForNameRNSt3__23mapIN4core12basic_stringIcNS1_20StringStorageDefaultIcEEEEiNS_4lessIS5_EENS_9allocatorINS_4pairIKS5_iEEEEEERSA_
Og:__exit
OL:__ZN11AudioSource13AwakeFromLoadE17AwakeFromLoadMode
sHd:_IntPtr_op_Inequality_m3063970704
QSc:__ZN22BaseUnityConnectClient19OnEnterStateStoppedEv
YFb:__ZL31FindActiveTransformWithPathImplPKcR10GameObjectb
HDj:_glViewport__wrapper
BRe:_InputField_get_preferredWidth_m2499328890
h5h:_ReadOnlyCollection_1_System_Collections_Generic_ICollectionU3CTU3E_Add_m3521523143_gshared
OBj:b5
Nee:_SendRecordAsyncResult__ctor_m425551707
Fsh:__ZL57DispIdAttribute_t491906453_CustomAttributesCacheGeneratorP21CustomAttributesCache
HBj:b0
IBj:b1
JBj:b2
nab:__ZN4Mesh8TransferI24GenerateTypeTreeTransferEEvRT_
OAg:__Z128RuntimeInvoker_Boolean_t97287965_Int32U26_t1369213839_RuntimeObject_SByte_t1669577662_SByte_t1669577662_ExceptionU26_t3600731591PFvvEPK10MethodInfoPvPS4_
Usc:__ZN9JSONWrite8TransferI13dynamic_arrayI10ColorRGBAfLj4EEEEvRT_PKc17TransferMetaFlags
RBj:b8
SBj:b9
sTi:__ZN6il2cpp2vm21ThreadPoolCompartmentC2Ev
e0a:__Z14resize_trimmedINSt3__26vectorIN4core12basic_stringIcNS2_20StringStorageDefaultIcEEEE13stl_allocatorIS6_L18MemLabelIdentifier1ELi16EEEEEvRT_j
XR:__ZN11UnityEngine15CloudWebService16SessionContainer13DeleteArchiveERKN4core12basic_stringIcNS2_20StringStorageDefaultIcEEEE
BBf:_Enum_System_IConvertible_ToSingle_m1234919892
oaf:_IPv6Address_Parse_m3004687047
eIc:_Vertical_Sweep_Step
PZi:__ZN15dense_hashtableINSt3__24pairIK10KeyWrapperIPK10Il2CppTypeEjEES6_N6il2cpp8metadata14Il2CppTypeHashEN14dense_hash_mapIS6_jSB_NS6_14EqualsComparerINSA_26Il2CppTypeEqualityComparerEEENS0_9allocatorIS8_EEE9SelectKeyESF_SH_E9copy_fromERKSK_j
LU:__ZN19CloudServiceHandler17PauseEventHandlerEb
IOc:__ZN2UI6Canvas29EncapsulateChildrenMeshBoundsEv
boa:__ZN19ShaderPropertySheetD0Ev
p0h:_Array_Sort_TisVector3_t3722313464_TisVector3_t3722313464_m3923377973_gshared
_Tf:_DefaultComparer_GetHashCode_m605456464_gshared
kif:_RIPEMD160Managed_HHH_m2839246531
Ieg:_UInt32_Parse_m2778221109
xub:__Z18Transfer_BlittableI24GenerateTypeTreeTransferLb0EaEvRK29SerializationCommandArgumentsR31RuntimeSerializationCommandInfo
XQe:_InputField_ProcessEvent_m2195684349
bad:_Graphic_OnEnable_m3893553015
ER:__ZN11UnityEngine15CloudWebService18CloudServiceConfigD2Ev
GAa:__ZN6prcoreL17RemapGenericFloatI15TexFormatRGHalf15TexFormatRFloatEEvPKNS_9InnerInfoE
Wjb:__ZN2UI13RectTransform8TransferI19StreamedBinaryWriteILb0EEEEvRT_
oPd:_MonoCustomAttrs_IsDefinedInternal_m2193933235
y1d:_MonoMethod_get_IsGenericMethodDefinition_m3024870835
uPa:__ZN20ArchiveStorageReader18DestroyCachedBlockEPNS_11CachedBlockE
n1i:__ZN15dense_hashtableINSt3__24pairIK10KeyWrapperIPK14Il2CppAssemblyEPK22Il2CppMonoAssemblyNameEES6_N6il2cpp5utils11PointerHashIS4_EEN14dense_hash_mapIS6_SA_SF_NS6_14EqualsComparerINS0_8equal_toIS5_EEEENS0_9allocatorISB_EEE9SelectKeyESK_SM_E9copy_fromERKSP_j
mma:__ZN9ShaderLab4Pass24CreateFromSerializedPassERKNS_14SerializedPassEPK6Shader
wjc:__Z61Register_UnityEngine_Texture2D_INTERNAL_CALL_GetPixelBilinearv
ghd:_HMAC_Dispose_m3665032088
sl:_emscripten_set_deviceorientation_callback
c8a:__ZNK14Texture2DArray22GetTypeVirtualInternalEv
cje:_InternalEnumerator_1_System_Collections_IEnumerator_get_Current_m1277470738_gshared
D0i:__ZN6il2cpp2vm10Reflection15GetParamObjectsEPK10MethodInfoP11Il2CppClass
Cea:__ZN8Playable16ProcessPlayStateERK19DirectorVisitorInfo
njd:_X501_ToString_m2278029064
Pm:FUNCTION_TABLE_fif
eVh:__ZL80Graphic_t1660335611_CustomAttributesCacheGenerator_Graphic_OnFillVBO_m1026749972P21CustomAttributesCache
ncb:__ZN14SafeBinaryRead21TransferSTLStyleArrayI13dynamic_arrayI9InputAxisLj4EEEEvRT_17TransferMetaFlags
d9i:__ZN6il2cpp2vm13LivenessState14TraverseObjectEP12Il2CppObjectPS1_
Eb:invoke_viifiii
CZa:__ZNK13RenderTexture12IsMemorylessEv
una:__ZN9ShaderLab20SerializedSubProgram15AddTextureParamEPKciib16TextureDimension
Dfb:__ZN14SafeBinaryRead21TransferSTLStyleArrayINSt3__26vectorIN30RuntimeInitializeOnLoadManager15ClassMethodInfoE13stl_allocatorIS4_L18MemLabelIdentifier13ELi16EEEEEEvRT_17TransferMetaFlags
tqi:_Parser_NewParseException_m686511029
NJi:_HumanBone_t2465339518_marshal_pinvoke
kWh:__ZL96Mask_t1803652131_CustomAttributesCacheGenerator_Mask_OnSiblingGraphicEnabledDisabled_m2583294479P21CustomAttributesCache
Hci:_Comparison_1_Invoke_m941130260_gshared
bdg:_Type_GetType_m3605423543
z7h:_ReadOnlyCollection_1_System_Collections_Generic_IListU3CTU3E_set_Item_m375376101_gshared
uPd:_MonoEnumInfo__ctor_m3350651181_AdjustorThunk
Ixa:__ZN4crnd12crn_unpacker22decode_alpha_selectorsEv
ioj:_GC_print_heap_sects
rQg:__Z74RuntimeInvoker_Vector2_t2156229523_Vector2_t2156229523_Vector2_t2156229523PFvvEPK10MethodInfoPvPS4_
FJb:__ZN16GeometryJobTasksC2E10MemLabelId
ydc:__ZN9Scripting30CreateScriptableObjectWithTypeE28ScriptingSystemTypeObjectPtrb
UKg:__Z131RuntimeInvoker_Int32_t2950945753_RuntimeObject_Int32_t2950945753_RuntimeObject_RuntimeObject_SByte_t1669577662_Int32U26_t1369213839PFvvEPK10MethodInfoPvPS4_
Voa:__ZN13GfxDeviceGLES19SetUserBackfaceModeEb
eSb:__ZN30ForwardShaderRenderLoopScratchD2Ev
meg:_UInt16_System_IConvertible_ToInt64_m3635199533_AdjustorThunk
Afi:_InvokableCall_1_Invoke_m4150391468_gshared
Olj:__ZN6il2cpp6icalls8mscorlib6System7Runtime16CompilerServices14RuntimeHelpers22get_OffsetToStringDataEv
DVc:__ZN20UnityConnectSettingsD0Ev
l_c:_ExecuteEvents_get_pointerExitHandler_m659239743
AUa:__Z15GetLightManagerv
kcc:__ZN18UnityPropertySheet21AddNewSerializedPropsERKS_
JWe:_Scrollbar_OnEnable_m665096645
$Va:__ZN9GfxDevice24GetMaxStaticBatchIndicesEv
jGi:_InputBuffer_UpdateCurrentInputLine_m2113149539
tpg:_Mathf_Floor_m1195858412
eli:_ExtendedKeyUsageExtension_Decode_m2326833343
SHa:__ZN9GfxDevice13SetViewMatrixERK10Matrix4x4f
Lza:__ZN6prcoreL12RemapGenericI17TexFormatRGBA888817TexFormatARGB1555EEvPKNS_9InnerInfoE
vwg:_SortingLayer_GetLayerValueFromID_m1947934714
wsd:_Char_ToLower_m3999837485
H$c:_ExecuteEvents_Execute_m1185511561
TSa:__ZN13MonoBehaviour30InvokeMethodOrCoroutineCheckedE18ScriptingMethodPtr18ScriptingObjectPtrP21ScriptingExceptionPtr
